nj:_glClearStencil
nLj:__ZN35AssemblyCompanyAttribute_t90925751210set_name_0EP8String_t
R1k:_UInt16_System_IConvertible_ToChar_m2096055221_AdjustorThunk
Quh:__ZN23InterfaceActionInvoker1IP18Camera_t4157153871E6InvokeEjP11Il2CppClassP12Il2CppObjectS1_
vfk:_Array_TrueForAll_TisRuntimeObject_m1084992726_gshared
V5m:__ZN19X509Crl_t114876738816set_extensions_7EP34X509ExtensionCollection_t609554709
Juk:__Z25Il2CppCodeGenWriteBarrierI27CompressedStack_t1202932761EvPPT_S2_
Iik:__ZNK24Vector4U5BU5D_t93405643614GetAtUncheckedEj
djp:__ZN6il2cpp2vm5Array13GetByteLengthEP11Il2CppArray
uEl:_Array_InternalArray__set_Item_TisDateTime_t3738529785_m1331437427_gshared
aVn:_KeyBuilder_get_Rng_m3373220441
HYk:_ThreadAbortException__ctor_m1955533141
DXf:_CompilerGeneratedAttribute__ctor_m3151881902
P0d:__ZN15DownloadHandler7OnAbortEv
bGa:__ZN9Scripting11UnityEngine38ExcludeFromObjectFactoryAttributeProxy12CleanupProxyEv
j_k:__Z35GenericComparer_1__ctor_m3652072706P29GenericComparer_1_t2877759089PK10MethodInfo
h7e:__ZL51AIUpdate_t2336814084_CustomAttributesCacheGeneratorP21CustomAttributesCache
gPa:__Z30GetIntermediateRendererManagerv
lrg:_InternalEnumerator_1_System_Collections_IEnumerator_Reset_m1223176161_gshared
CDa:__ZN9Scripting11UnityEngine9Profiling13RecorderProxy9InitProxyEv
RQ:__ZN10StateRange8TransferI14SafeBinaryReadEEvRT_
E7a:__Z21SourceMipLevelForBlitiiii
D3a:__Z23SetSpriteMeshIndexCountP14SharedMeshDataj
n_k:_TimeSpan_get_Hours_m550761902
jif:__ZL72GUISkin_t1244372282_CustomAttributesCacheGenerator_m_verticalSliderThumbP21CustomAttributesCache
rTi:__ZNK51RSASslSignatureDeformatter_t3558097625_StaticFields29get_U3CU3Ef__switchU24map15_2Ev
Oyc:__ZN9ShaderLab9SubShader15FindNamedPassesERKN4core12basic_stringIcNS1_20StringStorageDefaultIcEEEER13dynamic_arrayIPNS_4PassELj0EE
MAh:__ZNK26PlayableHandle_t109585380315get_m_Version_1Ev
Mbf:__ZL63PlayableOutputHandle_t4208053793_CustomAttributesCacheGeneratorP21CustomAttributesCache
Iaa:__ZN11UnityEngine15CloudWebService26CloudServiceEventWithParam12ToJsonStringER9JSONWrite
Qme:_CanvasScaler_get_defaultSpriteDPI_m871626936
GAo:__ZNK15dense_hashtableINSt3__24pairIK10KeyWrapperIPK19Il2CppGenericMethodEPK26Il2CppGenericMethodIndicesEES6_N6il2cpp8metadata23Il2CppGenericMethodHashEN14dense_hash_mapIS6_SA_SE_NS6_14EqualsComparerINSD_26Il2CppGenericMethodCompareEEENS0_9allocatorISB_EEE9SelectKeyESI_SK_E10test_emptyEj
RIc:__Z59Register_UnityEngine_PlayerConnectionInternal_DisconnectAllv
WCm:__ZNK24Collection_1_t189530167114get_syncRoot_1Ev
AIe:__ZL66RuntimeArray_CustomAttributesCacheGenerator_Array_Sort_m3287581440P21CustomAttributesCache
aYn:_AnalyticsEventTracker_SendEvent_m1365958832
Swp:___cxx_global_var_init_44437
kfa:__ZdlPv
L1e:__ZL54Application_t1852185770_CustomAttributesCacheGeneratorP21CustomAttributesCache
Bs:__ZN11UnityEngine9Animation28GenericAnimationBindingCacheD2Ev
hVk:_UTF8Encoding_GetHashCode_m641510078
m_m:__ZN26X509Certificate_t48924302513set_m_until_3E20DateTime_t3738529785
K6m:_X509Store_LoadCrl_m1881903843
xGl:_Array_Sort_TisUICharInfo_t75501106_TisUICharInfo_t75501106_m722747892_gshared
WO:__ZN15AnimationBinder13SetFloatValueERK20BoundCurveDeprecatedf
Ddh:__Z26ListPool_1_Get_m4207191750P12Il2CppObjectPK10MethodInfo
vzi:_CaseInsensitiveComparer__ctor_m2101975011
gfn:_GUILayout_Button_m1340817034
q5m:__ZNK22X509Stores_t137393623716get__storePath_0Ev
ebl:__Z67RuntimeInvoker_Byte_t1134296376_Int32_t2950945753_Int32_t2950945753PFvvEPK10MethodInfoPvPS4_
zXk:__ZNK32RegisteredWaitHandle_t152953845415get__callback_2Ev
H9k:__Z53RuntimeInvoker_UInt32_t2560061978_Decimal_t2948259380PFvvEPK10MethodInfoPvPS4_
Vnc:__Z18RestoreRenderStateR20CameraRenderOldStateR17ShaderPassContext
k1g:__Z25Il2CppCodeGenWriteBarrierI29AnimationTriggers_t2532145056EvPPT_S2_
FMb:__Z18Transfer_BlittableI24GenerateTypeTreeTransferLb0E11ColorRGBA32EvRK29SerializationCommandArgumentsR31RuntimeSerializationCommandInfo
fDa:__ZN9Scripting11UnityEngine9Rendering23GraphicsDeviceTypeProxy12CleanupProxyEv
VSb:__Z25scripting_class_from_name17ScriptingImagePtrPKcS1_
GDl:_Array_InternalArray__Insert_TisSingle_t1397266774_m3161726127_gshared
hZo:__ZN14dense_hash_mapI10KeyWrapperINSt3__24pairIPK12PropertyInfoP11Il2CppClassEEEj17ReflectionMapHashIS8_ENS9_14EqualsComparerINS1_8equal_toIS8_EEEENS1_9allocatorINS2_IKS9_jEEEEE15set_deleted_keyERSH_
MUb:__Z29scripting_class_enum_basetype17ScriptingClassPtr
A6o:__ZN6il2cpp2vm22EmbeddedResourceRecordC2EOS1_
Owm:_List_1_Clear_m3097985365_gshared
RLo:__ZN6il2cpp6icalls8mscorlib6System12PropertyPairC2EPK12PropertyInfoP11Il2CppClass
aJl:_Dictionary_2_Do_CopyTo_TisTextEditOp_t1927482598_TisRuntimeObject_m2764429702_gshared
nlp:__GLOBAL__sub_I_Console_cpp
apj:_OidCollection_get_SyncRoot_m3531934854
v1c:__ZN6IDList10BeginOnGUIEv
PKc:__Z18RegisterUnityClassI11TimeManagerEvPKc
bOa:__ZNK12BaseRenderer18GetRenderNodeCountEv
qid:__ZN16PhysicsManager2D7RaycastERK3RayfiR12RaycastHit2D
v5n:__ZN30GenericInterfaceActionInvoker1IP24SingleU5BU5D_t1444911251E6InvokeEPK10MethodInfoP12Il2CppObjectS1_
ZKf:_PropertyBuilder_get_CanWrite_m2657562188
qbo:__ZN32Vector3_t3722313464_StaticFields29set_positiveInfinityVector_13E19Vector3_t3722313464
BGk:__ZN47MSCompatUnicodeTableUtil_t88013251_StaticFields12set_Level3_4EP28CodePointIndexer_t4134431086
UKg:_InternalEnumerator_1_get_Current_m1477715453_gshared
YRm:_ReadOnlyCollection_1_get_Item_m3865786060_gshared
bcm:_Enumerator__ctor_m2827156589_AdjustorThunk
Nub:__ZNK20LocalFileSystemPosix6ParentERK13FileEntryDataRN4core12basic_stringIcNS3_20StringStorageDefaultIcEEEE
k5e:__ZL118TouchScreenKeyboard_t731888065_CustomAttributesCacheGenerator_TouchScreenKeyboard_Open_m3609399077____textPlaceholder6P21CustomAttributesCache
ljj:__ZN26HttpWebRequest_t166943651519set_certificates_11EP37X509CertificateCollection_t3399372417
UVh:__ZNK29ProcessMessageRes_t371054714517get_arrResponse_0Ev
Zgg:__ZNK35DSASignatureDeformatter_t36779551729get_dsa_0Ev
PGm:_Collection_1_System_Collections_IList_Remove_m1476284619_gshared
EEk:_ContractionComparer__ctor_m3439667810
LHj:_MonoType_IsPrimitiveImpl_m2401722705
Tmk:_SHA1CryptoServiceProvider__ctor_m4195188793
c9n:__ZN39UnitySynchronizationContext_t188745378620set_m_MainThreadID_2Ei
VYe:__ZL64MissingFieldException_t1989070983_CustomAttributesCacheGeneratorP21CustomAttributesCache
t1o:__GLOBAL__sub_I_Thread_cpp
_ve:_Dropdown_Hide_m504034854
Y1m:_DeriveBytes_set_HashName_m3612196732
kJj:_NumberFormatter_NumberToString_m264078176
K4f:__ZN25TypeTagU5BU5D_t156391866414SetAtUncheckedEjh
F2b:__ZN7ApiGLES17CopyBufferSubDataEjjlll
Fmk:_Array_InternalArray__ICollection_CopyTo_TisUInt64_t4134040092_m691431926_gshared
JVj:__ZN43DateTimeFormatInfo_t2405853701_StaticFields36set_theInvariantDateTimeFormatInfo_9EP30DateTimeFormatInfo_t2405853701
ylj:_IPAddress_ToString_m1181734207
Gbi:_MonoMethodMessage_GetArg_m2932717642
DCl:__Z74RuntimeInvoker_RuntimeObject_Score_t1179825972_RuntimeObject_RuntimeObjectPFvvEPK10MethodInfoPvPS4_
eTk:_StringBuilder_Append_m1965104174
Scd:__ZN5Unity9rapidjson15GenericDocumentINS0_4UTF8IcEE13JSONAllocatorS4_E11ParseStreamILj1ES3_NS0_25GenericInsituStringStreamIS3_EEEERS5_RT1_
Ewo:__ZNSt3__26vectorIPK10Il2CppTypeNS_9allocatorIS3_EEE7reserveEj
Puk:__ZN37SecurityCriticalAttribute_t227932284412set__scope_0Ei
jLn:__ZN17Board_t368830528730get_address_of_currentScene_12Ev
YFn:_UnityAction_1_Invoke_m610765085_gshared
wqi:_Array_GetValue_m116098292
Nkj:__ZNK20IPAddress_t24177759015get_m_Numbers_2Ev
HCi:_Kernel_modInverse_m652700340
ncb:__ZNK14Texture2DArray26CanReuploadDataToGfxDeviceEv
hAn:_U3CCreateWhereIteratorU3Ec__Iterator1D_1_System_Collections_Generic_IEnumeratorU3CTSourceU3E_get_Current_m1909387290_gshared
flf:__ZL57CanvasRenderer_t2598313366_CustomAttributesCacheGeneratorP21CustomAttributesCache
yMa:__ZN17GlobalGameManager23VirtualRedirectTransferER17RemapPPtrTransfer
lId:_sfnt_stream_close
k4c:__Z28GUIStyle_Get_Custom_PropFontP12Il2CppObject
a2c:__ZN5IMGUI18RepaintModalWindowER8GUIState
WWm:__ZNK28SslHandshakeHash_t210758177217get_innerPadMD5_8Ev
Sej:_HybridDictionary_get_IsSynchronized_m2987560362
SRa:__ZNK15dense_hashtableINSt3__24pairIKN9ShaderLab7Program23ShaderKeywordSetAndHashEPKNS2_10SubProgramEEES4_NS3_24ShaderKeywordHashFunctorEN14dense_hash_mapIS4_S8_SA_NS0_8equal_toIS4_EE13stl_allocatorIS9_L18MemLabelIdentifier67ELi16EEE9SelectKeyESD_SG_E23find_position_with_hashERS5_j
CMk:__ZN16ASN1_t211416083211set_elist_2EP21ArrayList_t2718874744
kXj:_CompareInfo_Finalize_m404687489
POb:__Z18Transfer_BlittableI19StreamedBinaryWriteLb0E11ColorRGBA32EvRK29SerializationCommandArgumentsR31RuntimeSerializationCommandInfo
kVk:_UTF8Decoder_GetChars_m1236346907
pMh:_Quaternion_GetHashCode_m2636680144_AdjustorThunk
dyg:__ZN32InternalEnumerator_1_t281129360011set_array_0EP11Il2CppArray
dff:__ZL99AudioSource_t3935305588_CustomAttributesCacheGenerator_AudioSource_t3935305588____clip_PropertyInfoP21CustomAttributesCache
Oin:_GUIStyle_Internal_CalcMinMaxWidth_Injected_m4148139125
oop:__ZN6il2cpp8metadata13GenericMethod9GetMethodEPK19Il2CppGenericMethod
br:__ZNSt3__26vectorIN4core12basic_stringIcNS1_20StringStorageDefaultIcEEEENS_9allocatorIS5_EEE7reserveEj
BIh:__Z31UnityAction_1__ctor_m1210528642P25UnityAction_1_t1755411925P12Il2CppObjectiPK10MethodInfo
VMj:_Default_SelectProperty_m1220817815
JEg:_InternalEnumerator_1_System_Collections_IEnumerator_Reset_m996811230_gshared
uUh:_Transform_TransformPoint_m226827784
YJn:_ListPool_1_Get_m738675669_gshared
LSl:__ZNK21Dictionary_2_t338474112get_count_10Ev
A_b:__ZN13GfxDeviceGLES11SetViewportERK5RectTIiE
E$c:__Z24Time_Get_Custom_PropTimev
mie:__ZNK33StandaloneInputModule_t276046910126get_m_ForceModuleActive_29Ev
Vf:_emscripten_glDepthRange
$Xm:_SslStreamBase_BeginNegotiateHandshake_m4180435790
arc:__ZNSt3__26vectorINS_4pairIN4core12basic_stringIcNS2_20StringStorageDefaultIcEEEES6_EE13stl_allocatorIS7_L18MemLabelIdentifier38ELi16EEE12__move_rangeEPS7_SC_SC_
tvc:__Z14resize_trimmedINSt3__26vectorIN9ShaderLab20SerializedSubProgram12UAVParameterENS0_9allocatorIS4_EEEEEvRT_j
jdd:__ZN5Unity9rapidjson13GenericReaderINS0_4UTF8IcEES3_13JSONAllocatorE11ParseObjectILj1ENS0_25GenericInsituStringStreamIS3_EENS0_15GenericDocumentIS3_S4_S4_EEEEvRT0_RT1_
rq:__ZN6Object23VirtualRedirectTransferER19StreamedBinaryWrite
xwg:__ZN32InternalEnumerator_1_t126723150811set_array_0EP11Il2CppArray
t$j:__ZNK27NumberFormatInfo_t43587713821get_perMilleSymbol_28Ev
krf:__ZL62Selectable_t3250028441_CustomAttributesCacheGenerator_m_ColorsP21CustomAttributesCache
Y0i:_Convert_ToDateTime_m2616935982
YYm:_SslStreamBase_EndWrite_m4073224031
roa:__ZNSt3__218__insertion_sort_3IRNS_6__lessI14ObjectLoadDataS2_EEPS2_EEvT0_S6_T_
laj:__ZN20Delegate_t118839281317set_method_info_6EP12MethodInfo_t
gnh:__ZNK41U3CClickRepeatU3Ec__Iterator0_t344264893516get_U24current_2Ev
opn:_Regex_GetGroupNamesArray_m3575729002
a7a:__ZN4crndL20crnd_default_reallocEPvjPjbS0_
Zzl:__Z54RuntimeInvoker_CustomAttributeNamedArgument_t287865710PFvvEPK10MethodInfoPvPS4_
Gcf:__ZL122SupportedRenderingFeatures_t353898663_CustomAttributesCacheGenerator_U3CrendererSupportsReflectionProbesU3Ek__BackingFieldP21CustomAttributesCache
fYo:__ZN15dense_hashtableINSt3__24pairIK10KeyWrapperIPK22Il2CppGenericParameterEPK24MonoGenericParameterInfoEES6_N6il2cpp5utils11PointerHashIS4_EEN14dense_hash_mapIS6_SA_SF_NS6_14EqualsComparerINS0_8equal_toIS5_EEEENS0_9allocatorISB_EEE9SelectKeyESK_SM_E13set_empty_keyERKSB_
S4a:__ZN18SpriteAtlasManager19AddRequestingSpriteE4PPtrI6SpriteE
FOc:__ZN16PackedQuatVector9PackQuatsEP11Quaternionfi
RBn:_Predicate_1_EndInvoke_m3987519925_gshared
q0:__ZNK4PPtrI9AudioClipEptEv
Mck:_UnmanagedMemoryStream_Write_m930787521
_mc:__ZN23ScriptableRenderContextC2Ev
HI:__ZN7mecanim9animation18ClipMuscleConstant8TransferI24GenerateTypeTreeTransferEEvRT_
oCe:_GridLayoutGroup_get_spacing_m2409263614
rtj:__ZNK38X509Certificate2Enumerator_t331671381216get_enumerator_0Ev
cum:__ZN18List_1_t123460505112set__items_1EP26UIVertexU5BU5D_t1981460040
tPh:_Transform_get_parent_m835071599
Gyo:__ZNK10KeyWrapperIPKcE14EqualsComparerIN6il2cpp5utils13VmStringUtils21CaseSensitiveComparerEEclERKS2_SA_
kJd:_UNITY_FT_Stream_GetChar
Lfn:_GUIStyle_get_fixedWidth_m2576616348
OKn:_ObjectPool_1_get_countAll_m819305395_gshared
lem:__ZNK18List_1_t407257603411get__size_2Ev
Krm:_List_1_ToArray_m190175978_gshared
ifo:__ZL25UnresolvedVirtualCall_145P12Il2CppObject34ScriptableRenderContext_t274343796S0_PK10MethodInfo
VGk:__ZNK26SimpleCollator_t287783472918get_unsafeFlags_12Ev
TUb:__Z26BuildSerializationCacheFor17ScriptingClassPtrRb
teo:__ZL25UnresolvedVirtualCall_102P12Il2CppObject28StreamingContext_t3711869237PK10MethodInfo
p9d:_EventSystem_get_firstSelectedGameObject_m1576206896
z4b:__ZN7ApiGLES15BlitFramebufferEN2gl6HandleILNS0_10ObjectTypeE9EEENS0_15FramebufferReadES3_S3_iiiiiiiiNS0_15FramebufferTypeE
M$o:_il2cpp_class_get_name
kkl:__Z112RuntimeInvoker_RuntimeObject_RuntimeObject_RuntimeObject_RuntimeObject_RuntimeObject_RuntimeObject_RuntimeObjectPFvvEPK10MethodInfoPvPS4_
pJg:_InternalEnumerator_1_System_Collections_IEnumerator_get_Current_m3553395619_AdjustorThunk
dLe:__ZL70AssemblyVersionCompatibility_t766556580_CustomAttributesCacheGeneratorP21CustomAttributesCache
hbf:__ZL60ReadOnlyAttribute_t3518714744_CustomAttributesCacheGeneratorP21CustomAttributesCache
Qhn:__ZNK19GUISkin_t124437228233get_m_horizontalScrollbarThumb_17Ev
nqi:_Array_SetValue_m3998268557
E$l:_EqualityComparer_1__cctor_m818408565_gshared
Z1h:_ServerContextTerminatorSink__ctor_m2519287841
Toe:_ColorBlock_set_highlightedColor_m2089444414_AdjustorThunk
Jvl:__Z59RuntimeInvoker_Boolean_t97287965_X509ChainStatus_t133602714PFvvEPK10MethodInfoPvPS4_
Lml:__Z52RuntimeInvoker_Boolean_t97287965_Vector3_t3722313464PFvvEPK10MethodInfoPvPS4_
JLf:__ZN23TypeBuilder_t107394815414set_methods_14EP31MethodBuilderU5BU5D_t3705301900
Uck:_Array_get_swapper_TisColor32_t2600501292_m2310851009_gshared
Z_b:__ZN13GfxDeviceGLES35InitializeGPUSkinPoseBufferInternalEP17GPUSkinPoseBuffer
lFd:_otv_PairPos_validate
WVe:__ZL63ThreadStateException_t3003788475_CustomAttributesCacheGeneratorP21CustomAttributesCache
lz:__ZN7mecanim9animation14CopyHumanPosesEPKNS0_18AnimationNodeStateEPS1_RKNS_6bitsetILj83EEE
ZLo:__ZN6il2cpp6icalls8mscorlib6SystemL8IsStaticEPK12PropertyInfo
tXb:__Z9InitInputv
_Xo:__ZN30dense_hashtable_const_iteratorINSt3__24pairIK10KeyWrapperIPK22Il2CppGenericParameterEPK24MonoGenericParameterInfoEES6_N6il2cpp5utils11PointerHashIS4_EEN14dense_hash_mapIS6_SA_SF_NS6_14EqualsComparerINS0_8equal_toIS5_EEEENS0_9allocatorISB_EEE9SelectKeyESK_SM_E30advance_past_empty_and_deletedEv
eOc:__Z23ClearVertexDataChannelsjj17ShaderChannelMaskR10VertexData
pzp:__ZNSt3__26__treeINS_12__value_typeINS_12basic_stringIcNS_11char_traitsIcEENS_9allocatorIcEEEEPFvvEEENS_19__map_value_compareIS7_SA_NS_4lessIS7_EELb1EEENS5_ISA_EEE13__lower_boundIS7_EENS_15__tree_iteratorISA_PNS_11__tree_nodeISA_PvEEiEERKT_SM_PNS_15__tree_end_nodeIPNS_16__tree_node_baseISK_EEEE
HDi:__ZN16VirtFuncInvoker2IP22BigInteger_t2902905090iP12Il2CppObjectE6InvokeEjS3_iS3_
QPb:__Z29Transfer_Blittable_ArrayFieldI19StreamedBinaryWrite8Vector4fEvRT_R9ArrayInfoRK23StaticTransferFieldInfo
dWj:__ZN30DateTimeFormatInfo_t240585370140set__UniversalSortableDateTimePattern_24EP8String_t
Myb:__ZN16MemoryFileSystem6DeleteER13FileEntryDatab
xel:__Z81RuntimeInvoker_Void_t1185182177_RuntimeObject_Int64_t3736567304_Int32_t2950945753PFvvEPK10MethodInfoPvPS4_
zSg:__ZN22Enumerator_t195756751624get_address_of_current_3Ev
umm:_List_1_set_Item_m1979164443_gshared
Okk:_Array_InternalArray__ICollection_Add_TisLink_t3209266973_m77922316_gshared
Usi:_Boolean_System_IConvertible_ToUInt16_m3465173538_AdjustorThunk
k4g:_InputField_get_keyboardType_m1248105267
CIb:__Z29Transfer_Blittable_ArrayFieldI14SafeBinaryReadyEvRT_R9ArrayInfoRK23StaticTransferFieldInfo
x0:__ZN20SoundChannelInstance15setChannelGroupEPN4FMOD12ChannelGroupE
Omn:_Match__ctor_m2425511580
vxd:__ZN9Scripting11UnityEngine18CharacterInfoProxy9InitProxyEv
hMe:__ZL63FileNotFoundException_t225391025_CustomAttributesCacheGeneratorP21CustomAttributesCache
t1n:__Z24List_1_Clear_m2188935509P18List_1_t3628304265PK10MethodInfo
Gb:invoke_vifffii
dyb:__ZN20ArchiveStorageReader17MakeStorageUnusedEv
LQf:_MonoMethod__ctor_m3792454563
fxb:__ZNK25MultiBlocksMemoryFileData5CloneEv
Aug:_InternalEnumerator_1_System_Collections_IEnumerator_Reset_m3873091784_AdjustorThunk
jNn:_Button__ctor_m4286759628
NOo:__ZNK15dense_hashtableINSt3__24pairIK10KeyWrapperINS1_IPK14Il2CppAssemblyP11Il2CppClassEEEjEES9_17ReflectionMapHashIS8_EN14dense_hash_mapIS9_jSD_NS9_14EqualsComparerINS0_8equal_toIS8_EEEENS0_9allocatorISB_EEE9SelectKeyESI_SK_E23find_position_with_hashERSA_j
x1m:__ZN18PKCS12_t410153306114set__keyBags_2EP21ArrayList_t2718874744
GJl:_LayoutGroup_SetProperty_TisSingle_t1397266774_m793506911_gshared
Krp:__ZN6il2cpp2os14WindowsRuntime22GetRestrictedErrorInfoEv
OUj:__Z25Il2CppCodeGenWriteBarrierI26SimpleCollator_t2877834729EvPPT_S2_
Sdg:_CryptoConfig_CreateFromName_m1538277313
Ybo:_WaitForEndOfFrame__ctor_m1381314187
gKf:__ZN31OpCodes_t126150456_StaticFields15set_Prefix7_191E17OpCode_t123070264
Nve:__Z36TweenRunner_1_StartTween_m1055628540P25TweenRunner_1_t352024108222FloatTween_t1274330004PK10MethodInfo
owb:__ZN17ArchiveFileSystem11CreateAsDirER13FileEntryData
LJp:dynCall_iiiiiiiiiiii
gbp:__ZNK24dense_hashtable_iteratorINSt3__24pairIK10KeyWrapperIP14Il2CppIUnknownEjEES5_N6il2cpp5utils11PointerHashIS3_EEN14dense_hash_mapIS5_jSB_NS5_14EqualsComparerINS0_8equal_toIS4_EEEENS0_9allocatorIS7_EEE9SelectKeyESG_SI_EneERKSL_
C4g:_InputField_set_caretPositionInternal_m3823580651
tVd:__ZN18UnityConnectClient16IsServiceEnabledEv
xwh:__ZN24CullingGroup_t209631876822set_m_OnStateChanged_1EP24StateChanged_t2136737110
kzb:__ZN22VertexDeclarationCacheD0Ev
Jnh:_Selectable_set_interactable_m3105888815
Ldm:_Enumerator_get_Current_m2468920150_gshared
Hrb:__ZL26KeywordSetToStringDontSortRKNSt3__26vectorIN4core12basic_stringIcNS1_20StringStorageDefaultIcEEEENS_9allocatorIS5_EEEERS5_
Bwa:__ZN6prcoreL17RemapGenericFloatI16TexFormatRGFloat17TexFormatRGBAHalfEEvPKNS_9InnerInfoE
eMh:__ZNK22Quaternion_t23019283317get_z_2Ev
v2:__ZN12AudioManager22CreateFMODSoundFromWWWEP10IWWWStream15FMOD_SOUND_TYPE17FMOD_SOUND_FORMATjjbbP10SampleClip
xGc:__ZNK32RendererMaterialAnimationBinding15GenerateBindingERKN4core12basic_stringIcNS0_20StringStorageDefaultIcEEEEbRN11UnityEngine9Animation14GenericBindingE
ATf:_TargetException__ctor_m4172127019
rcj:__ZNK22StackTrace_t159864545716get_debug_info_2Ev
sNd:__GLOBAL__sub_I_TilemapScriptingClasses_cpp
yqm:_List_1_CheckCollection_m274117203_gshared
WEa:__ZN9Scripting11UnityEngine21GradientAlphaKeyProxy9InitProxyEv
Dma:__ZN8Remapper23GetOrGenerateInstanceIDERK26SerializedObjectIdentifier
iE:__ZN17AnimationCurveTplI8Vector3fEC2ERKS1_
aqe:_ColorTween_get_startColor_m3792586410_AdjustorThunk
wtb:__ZN17FileSystemHandler10AtomicMoveER13FileEntryDataS1_
vUg:__ZNK21Enumerator_t93410436113get_current_3Ev
iuf:__ZL105TrackableField_t1772682203_CustomAttributesCacheGenerator_TrackableField__ctor_m3758796351____validTypes0P21CustomAttributesCache
b2f:_BinaryFormatter_get_SurrogateSelector_m2111882017
xfo:__ZL25UnresolvedVirtualCall_160P12Il2CppObjectfffPK10MethodInfo
dga:__ZN9profiling21GetProfilerManagerPtrEv
YUd:__ZN9Scripting11UnityEngine25RemoteConfigSettingsProxy9InitProxyEv
HAj:_CustomInfo__ctor_m426096741
fae:_EventSystem_ToString_m3779610692
K1k:__ZNK26TypedReference_t149110811910get_type_0Ev
TTi:_RecordProtocol_BeginReceiveRecord_m295321170
X3a:__ZN6Sprite8TransferI24GenerateTypeTreeTransferEEvRT_
Mii:__ZN19SafeBag_t396124819911set__asn1_1EP16ASN1_t2114160832
I$h:_SoapTypeAttribute_get_IsInteropXmlType_m629667929
j$c:__Z48Register_UnityEngine_Transform_SetAsFirstSiblingv
azg:_InternalEnumerator_1_System_Collections_IEnumerator_get_Current_m694606607_gshared
a4a:__ZN7SubMesh8TransferI24GenerateTypeTreeTransferEEvRT_
Ht:__ZN9Scripting11UnityEngine31AnimatorOverrideControllerProxy12CleanupProxyEv
Drp:__ZN14Il2CppIMarshalC2Ev
Htn:_Literal_IsComplex_m4067122560
Rso:_NativeTypeAttribute__ctor_m133676646
fbj:__ZNK25DelegateEntry_t101958416112get_target_2Ev
YXc:__Z48Register_UnityEngine_Application_get_absoluteURLv
zVb:__ZN19GfxThreadableDevice20SetShadersThreadableEPP10GpuProgramPPK20GpuProgramParametersPKPKh
XJm:_Collection_1_System_Collections_IList_Contains_m296643274_gshared
Pwn:__ZNK14Uri_t10023632421get_cachedToString_14Ev
d4j:_DirectoryInfo__ctor_m126519516
iOf:_MethodBase_GetMethodFromIntPtr_m3014201362
qfh:__ZN17Shadow_t77307431922set_m_EffectDistance_6E19Vector2_t2156229523
WGm:__ZN21InterfaceFuncInvoker1I19Color32_t2600501292iE6InvokeEjP11Il2CppClassP12Il2CppObjecti
Hsn:_Reference_get_CapturingGroup_m3861468528
Eal:__Z40RuntimeInvoker_TypeAttributes_t113483779PFvvEPK10MethodInfoPvPS4_
NCi:__ZNK28BigIntegerU5BU5D_t234995247714GetAtUncheckedEj
dBd:__ZNK20TextRenderingPrivate7GUIText22GetTypeVirtualInternalEv
R_c:__ZN9Transform23SetSiblingIndexInternalEib
srm:_List_1_Clear_m1143167521_gshared
J8c:__ZN9JSONWrite8TransferI13dynamic_arrayIaLj0EEEEvRT_PKc17TransferMetaFlags
W$f:_ChannelServices_IsLocalCall_m3035930722
xFp:___fseeko
pKh:_CreateOutputMethod__ctor_m3884516706
Fli:_X509Extension_Equals_m1222951829
Cx:__ZN7mecanim5human12HumanPoseSubERNS0_9HumanPoseERKS1_S4_
MBl:__Z37RuntimeInvoker_Enumerator_t1789501480PFvvEPK10MethodInfoPvPS4_
Sep:__ZN6il2cpp8metadata15GenericMetadata15GetGenericClassEiPK17Il2CppGenericInst
oKk:__ZN22BigInteger_t290290508910set_data_1EP24UInt32U5BU5D_t2770800703
Mvi:_Char_GetTypeCode_m2433327340_AdjustorThunk
eHb:__Z18Transfer_BlittableI14SafeBinaryReadLb0E10Matrix4x4fEvRK29SerializationCommandArgumentsR31RuntimeSerializationCommandInfo
jUb:__Z24GetFixedBehaviourManagerv
jHe:__ZL69IntPtr_t_CustomAttributesCacheGenerator_IntPtr_op_Equality_m408849716P21CustomAttributesCache
AAp:__ZN6il2cpp2os16ReaderWriterLockC2Ev
hKo:__ZN6il2cpp2vm10ThreadPool4WaitEP17Il2CppAsyncResultPPv
Cki:_PKCS12_Encrypt_m2617413749
ez:__ZN7mecanim9animation24CreateAnimationNodeStateERKNS_18ValueArrayConstantEbbbR20RuntimeBaseAllocator
Oni:_Activator_CreateInstance_m94526014
$Di:__ZN16ASN1_t211416083312set_m_nTag_0Eh
lDp:_vfprintf
G2c:__ZN10GUIManager12AddGUIScriptER8ListNodeI13MonoBehaviourE
W$i:_DateTime_get_Month_m1566006993
ocm:_Enumerator_System_Collections_IEnumerator_get_Current_m472556657_AdjustorThunk
zZi:_Stack_Clear_m2010200235
Kga:__ZNSt3__26__treeI19RepeatingLogMessageNS_4lessIS1_EE13stl_allocatorIS1_L18MemLabelIdentifier74ELi16EEE12__find_equalIS1_EERPNS_16__tree_node_baseIPvEERPNS_15__tree_end_nodeISC_EERKT_
YBd:_cf2_getVStore
Dfe:_PointerEventData_set_pointerPressRaycast_m1363193059
cdc:__ZN20DynamicPropertySheetD0Ev
Njn:_TextEditor_OnLostFocus_m3728191196
sZf:_SafeHandle_Dispose_m4229010569
erc:__ZN14SafeBinaryRead17RegisterConverterEPKcS1_PFbPvRS_E
l2e:__ZL77RuntimePlatform_t4159857903_CustomAttributesCacheGenerator_OSXDashboardPlayerP21CustomAttributesCache
r3b:__ZN7ApiGLES20DrawElementsIndirectE16GfxPrimitiveTypejjj
lyf:_FieldBuilder_SetValue_m828035213
YG:__ZN7mecanim6memory16ChainedAllocator7ReserveEj
K2a:__ZN15NameToObjectMapI6ShaderNSt3__23mapI4PPtrIS0_EN4core12basic_stringIcNS5_20StringStorageDefaultIcEEEENS1_4lessIS4_EENS1_9allocatorINS1_4pairIKS4_S9_EEEEEENS1_8multimapIS9_S4_NSA_IS9_EENSC_INSD_IKS9_S4_EEEEEEE4FindERSK_
DTm:_ReadOnlyCollection_1_System_Collections_IList_get_IsFixedSize_m733459177_gshared
i6h:_CallContext__ctor_m383148220
hxg:__Z40InternalEnumerator_1_Dispose_m1063909490P32InternalEnumerator_1_t1765566171PK10MethodInfo
Tzn:__ZN28GenericInterfaceFuncInvoker0IfE6InvokeEPK10MethodInfoP12Il2CppObject
IHe:__ZL72Enum_t4135868527_CustomAttributesCacheGenerator_Enum_ToObject_m121962870P21CustomAttributesCache
Tlm:__ZN23InterfaceActionInvoker2IP24ObjectU5BU5D_t2843939325iE6InvokeEjP11Il2CppClassP12Il2CppObjectS1_i
VLh:__ZN22Quaternion_t23019283317set_y_1Ef
m$c:__Z21Object_CUSTOM_DestroyP12Il2CppObjectf
l3e:__ZL99SetupCoroutine_t2062820429_CustomAttributesCacheGenerator_SetupCoroutine_InvokeMoveNext_m3199342729P21CustomAttributesCache
q9b:__ZN8Material26ResetAllCachedMaterialDataEP6Shader
Z4m:__ZN20X509Chain_t86378360011set_roots_0EP37X509CertificateCollection_t1542168550
Ono:__ZN21HumanBone_t246533951811set_limit_2E22HumanLimit_t2901552972
xte:__ZN22OptionData_t327028235212set_m_Text_0EP8String_t
mKd:_UNITY_TT_Get_MM_Var
sCa:__ZN9Scripting11UnityEngine3U2D23SpriteAtlasManagerProxy9InitProxyEv
pag:_ObjectManager_AddFixup_m2154325362
nNg:_Comparer_1__cctor_m3761458313_gshared
x8i:_DateTimeOffset_CompareTo_m1350732322_AdjustorThunk
Z:invoke_diddi
XL:__ZN7mecanim4hand17Hand2SkeletonPoseEPKNS0_4HandEPKNS_8skeleton8SkeletonEPKNS0_8HandPoseEPNS4_13SkeletonPoseTIN4math4trsXEEE
KPd:__ZNK2UI6Canvas13GetRenderModeEv
ezh:_PersistentCall__ctor_m1217622171
Pnn:_PatternCompiler_EmitSet_m2815529224
dkk:_Array_compare_TisCustomAttributeTypedArgument_t2723150157_m1384644047_gshared
F9l:__ZN26KeyValuePair_2_t25302173199set_key_0EP12Il2CppObject
khi:_StrongName_get_TokenAlgorithm_m1794722022
z7l:__ZN36RijndaelManagedTransform_t41026010149set__st_0EP28RijndaelTransform_t631222241
Y4c:__Z56Register_UnityEngine_GUIStyle_get_contentOffset_Injectedv
CWm:_ReadOnlyCollection_1_System_Collections_IList_get_IsReadOnly_m1082354393_gshared
pGb:__Z18Transfer_BlittableI14SafeBinaryReadLb0EiEvRK29SerializationCommandArgumentsR31RuntimeSerializationCommandInfo
vHo:__ZN6il2cpp2vm13MetadataCache30GetPropertyDefinitionFromIndexEi
EGj:__Z25Il2CppCodeGenWriteBarrierI23IntComparer_t3812095803EvPPT_S2_
Y2h:_CrossContextDelegate_EndInvoke_m3186232431
nWd:__ZN22BaseUnityConnectClient17InitializeSessionERKN4core12basic_stringIcNS0_20StringStorageDefaultIcEEEES6_N19CloudServiceHandler13InitModeFlagsE
qKe:__ZL56KeyCollection_t4251528776_CustomAttributesCacheGeneratorP21CustomAttributesCache
Lck:__ZNK33UnmanagedMemoryStream_t423411766912get_Closed_8Ev
opl:__Z74RuntimeInvoker_RuntimeObject_Int32_t2950945753_RuntimeObject_RuntimeObjectPFvvEPK10MethodInfoPvPS4_
F1i:_Decimal_op_Implicit_m1349849065
kxm:_List_1_get_Item_m200663048_gshared
DRl:__ZN24Dictionary_2_t144469424912set_count_10Ei
LXe:__ZL79Convert_t2465617642_CustomAttributesCacheGenerator_Convert_ToUInt16_m4211508274P21CustomAttributesCache
WR:__ZN15SerializeTraitsI9OffsetPtrIN7mecanim9animation23BlendDirectDataConstantEEE8TransferI24GenerateTypeTreeTransferEEvRS4_RT_
xic:__ZN15JobDataGuardian11DecreaseRefI18ShadowMapJobHeaderEEvPT_
yfi:__ZN41RemotingServices_t1401195504_StaticFields29set__serializationFormatter_1EP27BinaryFormatter_t3197753202
MPp:_emscripten_glDeleteBuffers__wrapper
lzg:_InternalEnumerator_1_MoveNext_m3664960764_AdjustorThunk
vTc:__ZN13MonoBehaviour34StopCoroutineFromEnumeratorManagedE18ScriptingObjectPtr
ju:__ZN9Scripting11UnityEngine10Animations36AnimationMotionXToDeltaPlayableProxy12CleanupProxyEv
rCc:__ZN2UI13RectTransform28HandleParentHierarchyChangesEPK15TransformAccessj
I2h:__ZN21InterfaceFuncInvoker0IP20Identity_t1873279371E6InvokeEjP11Il2CppClassP12Il2CppObject
Dom:_List_1__ctor_m1345008423_gshared
nId:_gray_raster_reset
c$g:__Z30Transform_1_Invoke_m4084479750P23Transform_1_t4218749037P12Il2CppObjectbPK10MethodInfo
hWk:__ZN37Thread_t2300836069_ThreadStaticFields10set__ec_44EP28ExecutionContext_t1748372627
wu:__ZN16MecanimAnimation40GetReadWriteGlobalSpaceSkeletonPoseFenceEPN5Unity9ComponentE
bVl:__ZN37Dictionary_2_t3274888882_StaticFields27set_U3CU3Ef__amU24cacheB_15EP22Transform_1_t140567170
lao:_Vector3__ctor_m1719387948_AdjustorThunk
O6f:__ZNK31OpCodes_t126150456_StaticFields14get_Brfalse_56Ev
Eed:__ZN11UnityEngine9Analytics18SceneLoadTimeEvent12SetSceneLoadERKN4core12basic_stringIcNS2_20StringStorageDefaultIcEEEEiyyyy
b0i:_DateTimeOffset__ctor_m2084804982
Uwo:_WWW__ctor_m2915079343
HGd:_UNITY_tt_face_load_pclt
cGb:__ZN9profiling17ScriptingProfiler31UpdateRegisteredScriptingEventsEv
ASc:__ZL34GetComponentsImplementationRecurseILb1ELi0ELi2EEbR10GameObjectbRK17CompareParametersRK39GetComponentsImplementation_ReturnValue
l3n:_UnityWebRequest_set_downloadHandler_m970510352
Gqd:__ZN10ClipperLib7Clipper24InsertLocalMinimaIntoAELEx
PDh:_Material_GetTexture_m3545614349
yMl:__ZN22Enumerator_t253771315232get_address_of_host_enumerator_0Ev
v9m:_TextEditor_SelectCurrentParagraph_m1964167510
Xci:__ZN25ReturnMessage_t137698560814set__outArgs_0EP24ObjectU5BU5D_t2843939325
Bbb:__ZN13ScreenManager22SetResolutionImmediateEii14FullscreenModei
I8k:__Z64RuntimeInvoker_RuntimeObject_Int32_t2950945753_Int16_t2552820387PFvvEPK10MethodInfoPvPS4_
MLj:__ZN23AssemblyName_t27093193811set_flags_7Ei
z1o:__ZN6il2cpp2gc9AllocatorIP12Il2CppThreadEC2Ev
rpo:_RemoteSettings_RemoteSettingsBeforeFetchFromServer_m4228537265
Dza:__ZL47__ManagedRegistrationHelperFunction_CameraProxyPv
Zvj:__ZN17Group_t246820578613set_success_4Eb
KZl:_EqualityComparer_1__cctor_m4244842342_gshared
CTl:_Dictionary_2__ctor_m2817523597_gshared
_Vf:__Z23il2cpp_codegen_get_typePFvvEP8String_tbPKc
y1g:__ZNK22InputField_t376291743123get_m_InputTextCache_44Ev
xZg:_ShimEnumerator__ctor_m3540476040_gshared
oRh:_SendMouseEvents_DoSendMouseEvents_m2140870850
mZd:__ZN14UnityAnalyticsD0Ev
bdp:__ZNKSt3__26vectorIPK11Il2CppClassNS_9allocatorIS3_EEE8max_sizeEv
hon:_PatternCompiler_EmitJump_m3915926156
XZb:__Z18IsCompressedFormat14GraphicsFormat
gTf:_PropertyInfo_SetValue_m2777755129
Iag:_SerializationEntry_get_Name_m1530029541_AdjustorThunk
OQf:_MonoMethod_GetBaseDefinition_m2844667474
H_k:__Z33il2cpp_codegen_check_add_overflowxx
CLn:__ZNK30Board_t3688305287_StaticFields15get_gameOver_21Ev
y4l:__ZNK21HashSet_1_t164505563816get_empty_slot_8Ev
tt:__ZN9Scripting11UnityEngine12Experimental10Animations20AnimationStreamProxy12CleanupProxyEv
zt:__ZN9Scripting11UnityEngine15AvatarMaskProxy12CleanupProxyEv
Mpl:__Z71RuntimeInvoker_Boolean_t97287965_AnimatorControllerPlayable_t1015767841PFvvEPK10MethodInfoPvPS4_
t2e:__ZL73RuntimePlatform_t4159857903_CustomAttributesCacheGenerator_MetroPlayerARMP21CustomAttributesCache
FQg:__ZNK24Dictionary_2_t196881949516get_valueSlots_7Ev
djn:__ZNK28GUITargetAttribute_t2579633717get_displayMask_0Ev
xEo:__ZN14dense_hash_mapI10KeyWrapperIN6il2cpp5utils13dynamic_arrayIPK10Il2CppTypeLj4EEEEPFvvENS1_8metadata19Il2CppSignatureHashENS8_14EqualsComparerINSB_22Il2CppSignatureCompareEEENSt3__29allocatorINSG_4pairIKS8_SA_EEEEE15set_deleted_keyERSJ_
D_n:__Z33Dictionary_2_get_Item_m3214317455P24Dictionary_2_t1354619006P8String_tPK10MethodInfo
r$k:_TimeSpan_op_Subtraction_m3592306516
FWo:__ZN13ReflectionMapINSt3__24pairIPK10MethodInfoP11Il2CppClassEEP22Il2CppReflectionMethodEC2Ev
j1l:_EqualityComparer_1_System_Collections_IEqualityComparer_GetHashCode_m1517903420_gshared
RKi:__ZNK23CipherSuite_t341474457516get_cipherMode_7Ev
bdb:__ZN26EnlightenSystemInformation8TransferI14SafeBinaryReadEEvRT_
ykf:__ZL67ContactFilter2D_t3805203441_CustomAttributesCacheGenerator_maxDepthP21CustomAttributesCache
evc:__ZN15dense_hashtableINSt3__24pairIKiN4core17string_with_labelILi1EEEEEi18SInt32HashFunctionN14dense_hash_mapIiS5_S7_NS0_8equal_toIiEE13stl_allocatorIS6_L18MemLabelIdentifier1ELi16EEE9SelectKeyESA_SD_E13set_empty_keyERKS6_
AZb:__ZN22VertexDeclarationCacheC2Ev
iDa:__ZN9Scripting11UnityEngine9Rendering18CommandBufferProxy9InitProxyEv
BQa:__ZN27PerObjectLightCullingOutputD2Ev
Djb:__ZN12MeshRendererD0Ev
a4:__ZN12AudioManager35GetCurrentSpatializerDefinitionNameEv
eak:__ZN24StreamWriter_t126637890422set_internalEncoding_2EP20Encoding_t1523322056
J0l:__Z25Il2CppCodeGenWriteBarrierI30EqualityComparer_1_t3827726111EvPPT_S2_
FTh:_TouchScreenKeyboard_get_active_m4267591905
tyj:_Int16_CompareTo_m3705372115
E7n:__Z25Il2CppCodeGenWriteBarrierI18List_1_t2069970928EvPPT_S2_
fXo:__ZNK15dense_hashtableINSt3__24pairIK10KeyWrapperIPK14Il2CppAssemblyEPK22Il2CppMonoAssemblyNameEES6_N6il2cpp5utils11PointerHashIS4_EEN14dense_hash_mapIS6_SA_SF_NS6_14EqualsComparerINS0_8equal_toIS5_EEEENS0_9allocatorISB_EEE9SelectKeyESK_SM_E8min_sizeEjj
Gm:_utime
Hbf:__ZL56PlayableGraph_t3515989261_CustomAttributesCacheGeneratorP21CustomAttributesCache
FSk:__ZN15StringBuilder_t17set__cached_str_3EP8String_t
luj:__ZN27X509ChainPolicy_t242692287013set_timeout_5E19TimeSpan_t881159249
hre:__ZN22FloatTween_t127433000418set_m_StartValue_1Ef
F_o:__ZNSt3__26vectorIN6il2cpp2vm17TypeNameParseInfoENS_9allocatorIS3_EEE8allocateEj
CXm:__ZNK31InternalAsyncResult_t350428282012get_locker_0Ev
G9e:__ZL101Texture2DArray_t4044506685_CustomAttributesCacheGenerator_Texture2DArray__ctor_m2627654179____linear5P21CustomAttributesCache
H1h:_Context_NotifyDynamicSinks_m1841702879
Cmn:_Mark_get_Index_m3048692661_AdjustorThunk
t$m:_TlsServerSettings_get_CertificateRequest_m842655670
ljl:__Z128RuntimeInvoker_Void_t1185182177_RuntimeObject_BooleanU26_t4125257963_SByte_t1669577662_Int32U26_t1369213839_Int32U26_t1369213839PFvvEPK10MethodInfoPvPS4_
fp:FUNCTION_TABLE_viiiiif
EMg:_DefaultComparer_Compare_m3931992727_gshared
JZg:__Z30Transform_1_Invoke_m3750720560P23Transform_1_t2448278169iP12Il2CppObjectPK10MethodInfo
ip:FUNCTION_TABLE_viiiiii
BKg:_InternalEnumerator_1_System_Collections_IEnumerator_get_Current_m1847780851_AdjustorThunk
hAi:__ZN18VirtActionInvoker3IiP12Il2CppObjectS1_E6InvokeEjS1_iS1_S1_
egn:_GUILayoutUtility_get_spaceStyle_m3392862907
$Bj:_Int32_System_IConvertible_ToType_m3009233912_AdjustorThunk
c0i:_DateTimeOffset__ctor_m74032857
kmi:_SmallXmlParser_Error_m3899025466
C_h:_ConfigHandler_ParseElement_m3124222564
C0k:_Type_type_is_assignable_from_m76737532
P3o:__ZNK10KeyWrapperIP11Il2CppClassE8isNormalEv
Ceh:_MaskableGraphic_ParentMaskStateChanged_m1092090553
T2a:__ZN14PlayableOutput17SetSourcePlayableEP8Playable
Vmb:__ZNSt3__26vectorIN4core12basic_stringIcNS1_20StringStorageDefaultIcEEEE13stl_allocatorIS5_L18MemLabelIdentifier13ELi16EEE8__appendEj
F3:__Z18RegisterUnityClassI9AudioClipEvPKc
KM:__ZN7mecanim9animation29MotionOutputGetDeltaTransformEPKNS0_12MotionOutputE
Ejd:__ZN24b2ChainAndCapsuleContact8EvaluateEP10b2ManifoldRK11b2TransformS4_
e0m:_ValidationResult_get_ErrorCode_m1533688152
lWk:_EventWaitHandle__ctor_m3773182490
LPb:__Z29Transfer_Blittable_ArrayFieldI19StreamedBinaryWrite8BitFieldEvRT_R9ArrayInfoRK23StaticTransferFieldInfo
LSg:_Enumerator_get_CurrentValue_m3103267885_gshared
dYj:_CultureInfo_get_Parent_m672689885
owp:__ZN6il2cpp6icalls8mscorlib6System10Reflection4Emit13ModuleBuilder13RegisterTokenEP29Il2CppReflectionModuleBuilderP12Il2CppObjecti
whl:__Z50RuntimeInvoker_Int64_t3736567304_SByte_t1669577662PFvvEPK10MethodInfoPvPS4_
Hqj:_X509Certificate2_GetValueAsString_m1348462142
ZXm:_SslStreamBase_NegotiateHandshake_m2455724401
YNo:__ZN6il2cpp2os4File9SetLengthEPNS0_10FileHandleExPi
YZc:__Z37RenderTexture_CUSTOM_SetSRGBReadWriteP12Il2CppObjecth
RRp:_glGetShaderInfoLog__wrapper
vdf:__ZL63SpriteBone_t303320096_CustomAttributesCacheGenerator_m_ParentIdP21CustomAttributesCache
$_g:_Transform_1_EndInvoke_m2716226219_gshared
Pg:_emscripten_glGetTexParameteriv
D_l:__Z25Il2CppCodeGenWriteBarrierI30EqualityComparer_1_t3995337334EvPPT_S2_
nPp:_glGenTextures__wrapper
$2o:__ZN15dense_hashtableINSt3__24pairIK10KeyWrapperINS1_IP11Il2CppClassjEEES4_EES6_N6il2cpp8metadata14ArrayClassHashEN14dense_hash_mapIS6_S4_SB_NS6_14EqualsComparerINSA_17ArrayClassCompareEEENS0_9allocatorIS8_EEE9SelectKeyESF_SH_EC2EjRKSB_RKSF_RKSJ_
fCp:__ZN6il2cpp8metadata21Il2CppGenericInstHash4HashEPK17Il2CppGenericInst
xzn:_Func_1_EndInvoke_m3767477006_gshared
Bhi:__ZN22StrongName_t409384937720set_tokenAlgorithm_3EP8String_t
OVk:_UnicodeEncoding_GetHashCode_m354003420
Qvc:__ZN9ShaderLab20SerializedSubProgram14ConstantBufferaSERKS1_
Svn:__ZN27Uri_t100236324_StaticFields20set_UriSchemeFile_18EP8String_t
dgf:__ZL74SharedBetweenAnimatorsAttribute_t2857104338_CustomAttributesCacheGeneratorP21CustomAttributesCache
uej:_Enum_Equals_m3617313991
_He:__ZL69RuntimeArray_CustomAttributesCacheGenerator_Array_SetValue_m394135409P21CustomAttributesCache
Rul:__Z74RuntimeInvoker_Boolean_t97287965_LineTypeU26_t2430394419_Int32_t2950945753PFvvEPK10MethodInfoPvPS4_
K$a:__ZN8PlayableD0Ev
iro:_ContactFilter2D_SetLayerMask_m3440334821
Jm:emscriptenWebGLGetBufferBinding
TCo:__ZNK26InteropDataToTypeConverterclERK17Il2CppInteropData
Tko:_CanvasGroup_IsRaycastLocationValid_m2128397950
zoh:_Slider_UpdateCachedReferences_m3259451627
q$e:__ZL63X509ChainStatusFlags_t1026973125_CustomAttributesCacheGeneratorP21CustomAttributesCache
lhl:__Z50RuntimeInvoker_Double_t594665363_Double_t594665363PFvvEPK10MethodInfoPvPS4_
XSk:_StringBuilder_get_Length_m3238060835
Lfl:__Z60RuntimeInvoker_Void_t1185182177_StreamingContext_t3711869237PFvvEPK10MethodInfoPvPS4_
Itf:__ZL62Shadow_t773074319_CustomAttributesCacheGenerator_m_EffectColorP21CustomAttributesCache
EHa:__ZN9Scripting5Unity11Collections49NativeDisableParallelForRestrictionAttributeProxy9InitProxyEv
O4o:__ZN15dense_hashtableINSt3__24pairIK10KeyWrapperINS1_IP11Il2CppClassjEEES4_EES6_N6il2cpp8metadata14ArrayClassHashEN14dense_hash_mapIS6_S4_SB_NS6_14EqualsComparerINSA_17ArrayClassCompareEEENS0_9allocatorIS8_EEE9SelectKeyESF_SH_E6insertERKS8_
Lwe:_U3CShowU3Ec__AnonStorey1_U3CU3Em__0_m2340880019
Pve:__Z25Il2CppCodeGenWriteBarrierI24DropdownItem_t1451952895EvPPT_S2_
WXg:__ZNK24KeyCollection_t19306021216get_dictionary_0Ev
QYd:__ZN22BaseUnityConnectClient38PrepareConfigRequestOnMainThreadStaticEPS_
onh:_Selectable_OnSetProperty_m1693943217
Zkm:_List_1_GetIndex_m2300811709_gshared
wGc:__ZNK32RendererMaterialAnimationBinding12GetPPtrValueERKN11UnityEngine9Animation10BoundCurveE
DBk:_ASCIIEncoding_GetString_m58523364
HQd:__ZN2UI11CanvasGroup12CleanupClassEv
IPl:_ValueCollection_CopyTo_m731455634_gshared
Z$m:_TlsStream_Flush_m3793197834
amm:_List_1_GetIndex_m2832472557_gshared
ytb:__ZN22LocalFileSystemHandler9MakeLocalER13FileEntryDatab
wqp:__ZN6il2cpp2vm8Profiler10AllocationEP12Il2CppObjectP11Il2CppClass
cpf:__ZL61Graphic_t1660335611_CustomAttributesCacheGenerator_m_MaterialP21CustomAttributesCache
bKf:__ZN31OpCodes_t126150456_StaticFields18set_Endfinally_186E17OpCode_t123070264
Sva:__Z13FormatOrderedPKcz
cXm:__ZNK28SslHandshakeHash_t210758177212get_secret_7Ev
PFg:_InternalEnumerator_1_get_Current_m1506120701_AdjustorThunk
bkb:__ZN11TimeManager23VirtualRedirectTransferER18StreamedBinaryRead
_nh:_Selectable_IsPressed_m907486548
Lxd:__ZN14SafeBinaryRead21TransferSTLStyleArrayI10vector_mapINSt3__24pairIttEEfN20TextRenderingPrivate8FontImpl14KerningCompareENS2_9allocatorINS3_IS4_fEEEEEEEvRT_17TransferMetaFlags
$Ni:_TlsServerFinished__ctor_m1445633918
Uyj:_NumberFormatter_FastIntegerToString_m390846811
kch:__ZN21InterfaceFuncInvoker0IfE6InvokeEjP11Il2CppClassP12Il2CppObject
Vib:__ZN14CompressedMesh10GetQualityE15MeshCompression
Pjc:__ZN25DeferredRenderLoopScratchD0Ev
jA:__ZN27AnimationLayerMixerPlayable14SetInputWeightEif
pGm:__ZN23InterfaceActionInvoker2Ii22OrderBlock_t1585977831E6InvokeEjP11Il2CppClassP12Il2CppObjectiS0_
YAa:__ZL54__ManagedRegistrationHelperFunction_PlayableAssetProxyPv
enl:__Z83RuntimeInvoker_Void_t1185182177_RuntimeObject_Single_t1397266774_Single_t1397266774PFvvEPK10MethodInfoPvPS4_
dSk:__ZNK30SymmetricTransform_t380259184213get_workout_6Ev
Aee:_PhysicsRaycaster_Raycast_m776323695
Z8n:_UnityException__ctor_m1456865679
yx:__ZN7mecanim9animation17EvaluateHumanPoseERKNS0_18ClipMuscleConstantERKNS0_15ClipMuscleInputEPKfRKNS0_12MotionOutputERNS_5human9HumanPoseE
tOi:__ZNK33SendRecordAsyncResult_t371835246721get__asyncException_3Ev
QNo:__ZN6il2cpp2osL14FindFileHandleERK4stat
Hng:__Z44InternalEnumerator_1_get_Current_m3073360606P32InternalEnumerator_1_t2041360493PK10MethodInfo
zoj:__ZNK54X509EnhancedKeyUsageExtension_t4189149453_StaticFields28get_U3CU3Ef__switchU24mapE_6Ev
y2d:__ZN21DownloadHandlerBufferD0Ev
Dbe:__ZNK38ExecuteEvents_t3484638744_StaticFields24get_s_BeginDragHandler_6Ev
hhm:__Z65Enumerator_System_Collections_IEnumerator_get_Current_m1540440674P22Enumerator_t1222580846PK10MethodInfo
Fmf:__ZL92PointerEventData_t3807901092_CustomAttributesCacheGenerator_U3CscrollDeltaU3Ek__BackingFieldP21CustomAttributesCache
bvc:__ZN15dense_hashtableINSt3__24pairIKiN4core17string_with_labelILi1EEEEEi18SInt32HashFunctionN14dense_hash_mapIiS5_S7_NS0_8equal_toIiEE13stl_allocatorIS6_L18MemLabelIdentifier1ELi16EEE9SelectKeyESA_SD_E9copy_fromERKSG_j
bha:__Z34UnregisterCreateThreadCallbackImplPFvPK23UnityProfilerThreadDescPvES2_
JNj:_CustomAttributeNamedArgument_GetHashCode_m2317130892
mnb:__ZN15ResourceManagerD0Ev
p0l:__ZNK43EqualityComparer_1_t1640486689_StaticFields14get__default_0Ev
_pj:__ZNK27X509Certificate2_t71404912612get__cert_13Ev
r3m:__ZN36DeriveBytes_t1492915136_StaticFields20set_keyDiversifier_0EP22ByteU5BU5D_t4116647657
HZl:_EqualityComparer_1_get_Default_m990790318_gshared
T5n:__ZNK23AudioSource_t393530558826get_spatializerExtension_4Ev
jhh:_GetRayIntersectionAllCallback__ctor_m391992746
cSa:__ZN22CreateGpuProgramOutputD2Ev
JGo:__ZNSt3__26__treeINS_12__value_typeIP11Il2CppClassS3_EENS_19__map_value_compareIS3_S4_NS_4lessIS3_EELb1EEENS_9allocatorIS4_EEE12__find_equalIS3_EERPNS_16__tree_node_baseIPvEERPNS_15__tree_end_nodeISG_EERKT_
gwm:_List_1_get_Item_m1378751541_gshared
zfn:_GUILayout_EndArea_m2046611416
Kfh:__ZNK17Shadow_t77307431919get_m_EffectColor_5Ev
wQi:__ZN19Context_t397123470720set_serverWriteIV_26EP22ByteU5BU5D_t4116647657
iTe:__ZL52HMACSHA512_t923916539_CustomAttributesCacheGeneratorP21CustomAttributesCache
kEc:__ZN11HaloManagerC2Ev
Gcl:__Z81RuntimeInvoker_Void_t1185182177_RuntimeObject_SByte_t1669577662_SByte_t1669577662PFvvEPK10MethodInfoPvPS4_
vR:__ZN7mecanim9animation23BlendDirectDataConstant8TransferI14SafeBinaryReadEEvRT_
mvd:__Z50Physics2D_CUSTOM_RaycastNonAlloc_Internal_InjectedRK8Vector2fS1_fRK13ContactFilterP11Il2CppArray
ZXd:__ZN11UnityEngine9Analytics18ConnectSessionInfo8TransferER9JSONWrite
gyc:__ZN9ShaderLab14SerializedPass8TransferI19StreamedBinaryWriteEEvRT_
TMn:__ZNK26TransformU5BU5D_t80723762814GetAtUncheckedEj
jYl:_EqualityComparer_1__cctor_m3766928733_gshared
cnk:_SHA1CryptoServiceProvider_Finalize_m1793183797
c$i:_Convert_ToByte_m4146281512
T3l:_HashSet_1_System_Collections_Generic_ICollectionU3CTU3E_CopyTo_m408073502_gshared
dHi:_EncryptedPrivateKeyInfo_get_EncryptedData_m491452551
Ntb:__ZN12HandlerChain4OpenER13FileEntryData14FilePermission16FileAutoBehavior
Blk:_Array_InternalArray__ICollection_Add_TisPlayerLoopSystem_t105772105_m1930641144_gshared
Fyl:__Z72RuntimeInvoker_Void_t1185182177_Int32_t2950945753_RaycastHit_t1056001966PFvvEPK10MethodInfoPvPS4_
HXe:__ZL79Convert_t2465617642_CustomAttributesCacheGenerator_Convert_ToUInt16_m1147931813P21CustomAttributesCache
JRo:__ZN15dense_hashtableINSt3__24pairIK10KeyWrapperINS1_IPK10MethodInfoP11Il2CppClassEEEjEES9_17ReflectionMapHashIS8_EN14dense_hash_mapIS9_jSD_NS9_14EqualsComparerINS0_8equal_toIS8_EEEENS0_9allocatorISB_EEE9SelectKeyESI_SK_E6insertERKSB_
s9g:__ZNK25LayoutElement_t178540367823get_m_LayoutPriority_11Ev
eyg:__ZN32InternalEnumerator_1_t28112936009set_idx_1Ei
lgj:__Z25Il2CppCodeGenWriteBarrierI26KeysCollection_t1318642398EvPPT_S2_
qV:__ZN9Scripting11UnityEngine2XR5Tango14GridIndexProxy9InitProxyEv
Dpb:__ZN13RendererScene23UpdatePreviousFrameDataEii
bHg:__ZN32InternalEnumerator_1_t196306608311set_array_0EP11Il2CppArray
PGh:_MonoBehaviour_StopCoroutine_m615723318
QYc:__Z50Register_UnityEngine_CullingGroup_FinalizerFailurev
Ygo:__ZL25UnresolvedVirtualCall_241P12Il2CppObjectS0_S0_PK10MethodInfo
POd:__ZN12SharedObjectIN2UI13CanvasBuffersELb0E27SharedObjectDeleteReleaseOpIS1_EE5ResetEv
psk:_SecurityPermission_IsSubsetOf_m545000671
rqb:__ZN27UnloadUnusedAssetsOperationD0Ev
u$f:__ZN40ChannelServices_t3942013484_StaticFields24set_registeredChannels_0EP21ArrayList_t2718874744
UKh:__ZNK32PlayableOutputHandle_t420805379314get_m_Handle_0Ev
aB:__ZN26AnimatorControllerPlayable6MemoryD2Ev
CBl:__Z56RuntimeInvoker_Int32_t2950945753_SpriteState_t1362986479PFvvEPK10MethodInfoPvPS4_
RZc:__Z36Texture3D_CUSTOM_Internal_CreateImplP12Il2CppObjectiii14GraphicsFormat20TextureCreationFlags
hVl:__ZNK24Dictionary_2_t327488888212get_count_10Ev
H3m:__ZN29X501_t1758824426_StaticFields14set_surname_12EP22ByteU5BU5D_t4116647657
l8g:__ZNK50U3CMouseDragOutsideRectU3Ec__Iterator1_t390924187818get_U24disposing_6Ev
Kzc:__ZN12ShaderErrors11ShaderErrorC2EOS0_
KPf:__ZNK24MonoEventInfo_t34686661811get_attrs_6Ev
IGp:__ZNKSt3__221__basic_string_commonILb1EE20__throw_out_of_rangeEv
Owh:_Cursor_get_lockState_m2828192107
pbl:__Z78RuntimeInvoker_Boolean_t97287965_RuntimeObject_RuntimeObject_Int32_t2950945753PFvvEPK10MethodInfoPvPS4_
Tem:__ZN22Enumerator_t242665817213set_current_3E25RaycastResult_t3360306849
hW:__GLOBAL__sub_I_Runtime_Video_0_cpp
kzk:_String_Format_m630303134
gFp:___ofl_add
Gnl:__Z109RuntimeInvoker_Boolean_t97287965_RuntimeObject_Int32_t2950945753_Int32_t2950945753_Int32_t2950945753_IntPtr_tPFvvEPK10MethodInfoPvPS4_
t5n:__ZNK21AudioClip_t368088966525get_m_PCMReaderCallback_4Ev
Vap:__ZNK15dense_hashtableINSt3__24pairIK10KeyWrapperIP14Il2CppIUnknownEjEES5_N6il2cpp5utils11PointerHashIS3_EEN14dense_hash_mapIS5_jSB_NS5_14EqualsComparerINS0_8equal_toIS4_EEEENS0_9allocatorIS7_EEE9SelectKeyESG_SI_E12test_deletedERK24dense_hashtable_iteratorIS7_S5_SB_SK_SG_SI_E
C3j:__ZNK24BinaryWriter_t399259504214get_disposed_4Ev
VAa:__ZL57__ManagedRegistrationHelperFunction_PlayerConnectionProxyPv
LUj:__ZNK23CultureInfo_t415784306815get_cultureID_8Ev
VXo:__ZNK15dense_hashtableINSt3__24pairIK10KeyWrapperIPK22Il2CppGenericParameterEPK24MonoGenericParameterInfoEES6_N6il2cpp5utils11PointerHashIS4_EEN14dense_hash_mapIS6_SA_SF_NS6_14EqualsComparerINS0_8equal_toIS5_EEEENS0_9allocatorISB_EEE9SelectKeyESK_SM_E3endEv
aXf:_ResourceSet_System_Collections_IEnumerable_GetEnumerator_m2807499934
GP:__ZN26AnimatorOverrideController23VirtualRedirectTransferER24GenerateTypeTreeTransfer
_lj:__ZN43ServicePointManager_t170559685_StaticFields22set_maxServicePoints_4Ei
Kwm:_List_1_AddEnumerable_m2724989594_gshared
b_j:__ZNK30DateTimeFormatInfo_t240585370127get_allShortTimePatterns_34Ev
Uxm:_List_1_Contains_m2043463915_gshared
srl:__Z82RuntimeInvoker_Vector2_t2156229523_Vector2_t2156229523_RuntimeObject_RuntimeObjectPFvvEPK10MethodInfoPvPS4_
g1k:_Type_get_ContainsGenericParameters_m3456799426
_Vc:__Z70Register_UnityEngine_Playables_PlayableHandle_GetPlayableType_Injectedv
yYb:__ZNK4PPtrI23ShaderVariantCollectionEcvPS0_Ev
dFi:_ARC4Managed_TransformBlock_m1687647868
wj:_glCopyTexSubImage2D
EGc:__ZNK24RendererAnimationBinding13GetFloatValueERKN11UnityEngine9Animation10BoundCurveE
dXn:__ZNK31AnalyticsEventParam_t248012192823get_m_RequirementType_0Ev
RCk:__ZN36EncoderFallbackException_t277377192624set_char_unknown_high_14EDs
FNp:_glActiveTexture__wrapper
R7k:__Z77RuntimeInvoker_Byte_t1134296376_RuntimeObject_Int32_t2950945753_RuntimeObjectPFvvEPK10MethodInfoPvPS4_
lZn:__ZN27AnalyticsTracker_t73102137812set_m_Dict_5EP24Dictionary_2_t2865362463
R5l:_RIPEMD160Managed_CompressFinal_m497690796
KVb:__ZN18ScreenManagerWebGL13SetShowCursorEb
Iqg:_InternalEnumerator_1_MoveNext_m1773160976_gshared
v7b:__ZN13DrawImmediateC2ER9GfxDevice
CDp:_frexp
sDp:_fmt_x
eSd:__ZN2UI13CanvasManager14GetRenderOrderEPKNS_6CanvasE
aHb:__Z18Transfer_BlittableI14SafeBinaryReadLb0E5RectTIfEEvRK29SerializationCommandArgumentsR31RuntimeSerializationCommandInfo
zDj:_NumberFormatter_NumberToString_m2562899600
aqk:_SymmetricAlgorithm_get_FeedbackSize_m3666584308
ISn:__ZN46U3CAddScoreWithPipeU3Ec__Iterator1_t311897822018set_U3CwwwU3E__0_3EP15WWW_t3688466362
tFd:_otv_u_C_x_Ox
jse:__ZN17Image_t267026965126get_address_of_m_Sprite_31Ev
YHe:__ZL70RuntimeArray_CustomAttributesCacheGenerator_Array_GetValue_m1062368071P21CustomAttributesCache
bQp:_emscripten_glGenVertexArrays__wrapper
tDp:_fmt_o
$5k:_Version_Clone_m1749041863
CRb:__ZL22Transfer_ManagedObjectI18StreamedBinaryReadLb1EEvRK29SerializationCommandArgumentsR31RuntimeSerializationCommandInfo
tZg:_ShimEnumerator_get_Key_m4155849607_gshared
Umj:__ZN20WebProxy_t201676054219set_bypassOnLocal_1Eb
k6a:__ZN6prcoreL21CreateRemapAnyBlitterE13TextureFormatS0_
AIi:_RSAManaged_ExportParameters_m1754454264
vPc:__ZN17AnimationCurveTplIfE16StripInvalidKeysEv
eti:_Boolean_Equals_m535526264_AdjustorThunk
ZAl:__Z71RuntimeInvoker_KeyValuePair_2_t71524366_Int32_t2950945753_RuntimeObjectPFvvEPK10MethodInfoPvPS4_
m_d:__ZN13dynamic_arrayIiLj0EE6insertEPiPKiS3_
RSi:__ZNK25SslStreamBase_t166741340717get_inputBuffer_4Ev
A6n:__ZNK46AudioExtensionManager_t3220897493_StaticFields50get_m_SourceAmbisonicDecoderExtensionDefinitions_2Ev
sSd:__ZNK2UI6Canvas17GetSortingLayerIDEv
Z3i:_Convert_ToUInt16_m3116648921
XRc:__ZL12HashLen0to16PKcj
wld:__ZN14Raycast2DQuery8RunQueryEb
dfb:__ZN8Renderer24SetupNewRendererForSceneEv
v0k:_Type_internal_from_name_m1721940673
wTn:_U3CGetSingleScoreU3Ec__Iterator4_MoveNext_m2089324518
B9n:__ZN19Vector2_t215622952318get_address_of_x_0Ev
rqc:__ZN13ModuleManager4LoadEv
v_l:__Z25Il2CppCodeGenWriteBarrierI28EqualityComparer_1_t97254934EvPPT_S2_
NNm:_Collection_1_ConvertItem_m2914830459_gshared
nRj:_Environment_get_TickCount_m2088073110
j9h:_RemotingServices_GetMethodBaseFromName_m3194612939
lad:__Z35Transfer_Blittable_FixedBufferFieldI8JSONReadtEvRK29SerializationCommandArgumentsR31RuntimeSerializationCommandInfo
$Qa:__ZN4PPtrI7TextureE8TransferI14SafeBinaryReadEEvRT_
tMc:__ZN14PlayableOutput6HandleEv
Ztk:__ZNK40SecurityElement_t1046076091_StaticFields23get_invalid_tag_chars_4Ev
h3a:__ZNK6Sprite22GetTypeVirtualInternalEv
VIf:__ZN31OpCodes_t126150456_StaticFields15set_Ldsflda_124E17OpCode_t123070264
VJ:__ZN7mecanim5human9HumanGoal8TransferI19StreamedBinaryWriteEEvRT_
Y4d:__ZN13RuntimeStaticINSt3__26vectorI23UnityVRDeviceDefinition13stl_allocatorIS2_L18MemLabelIdentifier90ELi16EEEELb0EE13StaticDestroyEPv
io:FUNCTION_TABLE_iiiiiiiiiiiiii
Gso:_NativePropertyAttribute__ctor_m2033094153
Pci:_ReturnMessage_GetArg_m3510565487
VZd:__ZN19UnityConnectService18OnPlayerQuitStaticEPS_
LRb:__Z29Transfer_Blittable_ArrayFieldI18StreamedBinaryReaddEvRT_R9ArrayInfoRK23StaticTransferFieldInfo
kGd:_UNITY_tt_get_cmap_info
NVi:_SslClientStream_RaiseServerCertificateValidation_m3477149273
FNb:__Z29Transfer_Blittable_ArrayFieldI24GenerateTypeTreeTransfer5RectTIiEEvRT_R9ArrayInfoRK23StaticTransferFieldInfo
XWa:__ZN16ReflectionProbes8ScheduleEN18ReflectionProbeJob7JobTypeEP15ReflectionProbei
lyn:__Z30Comparison_1_Invoke_m568154215P23Comparison_1_t83093314522RaycastHit_t1056001966S1_PK10MethodInfo
WOi:_ClientSessionInfo_KeepAlive_m1020179566
aMh:__ZNK35Quaternion_t2301928331_StaticFields24get_identityQuaternion_4Ev
jym:_List_1_ToArray_m4056539300_gshared
oLe:__ZL51Calendar_t1661121569_CustomAttributesCacheGeneratorP21CustomAttributesCache
Uoa:__ZN16MessageForwarder13HandleMessageEPviR11MessageData
nvb:__Z18IsDirectoryCreatedRKN4core12basic_stringIcNS_20StringStorageDefaultIcEEEE
_un:__ZNK27Uri_t100236324_StaticFields21get_UriSchemeHttps_22Ev
Zrk:_String_FormatHelper_m3913915042
GPm:__ZN32ReadOnlyCollection_1_t150044199710set_list_0EP12Il2CppObject
XNl:_Enumerator_System_Collections_IEnumerator_get_Current_m183009269_gshared
TOd:__ZN2UI13CanvasManagerD2Ev
Dhj:__ZNK43ServicePointManager_t170559685_StaticFields20get_server_cert_cb_9Ev
ZMj:_ConstructorInfo__cctor_m1016079270
Eyo:__ZN15dense_hashtableINSt3__24pairIK10KeyWrapperIPKcEP11Il2CppClassEES5_N6il2cpp5utils11StringUtils12StringHasherIS4_EEN14dense_hash_mapIS5_S8_SE_NS5_14EqualsComparerINSB_13VmStringUtils21CaseSensitiveComparerEEENS0_9allocatorIS9_EEE9SelectKeyESJ_SL_E15set_deleted_keyERKS9_
tsl:__Z38RuntimeInvoker_ContentType_t1787303396PFvvEPK10MethodInfoPvPS4_
qze:__Z30Dictionary_2__ctor_m2756672401P24Dictionary_2_t3531485785PK10MethodInfo
pOm:_ReadOnlyCollection_1_Contains_m1700717617_gshared
zni:_AttrListImpl_get_Names_m977594476
HNj:_CustomAttributeData_GetHashCode_m3727773664
cAd:_UNITY_FT_GlyphLoader_Done
lWn:__ZN24AesTransform_t29571236119set_Nr_14Ei
TXo:__ZN15dense_hashtableINSt3__24pairIK10KeyWrapperIPK22Il2CppGenericParameterEPK24MonoGenericParameterInfoEES6_N6il2cpp5utils11PointerHashIS4_EEN14dense_hash_mapIS6_SA_SF_NS6_14EqualsComparerINS0_8equal_toIS5_EEEENS0_9allocatorISB_EEE9SelectKeyESK_SM_E12expand_arrayEjN21dense_hash_map_traits17integral_constantIbLb0EEE
Nfm:__ZN22Enumerator_t326161813310set_next_1Ei
zvk:__ZN25SecurityFrame_t142246247513set__assert_2EP24PermissionSet_t223948603
Xcf:__ZL95SceneManager_t2787271929_CustomAttributesCacheGenerator_SceneManager_GetActiveScene_m1825203488P21CustomAttributesCache
aTf:_Pointer_Box_m389276611
yFb:__ZNK17InstancingBatcher15RenderInstancesERK19ShaderPropertySheetRKNS_22RenderInstancesConfigsERK11MeshBuffersRK16DrawBuffersRange16VertexInputMasks
ocj:_StackTrace_get_FrameCount_m344690939
aVg:__ZNK24Dictionary_2_t327488888214get_keySlots_6Ev
nck:_UnexceptionalStreamWriter_Write_m363195622
Qck:_Array_get_swapper_TisRuntimeObject_m1378919517_gshared
HAd:__ZN20TextRenderingPrivate25ReadFontFileAndAddToCacheERKN4core12basic_stringIcNS0_20StringStorageDefaultIcEEEE
wxd:__ZN9Scripting11UnityEngine18CharacterInfoProxy12CleanupProxyEv
jHd:_tt_cmap14_char_var_index
E7:__ZNSt3__26__treeINS_12__value_typeIN19CloudServiceHandler11ServiceTypeEPS2_EENS_19__map_value_compareIS3_S5_NS_4lessIS3_EELb1EEE13stl_allocatorIS5_L18MemLabelIdentifier88ELi16EEE12__find_equalIS3_EERPNS_16__tree_node_baseIPvEENS_21__tree_const_iteratorIS5_PNS_11__tree_nodeIS5_SG_EEiEERPNS_15__tree_end_nodeISI_EESJ_RKT_
kWg:__ZN21Enumerator_t18556172532get_address_of_host_enumerator_0Ev
yro:_Physics2D_Raycast_m1700114981
O5g:_Selectable_OnPointerDown_m1086067264
pLd:_psh_globals_new
Vue:_Dropdown_SetupTemplate_m628218778
b2j:_Guid_Equals_m3683678873_AdjustorThunk
_Vk:_Thread_GetCompressedStack_m2923422412
OJi:__ZN28GenericInterfaceFuncInvoker2IbP26X509Certificate_t713131622P22Int32U5BU5D_t385246372E6InvokeEPK10MethodInfoP12Il2CppObjectS1_S3_
sFh:_Matrix4x4_MultiplyPoint3x4_m4145063176
Loj:_X509BasicConstraintsExtension_ToString_m1809935297
tzb:__ZN9GfxDevice20SetMaxBufferedFramesEi
BMn:_U3CRepeatU3Ec__Iterator1_System_Collections_IEnumerator_get_Current_m3170418799
vRg:__Z36KeyValuePair_2_get_Value_m1669764045P26KeyValuePair_2_t3842366416PK10MethodInfo
vAk:__ZN20Encoding_t152332205614set_codePage_0Ei
Gdo:__ZL24UnresolvedVirtualCall_61P12Il2CppObjectsPK10MethodInfo
iYo:__ZN10KeyWrapperIPK10Il2CppTypeE14EqualsComparerIN6il2cpp8metadata26Il2CppTypeEqualityComparerEEC2ES7_
bgd:__ZN10Collider2D19WakeAllBodyContactsEv
mJl:_GameObject_GetComponents_TisRuntimeObject_m1246177135_gshared
e$:__ZN24AudioScriptBufferManagerD2Ev
WHf:__ZN31OpCodes_t126150456_StaticFields15set_Ldind_I2_71E17OpCode_t123070264
B0j:__ZN20TextInfo_t381042552221set_m_listSeparator_0EP8String_t
J3m:__ZN29X501_t1758824426_StaticFields14set_initial_14EP22ByteU5BU5D_t4116647657
gFj:_MethodAccessException__ctor_m3542088436
zsc:__Z23ConvertIntegerToTypePtrIsEbPvR14SafeBinaryRead
ADp:___DOUBLE_BITS_670
Qhd:__ZN12b2MouseJoint11ShiftOriginERK6b2Vec2
Kwo:__ZN6il2cpp2vm5Class12HasAttributeEP11Il2CppClassS3_
ixi:_ArrayListWrapper_get_Capacity_m51087796
y_c:__Z43Transform_CUSTOM_set_localPosition_InjectedP12Il2CppObjectRK8Vector3f
$Fb:__ZN15SerializeTraitsI11MonoManagerE8TransferI18StreamedBinaryReadEEvRS0_RT_
EYl:_EqualityComparer_1_System_Collections_IEqualityComparer_GetHashCode_m2230215241_gshared
mCi:__ZN35BigInteger_t2902905090_StaticFields9set_rng_3EP32RandomNumberGenerator_t386037858
ksf:__ZL60ContentSizeFitter_t3850442145_CustomAttributesCacheGeneratorP21CustomAttributesCache
Qto:__ZN15dense_hashtableINSt3__24pairIK10KeyWrapperIPK22Il2CppGenericParameterEP11Il2CppClassEES6_N6il2cpp5utils11PointerHashIS4_EEN14dense_hash_mapIS6_S9_SE_NS6_14EqualsComparerINS0_8equal_toIS5_EEEENS0_9allocatorISA_EEE9SelectKeyESJ_SL_EC2ERKSO_j
LBi:_Hashtable_Contains_m2145146412
m1e:__ZL64UnmarshalledAttribute_t1517743549_CustomAttributesCacheGeneratorP21CustomAttributesCache
hBe:__Z25Il2CppCodeGenWriteBarrierI18List_1_t3132410353EvPPT_S2_
Qya:__ZN6prcoreL29inner_stretch_rgb565_bilinearEPKNS_9InnerInfoE
$Qg:_Enumerator__ctor_m1195706188_AdjustorThunk
VDf:_TypeBuilder__ctor_m3644689907
WQo:__ZNK10KeyWrapperIPK10Il2CppTypeEcvRKS2_Ev
RAh:_MaterialEffectPlayable_Equals_m3750885802
vOo:__ZNK15dense_hashtableINSt3__24pairIK10KeyWrapperINS1_IPK14Il2CppAssemblyP11Il2CppClassEEEjEES9_17ReflectionMapHashIS8_EN14dense_hash_mapIS9_jSD_NS9_14EqualsComparerINS0_8equal_toIS8_EEEENS0_9allocatorISB_EEE9SelectKeyESI_SK_E12test_deletedEj
e6m:__ZNK19X509Crl_t114876738816get_hash_value_9Ev
pfi:_RemotingConfiguration_IsRemotelyActivatedClientType_m4117048589
Jyj:_Int32_FindCurrency_m3541026887
yln:_Interval_CompareTo_m3282557545
eIf:__ZN31OpCodes_t126150456_StaticFields15set_Stind_I1_81E17OpCode_t123070264
NUj:__ZN23CultureInfo_t415784306818set_constructed_33Eb
dMn:__ZN35U3CRepeatU3Ec__Iterator1_t73464693624set_U3Cvirus_posU3E__1_0Ei
PCe:__ZN42HorizontalOrVerticalLayoutGroup_t72972557026set_m_ChildControlWidth_15Eb
Wic:__ZNK14RenderSettings19GetFlatAmbientColorEv
hTa:__ZN8DrawUtil24DrawMeshRawFromNodeQueueERK15RenderNodeQueuej16VertexInputMasksi
Yho:__ZL25UnresolvedVirtualCall_295P12Il2CppObjectiPK10MethodInfo
gC:__ZNK27StateMachineBehaviourPlayer15IsSenderEnabledEv
HSo:__ZN6il2cpp2gc19AppendOnlyGCHashMapINSt3__24pairIPK11Il2CppImageP11Il2CppClassEEP22Il2CppReflectionModule17ReflectionMapHashIS9_ENS2_8equal_toIS9_EEE11TryGetValueERKS9_PSB_
Nrf:__ZL58Text_t1901882714_CustomAttributesCacheGenerator_m_FontDataP21CustomAttributesCache
Pyf:_GenericTypeParameterBuilder_IsPrimitiveImpl_m1952010459
eQm:_ReadOnlyCollection_1_CopyTo_m3474153465_gshared
gSk:__ZNK30SymmetricTransform_t380259184211get__rng_11Ev
Q2n:_DownloadHandler_get_text_m2427232382
X3f:__ZNK24ObjectReader_t194095739227get__registeredAssemblies_5Ev
V7l:_RijndaelManagedTransform_TransformBlock_m1610137419
d$c:__Z40Register_UnityEngine_Transform_SetParentv
kUe:__ZL94WindowsIdentity_t2948242406_CustomAttributesCacheGenerator_WindowsIdentity_Dispose_m3466258450P21CustomAttributesCache
Vao:__ZNK32Vector3_t3722313464_StaticFields14get_upVector_7Ev
vcb:__ZN14Texture2DArray17UploadToGfxDeviceEv
$_j:__ZNK27NumberFormatInfo_t43587713827get_numberGroupSeparator_18Ev
nmp:___cxx_global_var_init_43668
XZ:__Z14FMODMemoryFreePvjPKc
jgm:_Enumerator__ctor_m2029608698_gshared
skm:_List_1__ctor_m4004500203_gshared
Fkn:_InterpreterFactory_NewInstance_m2792693614
sco:_NetFxCoreExtensions_GetMethodInfo_m444570327
m0k:_Type_get_IsSystemType_m624798880
aGh:_Mesh_SetNormals_m2521889643
Q$n:__ZN18VirtActionInvoker3IffbE6InvokeEjP12Il2CppObjectffb
ELe:__ZL77RegionInfo_t1090270226_CustomAttributesCacheGenerator_U3CU3Ef__switchU24map1BP21CustomAttributesCache
DCd:_cf2_glyphpath_moveTo
Evm:_List_1_AddCollection_m1469681717_gshared
jUf:_TypeDelegator_IsPointerImpl_m458295709
ysd:__ZNK13BoxCollider2D22GetTypeVirtualInternalEv
Rid:__Z6b2FreePv10MemLabelId
b_c:__Z51Register_UnityEngine_Texture_get_texelSize_Injectedv
epn:__ZNK17Regex_t365730985320get_machineFactory_1Ev
DYa:__ZN11HaloManager7AddHaloENS_9OwnerTypeE
By:__ZN7mecanim23TransformValueArrayLoopEiiiRKN4math4trsXES3_RNS_10ValueArrayEf
APi:_ClientSessionInfo_Finalize_m2165787049
c2c:__ZN5IMGUI14GUIWindowStateD2Ev
kNi:_ClientContext_Clear_m1774063253
wOc:__ZN4Mesh17SetIndicesComplexEPKvjj16GfxPrimitiveTypeij
npj:__ZN21PublicKey_t377958268413set__params_2EP25AsnEncodedData_t382354011
A7i:_DateTime_AddSeconds_m332574389_AdjustorThunk
M8n:_RequestAtlasCallback_Invoke_m378128467
l4f:__ZNK24TypeMetadata_t313952326017get_MemberInfos_3Ev
Jti:_Byte_System_IConvertible_ToSByte_m1869482168
j6o:__GLOBAL__sub_I_Assembly_cpp
Xel:__Z99RuntimeInvoker_RuntimeObject_RuntimeObject_RuntimeObject_StreamingContext_t3711869237_RuntimeObjectPFvvEPK10MethodInfoPvPS4_
Wbo:__ZN32Vector4_t3319028937_StaticFields28set_positiveInfinityVector_7E19Vector4_t3319028937
LOn:_DisplayScore_Start_m1393871183
Inb:__ZN15SerializeTraitsI13dynamic_arrayIN15ResourceManager10DependencyELj0EEE8TransferI24GenerateTypeTreeTransferEEvRS3_RT_
BTb:__ZN10MonoScript8TransferI19StreamedBinaryWriteEEvRT_
asg:__Z37InternalEnumerator_1__ctor_m819716934P32InternalEnumerator_1_t1291559127P11Il2CppArrayPK10MethodInfo
mAl:__Z44RuntimeInvoker_MonoWin32Resource_t1904229483PFvvEPK10MethodInfoPvPS4_
QL:__ZN7mecanim5human10RetargetToEPKNS0_5HumanEPKNS0_9HumanPoseES6_RKN4math4trsXEPS4_PNS_8skeleton13SkeletonPoseTIS8_EESF_
uy:__ZN7mecanim9animation8SeekClipERKNS0_12StreamedClipERNS0_18StreamedClipMemoryEf
nCh:_GameObject_Internal_AddComponentWithType_m3797731663
bh:_emscripten_glIsTexture
mI:__ZN24CompressedAnimationCurveaSERKS_
aym:_List_1_CheckIndex_m3933537097_gshared
Wg:_emscripten_glHint
J4e:__ZL96MeshFilter_t3523625662_CustomAttributesCacheGenerator_MeshFilter_DontStripMeshFilter_m2877155929P21CustomAttributesCache
aWn:_Check_SourceAndPredicate_m2332465641
tkf:__ZL74ContactFilter2D_t3805203441_CustomAttributesCacheGenerator_useOutsideDepthP21CustomAttributesCache
OHe:__ZL70RuntimeArray_CustomAttributesCacheGenerator_Array_get_Length_m21610649P21CustomAttributesCache
iJd:_ft_var_readpackeddeltas
iXf:__ZNK23ResourceSet_t282791118711get_Table_1Ev
Wbf:__ZL80Logger_t274032455_CustomAttributesCacheGenerator_U3ClogEnabledU3Ek__BackingFieldP21CustomAttributesCache
Euk:__ZN27SecurityContext_t243544204414set__capture_0Eb
Y3j:__ZN24BinaryWriter_t399259504222set_maxCharsPerRound_6Ei
btp:_GC_should_collect
Ugh:__ZN34ReflectionMethodsCache_t210321106215set_raycast2D_2EP28Raycast2DCallback_t768590915
f4d:__ZL58__ManagedRegistrationHelperFunction_VideoClipPlayableProxyPv
I0n:__ZN35ToggleGroup_t123837990_StaticFields26set_U3CU3Ef__amU24cache1_7EP18Func_2_t3446800538
b3k:_UInt32_System_IConvertible_ToInt64_m2261037378
flo:_CanvasRenderer_EnableRectClipping_Injected_m1138624799
Gd:_SDL_UpperBlit
Unh:__Z28List_1_get_Count_m1565416845P18List_1_t1260619206PK10MethodInfo
OWa:__Z35GetTextureDecodeValuesWithIntensity16TextureUsageMode17TextureColorSpace10ColorSpacef
uAm:_Enumerator_Dispose_m277244561_gshared
sFa:__ZN9Scripting11UnityEngine12Experimental9Rendering16CullResultsProxy9InitProxyEv
Gfe:__ZNK28PointerEventData_t380790109244get_U3CeligibleForClickU3Ek__BackingField_10Ev
ZYo:__ZN15dense_hashtableINSt3__24pairIK10KeyWrapperINS1_IPK9EventInfoP11Il2CppClassEEEjEES9_17ReflectionMapHashIS8_EN14dense_hash_mapIS9_jSD_NS9_14EqualsComparerINS0_8equal_toIS8_EEEENS0_9allocatorISB_EEE9SelectKeyESI_SK_E15set_deleted_keyERKSB_
AUo:__ZN15dense_hashtableINSt3__24pairIK10KeyWrapperINS1_IPK12PropertyInfoP11Il2CppClassEEEjEES9_17ReflectionMapHashIS8_EN14dense_hash_mapIS9_jSD_NS9_14EqualsComparerINS0_8equal_toIS8_EEEENS0_9allocatorISB_EEE9SelectKeyESI_SK_ED2Ev
i0c:__ZL55__ManagedRegistrationHelperFunction_GUIScrollGroupProxyPv
Mhd:__ZNK12b2MouseJoint10GetAnchorAEv
wdp:__ZN6il2cpp2vm5Image20EmbeddedResourceDataC2ENS0_22EmbeddedResourceRecordEPv
vWj:_GregorianCalendar__ctor_m979779718
eVi:_SslClientStream__ctor_m2402546929
N3h:__ZNK40SynchronizedContextReplySink_t377092265010get__att_2Ev
sUb:__ZN14SafeBinaryRead20OverrideRootTypeNameEPKc
Lfj:_DictionaryNodeEnumerator_get_Entry_m2309234501
Mto:__ZNK10KeyWrapperIPK22Il2CppGenericParameterE14EqualsComparerINSt3__28equal_toIS2_EEEclERKS3_SA_
OBg:__ZN30InternalEnumerator_1_t837023449set_idx_1Ei
Qna:__ZN14FileCacherRead16UnlockCacheBlockEj
hem:_Enumerator_Dispose_m951715887_AdjustorThunk
Ktg:_InternalEnumerator_1_System_Collections_IEnumerator_Reset_m521819017_AdjustorThunk
$6m:_Event_set_character_m1015181207
GOp:_emscripten_glVertexAttrib1f__wrapper
eQ:__ZN26AnimatorOverrideController8TransferI24GenerateTypeTreeTransferEEvRT_
URj:_IsolatedStorageException__ctor_m1022659452
gAl:__Z31RuntimeInvoker_Slot_t3975888750PFvvEPK10MethodInfoPvPS4_
Qha:__ZN10InstancingL21OnGraphicsCapsChangedEv
oKb:__Z18Transfer_BlittableI17RemapPPtrTransferLb1E8Vector3fEvRK29SerializationCommandArgumentsR31RuntimeSerializationCommandInfo
pPe:__ZL61ClassInterfaceType_t4029497327_CustomAttributesCacheGeneratorP21CustomAttributesCache
wtp:_GC_notify_full_gc
l9e:__ZL101SystemInfo_t3561985952_CustomAttributesCacheGenerator_SystemInfo_GetOperatingSystemFamily_m1440411909P21CustomAttributesCache
gLn:__Z25Il2CppCodeGenWriteBarrierI29Int32U5BU5DU5BU5D_t3365920845EvPPT_S2_
OZk:_WaitHandle_get_Handle_m3260446580
Ggm:_Enumerator_VerifyState_m1745883925_AdjustorThunk
dUo:__ZN15dense_hashtableINSt3__24pairIK10KeyWrapperINS1_IPK12PropertyInfoP11Il2CppClassEEEjEES9_17ReflectionMapHashIS8_EN14dense_hash_mapIS9_jSD_NS9_14EqualsComparerINS0_8equal_toIS8_EEEENS0_9allocatorISB_EEE9SelectKeyESI_SK_E13clear_deletedER30dense_hashtable_const_iteratorISB_S9_SD_SM_SI_SK_E
Gh:_emscripten_glUniform1f
PXi:_SortedList__ctor_m1261191695
c2o:__ZN6il2cpp2vm6Thread28GetThreadStaticDataForThreadEiP12Il2CppThread
YVm:_ReadOnlyCollection_1_System_Collections_IList_get_IsReadOnly_m165706550_gshared
w9k:__Z75RuntimeInvoker_Int32_t2950945753_DecimalU26_t3714369516_Int64U26_t200113976PFvvEPK10MethodInfoPvPS4_
PAd:__Z20ParseImageParametersR11UTF16StringRiRN20TextRenderingPrivate16TextFormatChangeE
$rf:__ZL55CanvasScaler_t2767979955_CustomAttributesCacheGeneratorP21CustomAttributesCache
jLm:_Collection_1_RemoveItem_m2942561924_gshared
Ih:_emscripten_glUniform1i
Zdd:__ZN9Scripting11UnityEngine27ParticleSystemRendererProxy12CleanupProxyEv
uje:_StandaloneInputModule_GetRawMoveVector_m2737091079
bMb:__Z18Transfer_BlittableI24GenerateTypeTreeTransferLb1EN4math12int3_storageEEvRK29SerializationCommandArgumentsR31RuntimeSerializationCommandInfo
YL:__ZN12_GLOBAL__N_119PreProcessAnimationER35AnimationPlayableEvaluationConstantR17AnimationPlayable
ukh:__Z14bankers_roundff
VMn:__ZNK41U3CUpdateCardsU3Ec__Iterator0_t191309928916get_U24current_1Ev
tSo:__ZN15dense_hashtableINSt3__24pairIK10KeyWrapperINS1_IPK10MethodInfoP11Il2CppClassEEEjEES9_17ReflectionMapHashIS8_EN14dense_hash_mapIS9_jSD_NS9_14EqualsComparerINS0_8equal_toIS8_EEEENS0_9allocatorISB_EEE9SelectKeyESI_SK_E12expand_arrayEjN21dense_hash_map_traits17integral_constantIbLb0EEE
bhl:__Z49RuntimeInvoker_Char_t3634460470_Int64_t3736567304PFvvEPK10MethodInfoPvPS4_
u8:__ZN11UnityEngine15CloudWebService16SessionContainer20RestoreSessionHeaderERKN4core12basic_stringIcNS2_20StringStorageDefaultIcEEEES8_RNS0_13SessionHeaderE
W0d:__ZN22UnityWebRequestManager13BackendRetainEv
MNc:__ZN8Material28ApplyMaterialPropertyDrawersEv
czp:__ZN6il2cpp2os12Cryptography23GetCryptographyProviderEv
yIj:__ZNK19MulticastDelegate_t15get_kpm_next_10Ev
Muo:__ZN24dense_hashtable_iteratorINSt3__24pairIK10KeyWrapperIPK22Il2CppGenericParameterEP11Il2CppClassEES6_N6il2cpp5utils11PointerHashIS4_EEN14dense_hash_mapIS6_S9_SE_NS6_14EqualsComparerINS0_8equal_toIS5_EEEENS0_9allocatorISA_EEE9SelectKeyESJ_SL_E30advance_past_empty_and_deletedEv
Tvf:__ZL72U3CUpdateCardsU3Ec__Iterator0_t1913099289_CustomAttributesCacheGeneratorP21CustomAttributesCache
$Qm:_ReadOnlyCollection_1_System_Collections_IEnumerable_GetEnumerator_m3042843502_gshared
Vdh:_MaskableGraphic_get_onCullStateChanged_m3331479633
_dl:__Z151RuntimeInvoker_RuntimeObject_Int32_t2950945753_RuntimeObject_ObjectU5BU5DU26_t712384779_RuntimeObject_RuntimeObject_RuntimeObject_ObjectU26_t2146539884PFvvEPK10MethodInfoPvPS4_
lYd:__ZN8JSONRead19TransferSTLStyleMapINSt3__23mapIN4core12basic_stringIcNS3_20StringStorageDefaultIcEEEEN11UnityEngine9Analytics16LimitEventConfigENS1_4lessIS7_EE13stl_allocatorINS1_4pairIKS7_SA_EEL18MemLabelIdentifier6ELi16EEEEEEvRT_17TransferMetaFlags
gJi:__ZN25EncryptedData_t357754873314set__content_1EP23ContentInfo_t3218159896
ITc:__ZN9BlobWriteC2ER13dynamic_arrayIhLj16EE24TransferInstructionFlags19BuildTargetPlatform
mne:_CanvasUpdateRegistry__ctor_m2005397069
Jdf:__ZL77Input_t1431474628_CustomAttributesCacheGenerator_Input_GetAxisRaw_m2316819917P21CustomAttributesCache
NXn:__ZN24EventTrigger_t252745169518set_m_ApplyRules_3Eb
Xla:__ZN14MessageHandler3GetEv
npb:__ZL19BlendLightProbesJobP19BlendProbesJobInputj
cvg:__Z74InternalEnumerator_1_System_Collections_IEnumerator_get_Current_m548105685P32InternalEnumerator_1_t1747214298PK10MethodInfo
wah:_LayoutGroup_SetLayoutInputForAxis_m2458344630
ef:_emscripten_glAttachShader
Xea:__Z40DebugStringToFilePostprocessedStacktraceRK21DebugStringToFileData
JLg:__Z44InternalEnumerator_1_get_Current_m2313784098P32InternalEnumerator_1_t2086890089PK10MethodInfo
rFe:_Image__cctor_m1927508576
JXk:_SendOrPostCallback_EndInvoke_m2485163446
fxc:__ZNSt3__26vectorIN4core12basic_stringIcNS1_20StringStorageDefaultIcEEEENS_9allocatorIS5_EEE6assignIPS5_EENS_9enable_ifIXaasr21__is_forward_iteratorIT_EE5valuesr16is_constructibleIS5_NS_15iterator_traitsISC_E9referenceEEE5valueEvE4typeESC_SC_
d4n:_UploadHandler_Dispose_m3057340132
z5i:_CurrentSystemTimeZone_GetDaylightChanges_m2394763749
qgn:__ZNK26GUILayoutGroup_t215778969523get_m_ChildMinHeight_24Ev
reb:__ZThn32_N8Renderer15AddAsRenderNodeER15RenderNodeQueueRK20DeprecatedSourceData
Vwd:__ZN9Scripting11UnityEngine12TerrainProxy9InitProxyEv
n4b:__ZN13dynamic_arrayIN18GlslGpuProgramGLES9GLProgramELj0EE6insertEPS1_jRKS1_
JKg:_InternalEnumerator_1_get_Current_m3331252162_AdjustorThunk
u0m:__ZN37BasicConstraintsExtension_t24621952788set_cA_3Eb
GGe:__ZL76String_t_CustomAttributesCacheGenerator_String_Concat_m1809518182____values0P21CustomAttributesCache
BXn:_EventTrigger__ctor_m3931360164
JGb:__Z18Transfer_BlittableI14SafeBinaryReadLb0E11QuaternionfEvRK29SerializationCommandArgumentsR31RuntimeSerializationCommandInfo
vsd:__ZN13BoxCollider2D16CheckConsistencyEv
iXb:__Z21BeginSplashScreenFadev
lsb:__ZN12ImmediatePtrI9TransformE8TransferI18StreamedBinaryReadEEvRT_
Eea:_tlsf_walk_heap
zdl:__Z49RuntimeInvoker_Void_t1185182177_OpCode_t123070264PFvvEPK10MethodInfoPvPS4_
XPl:_Dictionary_2_System_Collections_Generic_ICollectionU3CSystem_Collections_Generic_KeyValuePairU3CTKeyU2CTValueU3EU3E_Add_m3401902714_gshared
J4o:__ZNK15dense_hashtableINSt3__24pairIK10KeyWrapperIP11Il2CppClassES4_EES5_N6il2cpp8metadata16SZArrayClassHashEN14dense_hash_mapIS5_S4_SA_NS5_14EqualsComparerINS9_19SZArrayClassCompareEEENS0_9allocatorIS7_EEE9SelectKeyESE_SG_E10test_emptyERK24dense_hashtable_iteratorIS7_S5_SA_SI_SE_SG_E
o5n:__ZN21AudioClip_t368088966530set_m_PCMSetPositionCallback_5EP34PCMSetPositionCallback_t1059417452
hnl:__Z69RuntimeInvoker_Void_t1185182177_Int32_t2950945753_HitInfo_t3229609740PFvvEPK10MethodInfoPvPS4_
ogf:__ZL59AnimatorClipInfo_t3156717155_CustomAttributesCacheGeneratorP21CustomAttributesCache
RQh:_SceneManager_LoadScene_m2298600132
yb:invoke_vif
ZJ:__ZN4PPtrI10MonoScriptE8TransferI19StreamedBinaryWriteEEvRT_
wb:invoke_vid
FCg:_InternalEnumerator_1__ctor_m2202456613_AdjustorThunk
QVn:__ZNK30SymmetricTransform_t380259184311get__rng_11Ev
Lb:invoke_vii
$bc:__ZNK12ImageFilters8DoRenderER17ShaderPassContextP13RenderTextureS3_RKNSt3__26vectorI11ImageFilterNS4_9allocatorIS6_EEEE
YHi:__ZNK22RSAManaged_t17570938208get_e_13Ev
nPn:__ZNK23DragHandler_t418772403013get_source_13Ev
B8m:_GUIContent_set_text_m607297463
kLa:__ZN12TLSAllocatorI14StackAllocatorE16ThreadInitializeEP13BaseAllocator
Jfl:__Z82RuntimeInvoker_Boolean_t97287965_SByte_t1669577662_RuntimeObject_SByte_t1669577662PFvvEPK10MethodInfoPvPS4_
Ezb:__ZN9GfxDevice32UpdateStereoViewProjectionMatrixE21MonoOrStereoscopicEye
rkb:__ZN12InputManager23VirtualRedirectTransferER18StreamedBinaryRead
wlp:__ZN6il2cpp5utils13dynamic_arrayIPNS_2os6ThreadELj4EE9owns_dataEv
ZAi:__ZNK21Hashtable_t185388976618get_comparerRef_10Ev
Naa:__Z29GetCloudWebServicesModuleSpecv
jTd:__Z41CanvasRenderer_CUSTOM_DisableRectClippingP12Il2CppObject
lHj:_MonoType_GetConstructorImpl_m441167626
ynp:__ZN6il2cpp6icalls8mscorlib6System13GlobalizationL24string_invariant_compareEP12Il2CppStringiiS5_iii
jIh:__Z39UnityEvent_1_RemoveListener_m1448056678P24UnityEvent_1_t2052235288P25UnityAction_1_t1755411925PK10MethodInfo
WBn:__ZN23GenericVirtFuncInvoker1Ib25RaycastResult_t3360306849E6InvokeEPK10MethodInfoP12Il2CppObjectS0_
$Am:__ZN19Queue_1_t120077810611set__head_1Ei
$Fg:__ZNK31InternalEnumerator_1_t8185070639get_idx_1Ev
WEm:_Collection_1_IsFixedSize_m3709118201_gshared
Qxb:__ZN25SingleBlockMemoryFileDataD0Ev
HV:__ZNSt3__26vectorI14ConstantStringNS_9allocatorIS1_EEE6assignINS_11__wrap_iterIPS1_EEEENS_9enable_ifIXaasr21__is_forward_iteratorIT_EE5valuesr16is_constructibleIS1_NS_15iterator_traitsISA_E9referenceEEE5valueEvE4typeESA_SA_
aWm:_ReadOnlyCollection_1_CopyTo_m586367390_gshared
g8:__ZN11UnityEngine15CloudWebService16SessionContainer21ConvertFromFolderTimeERKN4core12basic_stringIcNS2_20StringStorageDefaultIcEEEEPjPt
kfd:__Z18RegisterUnityClassI27PerformanceReportingManagerEvPKc
e_j:__ZNK30DateTimeFormatInfo_t240585370124get_yearMonthPatterns_37Ev
VRb:__Z19TransferField_ArrayI18StreamedBinaryRead27Converter_SimpleNativeClassI17AnimationCurveTplIfEEEvRK23StaticTransferFieldInfoR31RuntimeSerializationCommandInfoRT0_
tIb:__ZNSt3__26vectorI8GUIStyle13stl_allocatorIS1_L18MemLabelIdentifier1ELi16EEE7reserveEj
Zhb:__ZN4Mesh23VirtualRedirectTransferER18StreamedBinaryRead
Lmk:_Array_InternalArray__ICollection_CopyTo_TisKeyframe_t4206410242_m2132255743_gshared
j7o:__ZN6il2cpp6icalls8mscorlib6System9Threading6Thread27GetSerializedCurrentCultureEP12Il2CppThread
_jk:__ZN21InterfaceFuncInvoker2IibbE6InvokeEjP11Il2CppClassP12Il2CppObjectbb
lQg:__ZN22Enumerator_t392300227024get_address_of_current_3Ev
I7l:_RijndaelTransform_SubByte_m3037693507
kLo:__ZNSt3__26__treeIP11Il2CppClassNS_4lessIS2_EENS_9allocatorIS2_EEE7destroyEPNS_11__tree_nodeIS2_PvEE
A5e:__ZL70Mesh_t3648964284_CustomAttributesCacheGenerator_Mesh__ctor_m2533762929P21CustomAttributesCache
XEe:__ZNK30Image_t2670269651_StaticFields18get_s_UVScratch_43Ev
eBc:__Z31CalculateHierarchyTransformType23TransformAccessReadOnly
vZ:__ZN4FMOD8ChannelI11setPositionEjj
UCh:_Input_INTERNAL_CALL_GetTouch_m3481893561
Upd:__ZN10Collider2D12SetPolygon2DEP9Polygon2D
kam:__ZN22Enumerator_t34586065847set_l_0EP18List_1_t1569362707
Etp:_GC_set_fl_marks
s6d:__ZNK25AxisEventData_t233124365237get_U3CmoveVectorU3Ek__BackingField_2Ev
Imb:__ZNSt3__26vectorIN30RuntimeInitializeOnLoadManager15ClassMethodInfoE13stl_allocatorIS2_L18MemLabelIdentifier13ELi16EEE7reserveEj
Hzb:__ZN9GfxDevice17SetStereoViewportE15StereoscopicEyeRK5RectTIiE
lva:__ZN17BaseObjectManager13StaticDestroyEPv
AHi:__ZN25RSAParameters_t17284066138set_DQ_4EP22ByteU5BU5D_t4116647657
Tca:__GLOBAL__sub_I_Runtime_Graphics_Mesh_1_cpp
lYf:_ClassInterfaceAttribute__ctor_m637338123
BUk:_UTF7Decoder_GetChars_m3413809261
cla:__ZN12CachedReader8InitReadER15CacheReaderBasejj
QHe:__ZL70RuntimeArray_CustomAttributesCacheGenerator_Array_get_Rank_m3448755881P21CustomAttributesCache
kxf:_EnumBuilder_GetEvent_m4074915332
E4e:__ZL97Material_t340375123_CustomAttributesCacheGenerator_Material_CreateWithString_m4283839020____self0P21CustomAttributesCache
Qao:_Vector3_get_forward_m3100859705
wX:__ZN4FMOD6Reverb13setPropertiesEPK22FMOD_REVERB_PROPERTIES
vFa:__ZN9Scripting11UnityEngine12Experimental9Rendering21CoreCameraValuesProxy12CleanupProxyEv
Ldc:__ZN9DepthPass13PrepareSubsetEjRK10RenderNodeifRK17ShaderReplaceData
cyk:_String_IndexOf_m3406607758
auo:__ZNK30dense_hashtable_const_iteratorINSt3__24pairIK10KeyWrapperIPK22Il2CppGenericParameterEP11Il2CppClassEES6_N6il2cpp5utils11PointerHashIS4_EEN14dense_hash_mapIS6_S9_SE_NS6_14EqualsComparerINS0_8equal_toIS5_EEEENS0_9allocatorISA_EEE9SelectKeyESJ_SL_EneERKSO_
G3n:__ZNK37WWWTranscoder_t272523958_StaticFields19get_urlEscapeChar_2Ev
w1h:__ZNK20Identity_t187327937130get__serverDynamicProperties_4Ev
Yvc:__ZN9ShaderLab20SerializedSubProgram16TextureParameter8TransferI14SafeBinaryReadEEvRT_
ZGi:__ZN34EncryptedPrivateKeyInfo_t86211683616set__algorithm_0EP8String_t
hJa:__ZN5Unity9Component8TransferI19StreamedBinaryWriteEEvRT_
_Di:_ASN1__ctor_m3517592395
Y3g:__ZN22InputField_t376291743131get_address_of_m_ContentType_22Ev
bwd:__ZN9Scripting11UnityEngine26ControllerColliderHitProxy12CleanupProxyEv
M2m:_SafeBag_get_BagOID_m2153399743
Oan:_TextEditor_MoveGraphicalLineStart_m3220976677
MOc:__Z35SetMeshComponentFromArrayFromScriptR4Mesh30InternalScriptingShaderChannel34InternalScriptingVertexChannelTypei17ScriptingArrayPtri
BDb:__Z22GetRenderTextureFormat14GraphicsFormat
$bh:__ZN38LayoutUtility_t2745813735_StaticFields26set_U3CU3Ef__amU24cache1_1EP17Func_2_t235587086
nRh:__ZN19HitInfo_t322960974012set_camera_1EP18Camera_t4157153871
o0f:__ZNK37WellKnownServiceTypeEntry_t256152718013get_obj_uri_3Ev
Xq:__ZN4core20StringStorageDefaultIcE6assignEPKcj
ypc:__ZN23TextureStreamingManager6UpdateEv
gOb:__Z15Transfer_StringI19StreamedBinaryWriteLb0EEvRK29SerializationCommandArgumentsR31RuntimeSerializationCommandInfo
nDi:_BigInteger_ModPow_m3776562770
vhg:_KeyedHashAlgorithm_get_Key_m1843505301
nhp:__ZN15dense_hashtableINSt3__24pairIK10KeyWrapperIP12Il2CppObjectEN6il2cpp2gc9CachedCCWEEES5_NS7_5utils11PointerHashIS3_EEN14dense_hash_mapIS5_S9_SD_NS5_14EqualsComparerINS0_8equal_toIS4_EEEENS0_9allocatorISA_EEE9SelectKeyESI_SK_E3endEv
YDa:__ZN9Scripting11UnityEngine9Playables22PlayableBehaviourProxy9InitProxyEv
Wyj:__ZN46NumberFormatter_t1182924621_ThreadStaticFields28set_threadNumberFormatter_25EP27NumberFormatter_t1182924621
RTi:_RecordProtocol_ProcessChangeCipherSpec_m15839975
zwi:_ArrayList_IndexOf_m305368842
gBn:_Predicate_1_EndInvoke_m3675319632_gshared
Jxm:_List_1_Add_m2996644200_gshared
Inc:__ZN6Camera6SetFarEf
n1f:_FormatterConverter_ToBoolean_m1680758923
mQc:__ZNK17AnimationCurveTplI11QuaternionfE13EvaluateClampEfPNS1_5CacheE
Aya:__ZN6prcoreL12RemapGenericI17TexFormatABGR888817TexFormatARGB8888EEvPKNS_9InnerInfoE
JLa:__ZN11GameManager17MainThreadCleanupEv
wZi:_Stack_get_Count_m2258661097
vOm:_ReadOnlyCollection_1__ctor_m1345363288_gshared
IUd:__Z50Register_UnityEngine_UISystemProfilerApi_EndSamplev
$hp:__ZN6il2cpp2vm27StacktraceSentryMethodStackC2Ev
gRc:__ZN19RuntimeSceneManager32LoadSceneAsyncByNameOrBuildIndexERKN4core12basic_stringIcNS0_20StringStorageDefaultIcEEEEi16SceneLoadingModeb
GNk:__ZNK22DSAManaged_t280026018219get_KeyGenerated_14Ev
k_f:__ZN21InterfaceFuncInvoker0IP12MethodBase_tE6InvokeEjP11Il2CppClassP12Il2CppObject
MGg:_InternalEnumerator_1_System_Collections_IEnumerator_Reset_m1775752715_AdjustorThunk
tb:invoke_vffff
dvo:__ZL19GetEncodedIndexTypej
O3i:_Convert_ToSingle_m2891972375
P1e:__ZL91Application_t1852185770_CustomAttributesCacheGenerator_Application_get_isPlaying_m100394690P21CustomAttributesCache
SJg:__Z41InternalEnumerator_1_MoveNext_m3686444574P31InternalEnumerator_1_t669594426PK10MethodInfo
czm:_List_1_GetEnumerator_m707038700_gshared
z_h:_ConfigHandler_OnProcessingInstruction_m4212209262
Opd:__ZN10Collider2D12AddToManagerEv
Msm:_List_1_Reverse_m3290386475_gshared
r4f:_SerializationCallbacks_GetSerializationCallbacks_m2939476649
sEb:__ZNSt3__26vectorIN20GpuProgramParameters19AtomicCounterBufferENS_9allocatorIS2_EEE21__push_back_slow_pathIRKS2_EEvOT_
MId:_UNITY_tt_slot_init
Z8b:__ZZ23InitPlayerLoopCallbacksvEN41PostLateUpdateUpdateResolutionRegistrator7ForwardEv
dYg:_KeyCollection_GetEnumerator_m1168803204_gshared
XSb:__Z25scripting_array_class_get17ScriptingClassPtrj
l8c:__ZL22Transfer_ManagedObjectI9JSONWriteLb1EEvRK29SerializationCommandArgumentsR31RuntimeSerializationCommandInfo
X1:__ZNK10SampleClip22GetTypeVirtualInternalEv
BAb:__ZN9GfxDevice20DestroyRenderSurfaceER12ObjectHandleI17RenderSurface_TagP17RenderSurfaceBaseE
ejh:__ZN22ScrollRect_t413785581413set_m_Rect_35EP25RectTransform_t3704657025
Pp:__ZN9Scripting11UnityEngine2AI12NavMeshProxy12CleanupProxyEv
xBc:__ZL24PrepareSpriteRenderNodesILb1EEvR35RenderNodeQueuePrepareThreadContext
TBj:_Int32_System_IConvertible_ToInt32_m265310525_AdjustorThunk
fri:_Array_slow_swapper_m4116724811
ymc:__ZN12_GLOBAL__N_15qAsinEff
vxh:_Display__ctor_m3105658851
zWi:_HashValues_get_IsSynchronized_m3461082747
jsg:_InternalEnumerator_1_System_Collections_IEnumerator_get_Current_m2629988057_AdjustorThunk
lLa:__ZN12TLSAllocatorI14StackAllocatorE13ThreadCleanupEv
MSl:_Dictionary_2_get_Item_m2136868513_gshared
gfb:__ZN14SafeBinaryRead21TransferSTLStyleArrayI13dynamic_arrayI8Vector4fLj0EEEEvRT_17TransferMetaFlags
FZ:__Z18GetAudioManagerPtrv
F9j:__ZNK24StreamReader_t400993589917get_buffer_size_5Ev
MNi:_Context_get_HandshakeMessages_m3655705111
Mpp:__ZThn4_N6il2cpp2vm13ComObjectBase16MarshalInterfaceEP13Il2CppIStreamRK10Il2CppGuidPvjS7_j
wXi:_Queue_Clone_m178259971
Stc:__Z27FindActiveTransformWithPathPKc
VSm:_ReadOnlyCollection_1_System_Collections_IList_Remove_m4169110229_gshared
H2k:_UInt16_ToString_m3020002356
vbh:_LayoutRebuilder_LayoutComplete_m68578143
nto:_RequiredByNativeCodeAttribute__ctor_m119855101
_Na:__ZN12BaseRendererD0Ev
zMf:__ZN30MarshalAsAttribute_t352257197815set_SizeConst_5Ei
qsc:__Z29StdTemplateConversionFunctionIbyEbPvR14SafeBinaryRead
v7l:_RijndaelManaged_GenerateKey_m1736287430
ufj:__ZNK26ListDictionary_t162449231011get_count_0Ev
xoe:__Z25Il2CppCodeGenWriteBarrierI24Comparison_1_t1896830045EvPPT_S2_
Qvk:__ZNK33Encoding_t1523322056_StaticFields22get_unicodeEncoding_22Ev
_bo:_WaitForSeconds_t1699091251_marshal_pinvoke
rmf:__ZL90PointerEventData_t3807901092_CustomAttributesCacheGenerator_U3ClastPressU3Ek__BackingFieldP21CustomAttributesCache
_mk:_SHA1Internal_Initialize_m499810128
Kxm:__ZN17List_1_t49613638311set__size_2Ei
vDh:__ZNK17Logger_t27403245540get_U3CfilterLogTypeU3Ek__BackingField_2Ev
Qfc:__ZNK6Camera7GetNearEv
Fbj:__ZN22StackFrame_t321725305914set_ilOffset_1Ei
Ayf:_GenericTypeParameterBuilder_GetConstructorImpl_m863833310
ssp:_GC_size
RWg:_Enumerator_get_Current_m3687673883_AdjustorThunk
vtb:__ZN17FileSystemHandler11SetReadOnlyER13FileEntryDatab
W3b:__ZN7ApiGLES11UnmapBufferEjN2gl12BufferTargetE
Eqp:__ZN6il2cpp5utilsL24Utf32CharToSurrogatePairEjRA2_Ds
M8a:__Z25GetNextAllowedTextureSizeib13TextureFormat
UVb:__ZN20LocalFileSystemWebGL4CopyER13FileEntryDataS1_
_Wm:__ZNK28SslHandshakeHash_t210758177218get_innerPadSHA_10Ev
QBa:__ZL68__ManagedRegistrationHelperFunction_UnitySynchronizationContextProxyPv
uba:__ZN19CloudServiceHandler6RetainEv
wBp:__ZN6il2cpp2os9Semaphore4WaitEb
Ngd:__ZN15b2FrictionJointD0Ev
pPm:_ReadOnlyCollection_1_System_Collections_IList_IndexOf_m198887188_gshared
Jmk:_Array_InternalArray__ICollection_CopyTo_TisRaycastResult_t3360306849_m4097636815_gshared
ZKl:_Component_GetComponent_TisRuntimeObject_m2906321015_gshared
ssl:__Z71RuntimeInvoker_Vector2_t2156229523_Vector2_t2156229523_Rect_t2360479859PFvvEPK10MethodInfoPvPS4_
M3c:__Z36Event_CUSTOM_Internal_SetNativeEventPv
BTk:_UTF32Encoding_GetBytes_m3180303867
Wfo:__ZL25UnresolvedVirtualCall_185P12Il2CppObject22Navigation_t3049316579S1_PK10MethodInfo
NWc:__Z51GraphicsFormatUtility_CUSTOM_GetRenderTextureFormat14GraphicsFormat
Vxm:_List_1_CopyTo_m4034402519_gshared
Uim:_Enumerator_System_Collections_IEnumerator_Reset_m146364719_AdjustorThunk
aVl:__ZNK37Dictionary_2_t3274888882_StaticFields27get_U3CU3Ef__amU24cacheB_15Ev
Fqb:__Z34scripting_liveness_calculation_endPv
xui:_Char_GetDataTablePointers_m754571594
xlp:__ZN6il2cpp2os6ThreadC2Ev
Pzn:__Z25Func_2_Invoke_m3516477887P17Func_2_t764290984P12Il2CppObjectPK10MethodInfo
Ukg:_U3CGetEnumeratorU3Ec__Iterator0_System_Collections_Generic_IEnumeratorU3CTU3E_get_Current_m1566629109_gshared
hFc:__ZN28ReflectionProbeAnchorManager7CleanupEv
Poh:__Z54Component_GetComponent_TisImage_t2670269651_m980647750P21Component_t1923634451PK10MethodInfo
AUj:__ZNK36CompareInfo_t1092934962_StaticFields15get_collators_6Ev
M8i:_DateTimeOffset_get_UtcDateTime_m1021718282_AdjustorThunk
WTo:__ZN14dense_hash_mapI10KeyWrapperINSt3__24pairIPK12PropertyInfoP11Il2CppClassEEEj17ReflectionMapHashIS8_ENS9_14EqualsComparerINS1_8equal_toIS8_EEEENS1_9allocatorINS2_IKS9_jEEEEE6insertERKSI_
bRn:__ZNK16Music_t67460792112get_source_6Ev
efg:__ZNK24DESTransform_t408890549918get_keySchedule_16Ev
kde:__Z31UnityAction_1__ctor_m1370432988P25UnityAction_1_t1116627437P12Il2CppObjectiPK10MethodInfo
rPb:__ZL22Transfer_ManagedObjectI19StreamedBinaryWriteLb0EEvRK29SerializationCommandArgumentsR31RuntimeSerializationCommandInfo
Nx:__ZN21AnimationClipPlayable22ProcessAnimationNoClipEPK35AnimationPlayableEvaluationConstantPK32AnimationPlayableEvaluationInputP33AnimationPlayableEvaluationOutput
Wip:__ZNK6il2cpp2os10SocketImpl12GetLastErrorEv
Rej:_HybridDictionary_get_Count_m1166314536
U$m:_TlsStream_Write_m1412844442
P9c:__Z18Transfer_BlittableI8JSONReadLb0E8Vector3fEvRK29SerializationCommandArgumentsR31RuntimeSerializationCommandInfo
TH:__ZN13AnimationClip12Vector3Curve8TransferI14SafeBinaryReadEEvRT_
aCe:__ZNK27GridLayoutGroup_t304622046120get_m_StartCorner_12Ev
TEh:_Matrix4x4__ctor_m53065545_AdjustorThunk
A1o:__ZN6il2cpp2vm6Thread6DetachEP12Il2CppThread
W0m:_GeneralNames_get_DNSNames_m3788548987
Slm:_List_1_AddCollection_m2026039026_gshared
P8e:__ZL52Resources_t2942265397_CustomAttributesCacheGeneratorP21CustomAttributesCache
ELd:_Render_Single_Pass
R2f:__ZN25ObjectManager_t165306432529set__registeredObjectsCount_8Ei
sxe:__ZNK19FontData_t74662006915get_m_MinSize_4Ev
Y_n:__Z29Enumerator_Dispose_m536244888P22Enumerator_t2125101616PK10MethodInfo
V9h:__ZN32DictionaryEnumerator_t251672955220set__hashtableEnum_1EP12Il2CppObject
cqk:_SymmetricAlgorithm_get_IV_m1875559108
h5n:_AudioMixerPlayable_GetHandle_m57919556
Eag:_SerializationEntry_t648286436_marshal_pinvoke
mv:__ZN7mecanim8skeleton30SkeletonBuildReverseIndexArrayEPiPKiPKNS0_8SkeletonES6_
C1c:__Z19GetGUIBlendMaterialv
N_f:__ZN23ChannelData_t335362997222set__clientProviders_5EP21ArrayList_t2718874744
YEj:_Math_Round_m3018379666
Igl:__Z41RuntimeInvoker_Boolean_t97287965_IntPtr_tPFvvEPK10MethodInfoPvPS4_
Hmp:__ZN6il2cpp2os10ThreadImpl5SleepEjb
w_g:__ZN28GenericInterfaceFuncInvoker1IbbE6InvokeEPK10MethodInfoP12Il2CppObjectb
rPm:_ReadOnlyCollection_1_System_Collections_IList_Remove_m1965826685_gshared
rfo:__ZL25UnresolvedVirtualCall_154P12Il2CppObjectPK10MethodInfo
fnn:__ZN27MatchCollection_t139536372010set_list_1EP21ArrayList_t2718874744
Z9b:__ZN10GUITexture18AlignPointToDeviceERK8Vector2fRS0_
Shf:__ZL82LayoutCache_t78309876_CustomAttributesCacheGenerator_LayoutCache__ctor_m3885940174P21CustomAttributesCache
lSf:__ZN28GenericInterfaceFuncInvoker0IP12Il2CppObjectE6InvokeEPK10MethodInfoS1_
Hfk:_PlayableHandle_IsPlayableOfType_TisRuntimeObject_m503495943_AdjustorThunk
wQ:__ZN18AnimatorController23VirtualRedirectTransferER24GenerateTypeTreeTransfer
Nji:__ZNK29X501_t1758824425_StaticFields12get_title_11Ev
DPp:_glBindSampler__wrapper
bsg:_InternalEnumerator_1_System_Collections_IEnumerator_Reset_m4202665280_gshared
d8b:__ZNSt3__26vectorIN20ArchiveStorageHeader12StorageBlockE13stl_allocatorIS2_L18MemLabelIdentifier55ELi16EEE8__appendEj
Ci:_emscripten_set_mouseup_callback
oEh:_Mathf_Clamp_m3350697880
rCb:__ZN9GfxDevice27SetRandomWriteTargetTextureEi9TextureID
A2j:__ZN24BinaryReader_t242807729314set_m_stream_0EP18Stream_t1273022909
ASl:_Dictionary_2_System_Collections_Generic_ICollectionU3CSystem_Collections_Generic_KeyValuePairU3CTKeyU2CTValueU3EU3E_Contains_m3033743418_gshared
mUg:_Enumerator__ctor_m2243569349_gshared
Yfl:__Z165RuntimeInvoker_Void_t1185182177_UInt32U26_t3735378166_Int32_t2950945753_UInt32U26_t3735378166_Int32_t2950945753_Int32_t2950945753_Int32_t2950945753_Int32_t2950945753PFvvEPK10MethodInfoPvPS4_
sok:_SHA384Managed_processWord_m3832940157
xBk:_Encoding_get_DecoderFallback_m1525880676
DRe:__ZL59ITrackingHandler_t1244553475_CustomAttributesCacheGeneratorP21CustomAttributesCache
Rjo:_TextGenerator_Populate_Internal_Injected_m1708852755
yqn:_CompositeExpression__ctor_m2434860303
Rgg:_DSASignatureDeformatter__ctor_m2759753186
tuj:_X509ChainElementCollection_System_Collections_IEnumerable_GetEnumerator_m3829089536
UJm:_Collection_1_System_Collections_IEnumerable_GetEnumerator_m801406918_gshared
nNm:_Collection_1_System_Collections_ICollection_get_IsSynchronized_m3687268041_gshared
NVb:__ZNK18ScreenManagerWebGL8GetWidthEv
Ttg:_InternalEnumerator_1_Dispose_m3716424577_gshared
FPh:_ReflectionProbe_CallReflectionProbeEvent_m1520775591
pNl:__Z59Enumerator_System_Collections_IEnumerator_Reset_m4283504067P21Enumerator_t572278398PK10MethodInfo
rHo:__ZN6il2cpp2vm13MetadataCache33GetFieldDefaultValueDataFromIndexEi
cU:__ZN7mecanim5human21ComputeHierarchicMassEiPf
U1:__ZN10SampleClipD2Ev
Ekj:__ZNK26HttpWebRequest_t166943651514get_version_21Ev
pCn:_Predicate_1_Invoke_m2389850270_gshared
o6f:_SerializationObjectManager_RegisterObject_m951822324
$pb:__Z13GetGISettingsv
rGm:_Collection_1_RemoveAt_m1813368096_gshared
eba:__ZN11UnityEngine15CloudWebService20WebRequestRestClientC2Ev
lEd:_cff_cmap_unicode_init
dNd:__Z31Font_CUSTOM_Internal_CreateFontP12Il2CppObjectP12Il2CppString
$1b:__ZNSt3__214__split_bufferINS_4pairIj16TextureDimensionEERNS_9allocatorIS3_EEE9push_backEOS3_
Tna:__ZN14FileCacherRead13GetFileLengthEv
cGn:_UnityAction_1_EndInvoke_m542551745_gshared
OEh:__ZN21Matrix4x4_t181790184310set_m23_14Ef
pDm:_Collection_1_IsValidItem_m3080586124_gshared
Xff:__ZL64DownloadHandler_t2937767557_CustomAttributesCacheGenerator_m_PtrP21CustomAttributesCache
Zue:_DropdownItem_set_text_m3702712387
yoe:_ClipperRegistry_Register_m2407166513
us:__ZL22GetComponentsInParentsRK10GameObjectPFbRKN5Unity9ComponentEERN4core8hash_setIPS3_NS8_4hashISA_EENSt3__28equal_toISA_EEEE
dVo:__ZN15dense_hashtableINSt3__24pairIK10KeyWrapperINS1_IPK9EventInfoP11Il2CppClassEEEjEES9_17ReflectionMapHashIS8_EN14dense_hash_mapIS9_jSD_NS9_14EqualsComparerINS0_8equal_toIS8_EEEENS0_9allocatorISB_EEE9SelectKeyESI_SK_E12resize_deltaEjj
kPf:_MonoCMethod_Invoke_m2700167622
EWi:_KeyMarker__cctor_m2590194914
bzp:__ZN6il2cpp8metadata14Il2CppTypeHash4HashEPK10Il2CppType
nAp:__ZN6il2cpp2os13SemaphoreImplC2Eii
OMl:__ZN22Enumerator_t201358790621set_host_enumerator_0E22Enumerator_t3398877024
J5k:_Version__ctor_m872301635
pFg:__Z40InternalEnumerator_1_Dispose_m3517794894P32InternalEnumerator_1_t4267370966PK10MethodInfo
aji:__ZN26X509Certificate_t48924302418set_m_issuername_5EP8String_t
trd:__ZNSt3__26vectorIN10ClipperLib8IntPointENS_9allocatorIS2_EEE21__push_back_slow_pathIS2_EEvOT_
k6c:__ZL58__ManagedRegistrationHelperFunction_NativeInputSystemProxyPv
Tjo:_TextGenerator_PopulateWithErrors_m1222498386
pWo:__ZN6il2cpp2vm10Reflection27GetCustomAttributesCacheForEPK10MethodInfo
lR:__ZN7mecanim12statemachine13StateConstant8TransferI14SafeBinaryReadEEvRT_
Kmm:_List_1_System_Collections_Generic_ICollectionU3CTU3E_get_IsReadOnly_m507350231_gshared
t1b:__ZN11ContextGLES6CreateEi
Mko:_WillRenderCanvases_BeginInvoke_m1804779886
gee:__ZN25RaycastResult_t336030684911set_index_3Ef
aul:__Z68RuntimeInvoker_Boolean_t97287965_RuntimeObject_ObjectU26_t2146539884PFvvEPK10MethodInfoPvPS4_
q8g:_U3CMouseDragOutsideRectU3Ec__Iterator1_Dispose_m267465418
V9i:_Decimal_CompareTo_m3502307243_AdjustorThunk
tTn:_U3CGetScoresU3Ec__Iterator3_Dispose_m1881923159
Pog:_InternalEnumerator_1_System_Collections_IEnumerator_Reset_m3677481164_gshared
Pjh:__ZNK22ScrollRect_t413785581417get_m_Velocity_25Ev
FLa:__ZN14StackAllocator16FrameMaintenanceEb
Rab:__Z18ReadStringFromFilePN4core17string_with_labelILi1EEERKNS_12basic_stringIcNS_20StringStorageDefaultIcEEEE
I8c:__ZN9JSONWrite8TransferI13dynamic_arrayIjLj0EEEEvRT_PKc17TransferMetaFlags
Boa:__ZNK10GameObject20QueryComponentByTypeEPKN5Unity4TypeE
p9i:_Decimal_System_IConvertible_ToInt32_m1488426794_AdjustorThunk
xPa:__ZN6Camera8TransferI19StreamedBinaryWriteEEvRT_
IFj:_MonoCustomAttrs_IsUserCattrProvider_m2878058089
Lpf:__ZL71InputField_t3762917431_CustomAttributesCacheGenerator_m_HideMobileInputP21CustomAttributesCache
P4n:_UploadHandler_Finalize_m3322774190
YEo:__ZNK14dense_hash_setI10KeyWrapperIPK19Il2CppGenericMethodEN6il2cpp8metadata23Il2CppGenericMethodHashENS4_14EqualsComparerINS6_26Il2CppGenericMethodCompareEEENSt3__29allocatorIS4_EEE3endEv
CN:__ZN25RuntimeAnimatorController23DestroyCustomControllerEPN7mecanim9animation18ControllerConstantER20RuntimeBaseAllocator
Z7a:__ZN11TextureData5ResetEv
RVc:__Z53Register_UnityEngine_GameObject_get_activeInHierarchyv
Gqk:_ToBase64Transform_InternalTransformFinalBlock_m360524956
Fni:_ActivationContext_Dispose_m2038725770
eKb:__Z35Transfer_Blittable_FixedBufferFieldI17RemapPPtrTransferiEvRK29SerializationCommandArgumentsR31RuntimeSerializationCommandInfo
Kja:__ZL30InitializeCoreScriptingClassesv
HTm:_ReadOnlyCollection_1_Contains_m1699971074_gshared
GBg:_InternalEnumerator_1_Dispose_m630370856_AdjustorThunk
gj:_glBlitFramebuffer
ywb:__ZN17ArchiveFileSystem5TouchER13FileEntryData
zRo:__ZN6il2cpp2vm10Reflection15GetMethodObjectEPK10MethodInfoP11Il2CppClass
mYg:_KeyCollection_System_Collections_Generic_IEnumerableU3CTKeyU3E_GetEnumerator_m818204647_gshared
$Jb:__Z35Transfer_Blittable_SingleValueFieldI14SafeBinaryReadhEvRT_R17GeneralMonoObjectRK23StaticTransferFieldInfo
hhi:_Buffer_ByteLengthInternal_m1388208719
Njo:__ZN25TextGenerator_t321186386620set_m_LastSettings_2E34TextGenerationSettings_t1351628751
PKh:__ZNK26PlayableOutput_t317989410514get_m_Handle_0Ev
j5a:__ZNK12CubemapArray22GetTypeVirtualInternalEv
W1m:__ZNK31PKCS12_t4101533061_StaticFields29get_U3CU3Ef__switchU24map6_13Ev
vo:FUNCTION_TABLE_vif
to:FUNCTION_TABLE_vid
B2h:_ContextAttribute_GetPropertiesForNewContext_m1632930262
Io:FUNCTION_TABLE_vii
Qqb:__Z40scripting_liveness_calculation_from_root18ScriptingObjectPtrPv
Hof:__ZL67OptionDataList_t1438173104_CustomAttributesCacheGenerator_m_OptionsP21CustomAttributesCache
Nff:__ZL102UnityWebRequest_t463507806_CustomAttributesCacheGenerator_UnityWebRequest_get_isModifiable_m4181352937P21CustomAttributesCache
Xqk:__ZN29TripleDESTransform_t9641690609set_E2_16EP24DESTransform_t4088905499
HQe:__ZL65IContributeDynamicSink_t2255997386_CustomAttributesCacheGeneratorP21CustomAttributesCache
uCj:_Int32_TryParse_m135955795
mSc:__ZN17Gradient_Bindings4InitEv
n_d:__ZN11UnityEngine9Analytics18ConnectSessionInfoC2Ev
x$a:__ZN7Texture23VirtualRedirectTransferER24GenerateTypeTreeTransfer
hzd:_UNITY_FT_Set_Transform
vGc:__ZNK32RendererMaterialAnimationBinding12SetPPtrValueERKN11UnityEngine9Animation10BoundCurveEi
wgb:__ZN14SpriteRenderer16CheckConsistencyEv
Oxh:__ZNK32Display_t1387065949_StaticFields23get_onDisplaysUpdated_3Ev
gPp:_glDeleteFramebuffers__wrapper
iCm:_Collection_1_System_Collections_IList_get_IsFixedSize_m2620019318_gshared
Bbl:__Z220RuntimeInvoker_Boolean_t97287965_RuntimeObject_Int32U26_t1369213839_Int32_t2950945753_Int32_t2950945753_Int32_t2950945753_RuntimeObject_SByte_t1669577662_Int32_t2950945753_ContractionU26_t961830454_ContextU26_t3937453398PFvvEPK10MethodInfoPvPS4_
cgn:__ZNK26GUILayoutGroup_t215778969517get_isVertical_11Ev
dy:__ZN7mecanim6memory13HeapAllocator8AllocateEjj
I8e:__ZL73Rect_t2360479859_CustomAttributesCacheGenerator_Rect_get_zero_m4034156123P21CustomAttributesCache
zBi:__ZN16VirtFuncInvoker2IbP12Il2CppObjectS1_E6InvokeEjS1_S1_S1_
dWk:__ZN28ExecutionContext_t17483726279set__sc_0EP27SecurityContext_t2435442044
MLe:__ZL78TextInfo_t3810425522_CustomAttributesCacheGenerator_TextInfo_Clone_m3838580862P21CustomAttributesCache
wCd:_cff_blend_build_vector
Jmj:_WebHeaderCollection_ToString_m1263025316
SAg:_InternalEnumerator_1_MoveNext_m1015797184_gshared
uel:__Z91RuntimeInvoker_Void_t1185182177_RuntimeObject_RuntimeObject_RuntimeObject_Int32_t2950945753PFvvEPK10MethodInfoPvPS4_
hSf:_GetterAdapter_Invoke_m3767885970
Sqm:_List_1__ctor_m747758800_gshared
W9f:_InstanceComparer__ctor_m2655670473
zCf:_MethodBuilder_get_ReflectedType_m3038768129
j_c:__Z44Register_UnityEngine_RenderTexture_set_widthv
NAk:_String_CreateString_m2818852475
Zxn:__Z31Comparison_1_Invoke_m1103021447P24Comparison_1_t237543247119Color32_t2600501292S1_PK10MethodInfo
gdm:_Enumerator_get_Current_m335492761_AdjustorThunk
lKc:__Z22GenerateBoxTilingShapeP22GenerateTilingAreaInfo
cdb:__ZN28EnlightenRendererInformation8TransferI14SafeBinaryReadEEvRT_
oZm:__ZNK25SslStreamBase_t166741340716get_ownsStream_7Ev
Zko:_CanvasRenderer_get_hasMoved_m2236392341
bjb:__ZN14SharedMeshData14GetBoneWeightsEi
VHh:_MessageEvent__ctor_m1231650089
htb:__ZNK15Lz4Decompressor16DecompressMemoryEPKvPjPvS2_
eHd:_UNITY_tt_face_build_cmaps
RRo:__ZN15dense_hashtableINSt3__24pairIK10KeyWrapperINS1_IPK10MethodInfoP11Il2CppClassEEEjEES9_17ReflectionMapHashIS8_EN14dense_hash_mapIS9_jSD_NS9_14EqualsComparerINS0_8equal_toIS8_EEEENS0_9allocatorISB_EEE9SelectKeyESI_SK_E13clear_deletedER30dense_hashtable_const_iteratorISB_S9_SD_SM_SI_SK_E
xU:__ZN21AnimationHandleBinderC2Ev
fFj:_MemberAccessException__ctor_m3713703094
au:__ZN9Scripting11UnityEngine10Animations21ConstraintSourceProxy9InitProxyEv
sOf:_MethodBase_get_ContainsGenericParameters_m2144492325
RMe:__ZL117GenericTypeParameterBuilder_t1988827940_CustomAttributesCacheGenerator_GenericTypeParameterBuilder_Equals_m3260957994P21CustomAttributesCache
Kje:__ZNK33StandaloneInputModule_t276046910133get_m_CurrentFocusedGameObject_21Ev
WJc:__ZN4core8hash_mapINS_12basic_stringIcNS_20StringStorageDefaultIcEEEE10vector_setI4PPtrI11SpriteAtlasENSt3__24lessIS8_EE13stl_allocatorIS8_L18MemLabelIdentifier81ELi16EEENS_4hashIS4_EENS9_8equal_toIS4_EEEixERKS4_
mtd:__ZN11Rigidbody2D8TransferI24GenerateTypeTreeTransferEEvRT_
c6k:_Version_op_Equality_m3804852517
eok:__ZN23SHA384Managed_t741585759set_H6_13Ey
j2a:__Z35UnityPropertySheet_MakeSortedColorsRKNSt3__23mapIN9ShaderLab16FastPropertyNameE10ColorRGBAfNS_4lessIS2_EENS_9allocatorINS_4pairIKS2_S3_EEEEEER10vector_mapIS2_S3_S5_NS6_INS7_IS2_S3_EEEEE
Xn:FUNCTION_TABLE_iiiiiiffiiiiiiiiiffffiii
BGd:_UNITY_tt_face_load_os2
fUk:__ZNK24UTF7Encoding_t264410847921get_allowOptionals_28Ev
PCl:_Array_InternalArray__ICollection_CopyTo_TisUICharInfo_t75501106_m4268526610_gshared
lKn:__ZN35ListPool_1_t3185818714_StaticFields26set_U3CU3Ef__mgU24cache0_1EP25UnityAction_1_t4213140406
HRj:__ZN24StreamReader_t400993589914set_encoding_7EP20Encoding_t1523322056
pJ:__ZN18StreamedBinaryRead21TransferSTLStyleArrayI22OffsetPtrArrayTransferIN7mecanim9animation10ValueDeltaEEEEvRT_17TransferMetaFlags
Mob:__ZN11TimeManager21DidFinishLoadingSceneEv
vJb:__Z29Transfer_Blittable_ArrayFieldI14SafeBinaryRead8Vector4fEvRT_R9ArrayInfoRK23StaticTransferFieldInfo
wjp:__GLOBAL__sub_I_BoehmGC_cpp
BRo:__ZN6il2cpp2gc19AppendOnlyGCHashMapINSt3__24pairIPK10MethodInfoP11Il2CppClassEEP22Il2CppReflectionMethod17ReflectionMapHashIS9_ENS2_8equal_toIS9_EEE3AddERKS9_SB_
xD:__ZN11UnityEngine9Animation32CreateAnimatorGenericBindingsOptERKNS0_20AnimationSetBindingsER9TransformPKN7mecanim9animation14AvatarConstantEPKNS0_21AvatarBindingConstantEbR20RuntimeBaseAllocatorR8Animator
CP:__ZNK26AnimatorOverrideController22GetTypeVirtualInternalEv
MMj:_Default_check_arguments_m3882727959
lOb:__Z18Transfer_BlittableI19StreamedBinaryWriteLb1EN4math12int3_storageEEvRK29SerializationCommandArgumentsR31RuntimeSerializationCommandInfo
mBi:_Hashtable_get_IsSynchronized_m1426775249
Qlh:__ZN21Scrollbar_t149444723318set_m_Direction_19Ei
$Uk:_UTF8Encoding_GetMaxCharCount_m3762459613
mbg:_StreamingContext_get_Context_m541495931_AdjustorThunk
cCf:_ModuleBuilder_RegisterToken_m4166846047
kkp:__ZNSt3__218uninitialized_fillIPNS_4pairIK10KeyWrapperIPcES3_EES6_EEvT_S8_RKT0_
Q8b:__ZZ23InitPlayerLoopCallbacksvEN51PostLateUpdateUpdateCustomRenderTexturesRegistrator7ForwardEv
$ro:__ZN43AssetFileNameExtensionAttribute_t136124116442set_U3CotherExtensionsU3Ek__BackingField_1EP12Il2CppObject
_fh:_RawImage_OnPopulateMesh_m1115858855
fdl:__Z74RuntimeInvoker_MonoFileType_t221779374_IntPtr_t_MonoIOErrorU26_t1548853198PFvvEPK10MethodInfoPvPS4_
jIo:__ZN6il2cpp2vm13MetadataCache25GetStringLiteralFromIndexEi
voi:_Hashtable_ToPrime_m33531354
my:__ZN7mecanim9animation12EvaluateClipEPKNS0_4ClipEPKNS0_9ClipInputEPNS0_10ClipMemoryEPNS0_10ClipOutputE
Z8m:__ZN22TextEditor_t275985536636get_address_of_graphicalCursorPos_13Ev
_Aa:__ZL54__ManagedRegistrationHelperFunction_PlayableGraphProxyPv
o5:__ZN11AudioModule6UpdateEv
XXg:_KeyCollection_System_Collections_Generic_ICollectionU3CTKeyU3E_Remove_m2555909644_gshared
ppp:__ZN4utf88internal19is_code_point_validIjEEbT_
lBd:__ZN20TextRenderingPrivate7GUIText18GetFontAndMaterialEv
$Nm:_ReadOnlyCollection_1_System_Collections_ICollection_CopyTo_m1552247304_gshared
Tjp:__ZN15dense_hashtableINSt3__24pairIK10KeyWrapperIPcES3_EES4_N6il2cpp5utils15PassThroughHashIS3_EEN14dense_hash_mapIS4_S3_SA_NS4_14EqualsComparerINS0_8equal_toIS3_EEEENS0_9allocatorIS6_EEE9SelectKeyESF_SH_E5clearEv
Mdi:__ZN31SoapMethodAttribute_t193500931020set__returnElement_5EP8String_t
ejk:_Array_InternalArray__IndexOf_TisInt32_t2950945753_m738632427_gshared
k3h:__ZN36SynchronizationAttribute_t394666125418set__ownerThread_5EP18Thread_t2300836069
fV:__ZL65__ManagedRegistrationHelperFunction_MeshReconstructionServerProxyPv
jem:_Enumerator_VerifyState_m2621680056_AdjustorThunk
RJo:__ZNSt3__214__split_bufferI6pollfdRNS_9allocatorIS1_EEEC2EjjS4_
sVh:_CrossAppDomainData_get_DomainID_m3516796532
sPd:__ZN2UI6Canvas23VirtualRedirectTransferER18StreamedBinaryRead
O7j:_MemoryStream_set_Position_m3169779190
Amc:__ZN13RenderManager29SetCurrentCameraAndStackStateEP6CameraP25CameraStackRenderingState
Kbe:_ExecuteEvents_get_scrollHandler_m2659345019
eMa:__ZNSt3__26__treeINS_12__value_typeIjN4core12basic_stringIcNS2_20StringStorageDefaultIcEEEEEENS_19__map_value_compareIjS7_NS_4lessIjEELb1EEE13stl_allocatorIS7_L18MemLabelIdentifier7ELi16EEE7destroyEPNS_11__tree_nodeIS7_PvEE
a4g:__ZN22InputField_t376291743128get_address_of_m_LineType_26Ev
Aeo:__ZL25UnresolvedVirtualCall_109P12Il2CppObject19Decimal_t2948259380PK10MethodInfo
b7f:__ZNK31OpCodes_t126150456_StaticFields14get_Ldflda_121Ev
nd:_JS_WebRequest_Release
iaf:__ZL85Time_t2420636075_CustomAttributesCacheGenerator_Time_t2420636075____time_PropertyInfoP21CustomAttributesCache
_9d:__ZN23EventSystem_t100366658826set_m_CurrentInputModule_5EP27BaseInputModule_t2019268878
S8:__ZN11UnityEngine15CloudWebService14DataErrorEventD0Ev
l9o:__ZN6il2cpp6icalls8mscorlib6System4Type20internal_from_handleEi
jYk:__ZNK18Thread_t230083606924get_in_currentculture_50Ev
l0e:__ZL72RequiredByNativeCodeAttribute_t4130846357_CustomAttributesCacheGeneratorP21CustomAttributesCache
UTi:__ZNK39RecordProtocol_t3759049701_StaticFields23get_record_processing_0Ev
eMl:__ZN23GenericVirtFuncInvoker1I26KeyValuePair_2_t1377593753iE6InvokeEPK10MethodInfoP12Il2CppObjecti
S0h:_Context__ctor_m254302079
o5o:__ZN6il2cpp2vm9Exception25RaiseOutOfMemoryExceptionERKNS_5utils10StringViewIDsEEP19Il2CppSequencePoint
wRk:_KeyGeneratedEventHandler_EndInvoke_m3057317531
Ldb:__ZN19ShaderPropertySheet16SetArrayPropertyEN9ShaderLab16FastPropertyNameENS_12PropertyTypeEPKvj
Lmh:_Selectable_FindSelectable_m2348614027
BCk:_DecoderReplacementFallbackBuffer_GetNextChar_m2858228391
oab:__ZN23TextureStreamingManager17SetFeatureEnabledEb
pre:_FloatTween_get_duration_m1227071020
Hgp:__ZN15dense_hashtableINSt3__24pairIK10KeyWrapperIP12Il2CppObjectEN6il2cpp2gc9CachedCCWEEES5_NS7_5utils11PointerHashIS3_EEN14dense_hash_mapIS5_S9_SD_NS5_14EqualsComparerINS0_8equal_toIS4_EEEENS0_9allocatorISA_EEE9SelectKeyESI_SK_E16reset_thresholdsEv
w3f:__ZN18VirtActionInvoker3IxixE6InvokeEjP12Il2CppObjectxix
Owe:_DropdownItem_OnPointerEnter_m1492957598
cyd:__ZN13dynamic_arrayIN20TextRenderingPrivate8FontImpl13CharacterInfoELj0EE18resize_initializedEj12ResizePolicy
Xvf:__ZL121U3CUpdateCardsU3Ec__Iterator0_t1913099289_CustomAttributesCacheGenerator_U3CUpdateCardsU3Ec__Iterator0_Dispose_m340820223P21CustomAttributesCache
wfj:__ZN25DictionaryNode_t41771946511set_value_1EP12Il2CppObject
Ccl:__Z91RuntimeInvoker_Void_t1185182177_Int32U26_t1369213839_Int32U26_t1369213839_Int32_t2950945753PFvvEPK10MethodInfoPvPS4_
ato:_StaticAccessorAttribute_set_Type_m2333258271
DPe:__ZL91SafeHandle_t3273388951_CustomAttributesCacheGenerator_SafeHandle_DangerousAddRef_m614714386P21CustomAttributesCache
Zde:__ZN30RaycastHit2DU5BU5D_t428665156021GetAddressAtUncheckedEj
qXd:__ZN11UnityEngine15PlatformWrapper16GetApplicationIdEv
p7o:__ZN6il2cpp6icalls8mscorlib6System2IO6MonoIO16get_ConsoleErrorEv
TId:_UNITY_TT_Get_VMetrics
U5h:__ZN23AsyncResult_t419430957219set_call_message_12EP29MonoMethodMessage_t2807636944
aml:__Z69RuntimeInvoker_Color_t2555686324_Color_t2555686324_Single_t1397266774PFvvEPK10MethodInfoPvPS4_
RYn:_AnalyticsEventTracker_OnDestroy_m3032713758
j_l:_EqualityComparer_1__ctor_m2283513024_gshared
FKn:__ZN33ListPool_1_t53650832_StaticFields26set_U3CU3Ef__mgU24cache0_1EP25UnityAction_1_t1080972524
Zxi:_SimpleEnumerator__cctor_m2844299657
tEj:_LocalDataStoreSlot__ctor_m4104083971
rHl:_Array_qsort_TisVector3_t3722313464_m4117329442_gshared
nTm:_ReadOnlyCollection_1_System_Collections_Generic_IListU3CTU3E_RemoveAt_m3849058645_gshared
h6n:_AudioSource_ReadExtensionName_m725112169
O4m:_X509CertificateEnumerator_System_Collections_IEnumerator_Reset_m2039524926
Eqe:__ZN21ColorTween_t80961438029get_address_of_m_StartColor_1Ev
t8j:__ZN21MonoIOStat_t59253398710set_Name_0EP8String_t
dhc:__Z20SetupObjectLightmapsRK26SharedLightmapSettingsDataRK15LightmapIndicesR17ShaderPassContextb
Z$a:__ZN7Texture21GetMasterTextureLimitEv
teg:__ZN30SymmetricAlgorithm_t425422308720set_BlockSizeValue_0Ei
Ckb:__ZN13dynamic_arrayI9InputAxisLj0EE18resize_initializedEj12ResizePolicy
uoc:__Z12CanAddScriptR10GameObject17ScriptingClassPtrPS1_S2_
NZn:_FieldWithTarget_get_paramName_m3501478659
nam:__Z25Il2CppCodeGenWriteBarrierI18List_1_t1569362707EvPPT_S2_
orl:__Z103RuntimeInvoker_Boolean_t97287965_RuntimeObject_Vector2_t2156229523_RuntimeObject_Vector3U26_t3464235976PFvvEPK10MethodInfoPvPS4_
Xsg:__Z44InternalEnumerator_1_get_Current_m2128158355P32InternalEnumerator_1_t3855323497PK10MethodInfo
xgm:__Z59Enumerator_System_Collections_IEnumerator_Reset_m2355925297P22Enumerator_t3123848928PK10MethodInfo
Eia:__ZN9ShaderLabL25StaticInitializeShaderLabEPv
Q:Math_max
Q_h:__ZNK25ConfigHandler_t419243721620get_currentChannel_2Ev
AEa:__ZN9Scripting11UnityEngine8LODProxy9InitProxyEv
J8f:__ZNK23Int16U5BU5D_t368684017814GetAtUncheckedEj
MRh:_HitInfo_SendMessage_m1343099429_AdjustorThunk
I_a:__ZNK13RenderTexture16ExtractImageImplEP14ImageReference13ImageBlitModebi
u5m:__ZN21X509Store_t277741528310set__crl_3Eb
Vuh:__ZNK31Camera_t4157153871_StaticFields18get_onPostRender_6Ev
O3d:__Z64Register_UnityEngine_Networking_UnityWebRequest_get_isModifiablev
l7n:__Z26List_1_set_Item_m845928814P17List_1_t242016280iP32AudioSourceExtension_t3064908834PK10MethodInfo
Zwk:_Single_CompareTo_m2785801815_AdjustorThunk
Plp:__ZN6il2cpp2os6Thread16GetCurrentThreadEv
BJf:__ZN31OpCodes_t126150456_StaticFields17set_Stelem_R8_158E17OpCode_t123070264
n7d:__Z60Component_GetComponents_TisBaseInput_t3630163547_m2590144445P21Component_t1923634451PK10MethodInfo
UKl:_Array_InternalArray__get_Item_TisVector2_t2156229523_m2502961026_gshared
ZDl:_Array_InternalArray__Insert_TisUILineInfo_t4195266810_m3191124053_gshared
OJc:__ZN10GameObject13ComponentPair15SetComponentPtrEPN5Unity9ComponentE
F2n:_CertificateHandler_ValidateCertificateNative_m2315002656
chi:__ZNK22StrongName_t409384937715get_publicKey_1Ev
SLg:_InternalEnumerator_1_MoveNext_m2390704400_gshared
eof:__ZL75U3COnFinishSubmitU3Ec__Iterator0_t3413438900_CustomAttributesCacheGeneratorP21CustomAttributesCache
P4a:__ZN13sorted_vectorI4PPtrI11SpriteAtlasENSt3__24lessIS2_EE13stl_allocatorIS2_L18MemLabelIdentifier1ELi16EEE21sort_clear_duplicatesEv
AVe:__ZL58ManualResetEvent_t451242010_CustomAttributesCacheGeneratorP21CustomAttributesCache
Tof:__ZL60FontData_t746620069_CustomAttributesCacheGenerator_m_MinSizeP21CustomAttributesCache
h2n:__ZNK37VertexHelper_t2453304189_StaticFields22get_s_DefaultTangent_9Ev
r0c:__ZN9Scripting11UnityEngine15TextEditorProxy9InitProxyEv
Gui:_Char_System_IConvertible_ToDateTime_m3564102661
Keo:__ZL25UnresolvedVirtualCall_119P12Il2CppObjectS0_S0_iiPK10MethodInfo
dQo:__ZN15dense_hashtableINSt3__24pairIK10KeyWrapperINS1_IPK9FieldInfoP11Il2CppClassEEEjEES9_17ReflectionMapHashIS8_EN14dense_hash_mapIS9_jSD_NS9_14EqualsComparerINS0_8equal_toIS8_EEEENS0_9allocatorISB_EEE9SelectKeyESI_SK_E16reset_thresholdsEv
lW:__ZN13RuntimeStaticINSt3__26vectorI12WebCamDeviceNS0_9allocatorIS2_EEEELb0EE13StaticDestroyEPv
f3a:__ZN6Sprite17MainThreadCleanupEv
cWa:__ZN4PPtrI23ShaderVariantCollectionE8TransferI18StreamedBinaryReadEEvRT_
VLe:__ZL55BinaryWriter_t3992595042_CustomAttributesCacheGeneratorP21CustomAttributesCache
IRp:_glBlendFuncSeparate__wrapper
X9k:__Z37RuntimeInvoker_RuntimeObject_IntPtr_tPFvvEPK10MethodInfoPvPS4_
bef:__ZL116PlayerConnectionInternal_t3892293164_CustomAttributesCacheGenerator_PlayerConnectionInternal_SendMessage_m2378413408P21CustomAttributesCache
x$:__ZN10AudioMixer14UpdateMuteSoloEv
Kma:__Z17GetMonoManagerPtrv
_am:__ZNK22Enumerator_t20172970767get_l_0Ev
I9l:__ZNK26KeyValuePair_2_t25302173199get_key_0Ev
qRa:__ZN12BaseRenderer25FlattenSharedMaterialDataILb0EEEbRKS_R22PerThreadPageAllocatorR10RenderNode
B2j:__ZN24BinaryReader_t242807729316set_m_encoding_1EP20Encoding_t1523322056
CWg:__Z28Enumerator__ctor_m2471152669P21Enumerator_t314722136P23Dictionary_2_t132545152PK10MethodInfo
mr:__ZN17CallbackArrayBaseIPFvP10UnitySceneS1_EPFvPKvS1_S1_EE8RegisterES3_S7_S5_
mjf:__ZL87GUIUtility_t1868551600_CustomAttributesCacheGenerator_U3CguiIsExitingU3Ek__BackingFieldP21CustomAttributesCache
T5e:__ZL101MonoBehaviour_t3962482529_CustomAttributesCacheGenerator_MonoBehaviour_StartCoroutine_Auto_m594129169P21CustomAttributesCache
Bc:_JS_Eval_ClearTimeout
rZe:__ZL64ThreadStaticAttribute_t3840787420_CustomAttributesCacheGeneratorP21CustomAttributesCache
NEb:__ZN7ApiGLES16SetPatchVerticesEi
Blp:__ZN6il2cpp5utils13dynamic_arrayIPNS_2os6ThreadELj4EE7reserveEj
Imo:__ZN38AnimatorControllerPlayable_t101576784114set_m_Handle_0E26PlayableHandle_t1095853803
itn:_CharacterClass_Compile_m3296067317
aS:__ZN18StreamedBinaryRead21TransferSTLStyleArrayI10vector_mapI8StateKey10StateRangeNSt3__24lessIS2_EENS4_9allocatorINS4_4pairIS2_S3_EEEEEEEvRT_17TransferMetaFlags
xce:__ZN38ExecuteEvents_t3484638744_StaticFields24set_s_BeginDragHandler_6EP27EventFunction_1_t1977848392
Wkp:__ZN6il2cpp2gc16GarbageCollector16InvokeFinalizersEv
nQg:__Z36KeyValuePair_2_get_Value_m3495598764P24KeyValuePair_2_t71524366PK10MethodInfo
Iti:_Byte_System_IConvertible_ToInt64_m285584218_AdjustorThunk
HNh:_Rect_get_size_m477575021_AdjustorThunk
wuo:__ZN6il2cpp2vm5Class20FromGenericParameterEPK22Il2CppGenericParameter
Sba:__ZN19CloudServiceHandler11FlushEventsEv
YSf:__Z25Il2CppCodeGenWriteBarrierI25BooleanU5BU5D_t2897418192EvPPT_S2_
Cua:__ZN15GlobalCallbacksC2Ev
HZm:__ZN21TlsStream_t236545396513set_canRead_1Eb
A9h:_MethodCall_System_Runtime_Remoting_Messaging_IInternalMessage_set_Uri_m1919576807
cag:__ZN25ObjectManager_t165306432517set__finalFixup_5Eb
cid:__ZN7b2World10CreateBodyEPK9b2BodyDef
uPa:__ZN6Camera8TransferI18StreamedBinaryReadEEvRT_
Svp:_GC_add_ext_descriptor
CPg:_Comparer_1_System_Collections_IComparer_Compare_m2016223770_gshared
EMh:__ZN20RangeInt_t209468461811set_start_0Ei
Btf:__ZL57BaseMeshEffect_t2440176439_CustomAttributesCacheGeneratorP21CustomAttributesCache
jil:__Z74RuntimeInvoker_DateTime_t3738529785_DateTime_t3738529785_Int32_t2950945753PFvvEPK10MethodInfoPvPS4_
VAd:_UNITY_FT_New_Memory_Face
NGm:_Collection_1_System_Collections_IList_IndexOf_m3271188411_gshared
mR:__ZN14SafeBinaryRead21TransferSTLStyleArrayI22OffsetPtrArrayTransferI9OffsetPtrIN7mecanim9animation17BlendTreeConstantEEEEEvRT_17TransferMetaFlags
BPb:__Z29Transfer_Blittable_ArrayFieldI19StreamedBinaryWriteyEvRT_R9ArrayInfoRK23StaticTransferFieldInfo
NGg:__Z69InternalEnumerator_1_System_Collections_IEnumerator_Reset_m1775752715P32InternalEnumerator_1_t3186646106PK10MethodInfo
GCa:__ZN9Scripting11UnityEngine19SetupCoroutineProxy9InitProxyEv
yF:__ZN7mecanim9animation18CreateConstantClipERNS0_12ConstantClipEjR20RuntimeBaseAllocator
zyd:__ZN20TextRenderingPrivate21TextMeshGeneratorImpl5FlushEv
n4j:_MonoIO_GetFileStat_m678141354
ate:__Z15CastclassSealedP12Il2CppObjectP11Il2CppClass
wKc:__ZN15ApplicationInfo14GetSandboxTypeEv
gKb:__Z18Transfer_BlittableI17RemapPPtrTransferLb1EhEvRK29SerializationCommandArgumentsR31RuntimeSerializationCommandInfo
L9i:_Decimal_IsZero_m4250358244_AdjustorThunk
ock:_UnmanagedMemoryStream_get_CanRead_m3770815400
hnc:__ZN16ReflectionProbes40UpdateRealtimeReflectionProbesTimeslicedEv
v3a:__ZN14SafeBinaryRead21TransferSTLStyleArrayI13dynamic_arrayI8Vector2fLj0EEEEvRT_17TransferMetaFlags
x5n:__ZN23InterfaceActionInvoker1IP24SingleU5BU5D_t1444911251E6InvokeEjP11Il2CppClassP12Il2CppObjectS1_
Y_i:_Decimal_u64_m3374804932
rXn:__ZNK33TrackablePropertyBase_t212153294812get_m_Path_1Ev
rmb:__ZNK30RuntimeInitializeOnLoadManager22GetTypeVirtualInternalEv
Bne:__Z33IndexedSet_1_get_Item_m1597760628P24IndexedSet_1_t3571286806iPK10MethodInfo
rDo:__ZN15dense_hashtableINSt3__24pairIK10KeyWrapperIN6il2cpp5utils13dynamic_arrayIPK10Il2CppTypeLj4EEEEPFvvEEESA_NS3_8metadata19Il2CppSignatureHashEN14dense_hash_mapISA_SD_SG_NSA_14EqualsComparerINSF_22Il2CppSignatureCompareEEENS0_9allocatorISE_EEE9SelectKeyESK_SM_E12resize_deltaEjj
RFc:__ZN16ReflectionProbes15InitializeClassEv
b9:__ZN13dynamic_arrayIN11UnityEngine15CloudWebService14DataErrorEvent15FileErrorDetailELj0EE18resize_initializedEj12ResizePolicy
LHe:__ZL71Enum_t4135868527_CustomAttributesCacheGenerator_Enum_Format_m2588135982P21CustomAttributesCache
fhd:__ZNK12b2WheelJoint17GetReactionTorqueEf
_Rh:_Sprite_GetTextureRect_Injected_m333481368
bSn:__ZN44U3CGetSingleScoreU3Ec__Iterator4_t237550413413set_U24this_2EP30dreamloLeaderBoard_t2767863335
ZQm:_ReadOnlyCollection_1_System_Collections_ICollection_CopyTo_m2527663815_gshared
x9h:_MethodCall__ctor_m2820791328
Cbp:__ZN6il2cpp2vm5Image9GetCorlibEv
Yao:_Vector3_get_left_m2428419009
dip:__ZN6il2cpp2vm11MethodStack17GetStackFramesRawEv
GOe:__ZL50Pointer_t2088917139_CustomAttributesCacheGeneratorP21CustomAttributesCache
fjo:__Z23List_1__ctor_m808270210P18List_1_t1547575848iPK10MethodInfo
tTj:__ZNK11Exception_t21get_inner_exception_1Ev
ofe:__ZN28PointerEventData_t380790109236set_U3ClastPressU3Ek__BackingField_4EP22GameObject_t1113636619
msa:__ZN16LightmapSettings11UnshareDataEv
obe:_ExecuteEvents_Execute_m113814934
Lpa:__ZN13RuntimeStaticINSt3__23mapIN4core12basic_stringIcNS2_20StringStorageDefaultIcEEEES6_NS0_4lessIS6_EE13stl_allocatorINS0_4pairIKS6_S6_EEL18MemLabelIdentifier13ELi16EEEELb0EE13StaticDestroyEPv
bwh:_Coroutine_ReleaseCoroutine_m947702340
cQg:_Enumerator_System_Collections_IEnumerator_get_Current_m2979767597_AdjustorThunk
ewf:__Z33il2cpp_codegen_string_new_wrapperPKc
KFn:__ZN30GenericInterfaceActionInvoker1I17Color_t2555686324E6InvokeEPK10MethodInfoP12Il2CppObjectS0_
ojg:_MD5CryptoServiceProvider_ProcessFinalBlock_m2241588515
xkh:_ScrollRect_GetBounds_m449872505
Xle:__ZNK44U3COnFinishSubmitU3Ec__Iterator0_t341343890018get_U24disposing_4Ev
Qk:_glIsVertexArray
Fmi:_SmallXmlParser_Read_m3485223434
Qbh:__Z25Il2CppCodeGenWriteBarrierI17Func_2_t235587086EvPPT_S2_
Zcn:_GUILayoutUtility_LayoutFreeGroup_m2955697397
xyj:_Int16_Parse_m2276856944
ZAg:_InternalEnumerator_1__ctor_m3443175323_AdjustorThunk
Cbm:__ZNK22Enumerator_t21464574877get_l_0Ev
eOe:__ZL131CustomAttributeData_t1084486650_CustomAttributesCacheGenerator_CustomAttributeData_t1084486650____ConstructorArguments_PropertyInfoP21CustomAttributesCache
ga:invoke_fff
uFp:_mbsinit
lLp:b14
LBo:__ZN14dense_hash_setI10KeyWrapperIPK19Il2CppGenericMethodEN6il2cpp8metadata23Il2CppGenericMethodHashENS4_14EqualsComparerINS6_26Il2CppGenericMethodCompareEEENSt3__29allocatorIS4_EEED2Ev
zkn:_RepeatContext_get_Expression_m255006542
TZc:__Z34RenderTexture_Get_Custom_PropWidthP12Il2CppObject
Ywj:__ZN22MarkU5BU5D_t364542240221GetAddressAtUncheckedEj
nPd:__ZN2UI6Canvas17MainThreadCleanupEv
tya:__ZN6prcoreL12RemapGenericI17TexFormatARGB155517TexFormatRGBA8888EEvPKNS_9InnerInfoE
pLl:__ZN28GenericInterfaceFuncInvoker2I27DictionaryEntry_t3123975638P12Il2CppObjectS2_E6InvokeEPK10MethodInfoS2_S2_S2_
VLf:_TypeBuilder_HasElementTypeImpl_m1871001960
Xya:__ZL50__ManagedRegistrationHelperFunction_AllocatorProxyPv
LFl:_Array_Resize_TisVector2_t2156229523_m3382835435_gshared
ysa:__ZN4core8hash_setINS_4pairIKiP16LightmapSettingsLb0EEENS_9hash_pairINS_4hashIiEES2_S4_EENS_10equal_pairINSt3__28equal_toIiEES2_S4_EEE4growEi
ESo:__ZNK30dense_hashtable_const_iteratorINSt3__24pairIK10KeyWrapperINS1_IPK10MethodInfoP11Il2CppClassEEEjEES9_17ReflectionMapHashIS8_EN14dense_hash_mapIS9_jSD_NS9_14EqualsComparerINS0_8equal_toIS8_EEEENS0_9allocatorISB_EEE9SelectKeyESI_SK_EeqERKSN_
gFb:__ZN7ApiGLES13CreateProgramEv
MVj:__ZN30DateTimeFormatInfo_t240585370126set_allLongDatePatterns_33EP24StringU5BU5D_t1281789340
FIi:__ZNK25RSAParameters_t17284066138get_DQ_4Ev
GEi:__ZNK30SymmetricAlgorithm_t425422308720get_BlockSizeValue_0Ev
Lee:__Z25Il2CppCodeGenWriteBarrierI28RaycastHitU5BU5D_t1690781147EvPPT_S2_
$6a:__ZN4crnd12crn_unpackerD2Ev
Ah:_emscripten_glTexImage2D
sZj:__ZNK30DateTimeFormatInfo_t240585370119get_amDesignator_11Ev
qNg:_Comparer_1_System_Collections_IComparer_Compare_m2537217645_gshared
qTa:__ZN16MeshVertexFormat20GetVertexDeclarationER9GfxDevice16VertexInputMasksPKS_
zja:__ZN18ScriptingArguments9AddStringEPKc
n$h:__ZNK20TypeInfo_t320417835816get_Attributes_0Ev
MPg:_Comparer_1_get_Default_m2488357084_gshared
Hvi:_Char_ToString_m3588025615
dXj:__ZN27NumberFormatInfo_t43587713821set_perMilleSymbol_28EP8String_t
dgk:_SetPropertyUtility_SetStruct_TisAspectMode_t3417192999_m1565063249_gshared
ZDm:_Collection_1_get_Count_m2853642267_gshared
p5i:__ZNK33CurrentSystemTimeZone_t399835225529get_m_CachedDaylightChanges_5Ev
kRm:_ReadOnlyCollection_1_System_Collections_IList_get_IsReadOnly_m375760151_gshared
IRe:__ZL53IEnvoyInfo_t2180778907_CustomAttributesCacheGeneratorP21CustomAttributesCache
e8f:_SerializationEntry_get_ObjectType_m1155580012
_u:__ZN11UnityEngine9Animation30CreateAvatarBindingConstantOptER9TransformPKN7mecanim9animation14AvatarConstantER20RuntimeBaseAllocator
R5a:__ZL23stbir__resize_arbitraryPvPKviiiS_iiiffffPfiij14stbir_datatype12stbir_filterS4_10stbir_edgeS5_16stbir_colorspace
Tda:__Z15strcpy_truncatePcPKcjj
yMb:__Z18Transfer_BlittableI24GenerateTypeTreeTransferLb1E8Vector4fEvRK29SerializationCommandArgumentsR31RuntimeSerializationCommandInfo
pLp:b18
xBe:__ZNK28GraphicRaycaster_t299969710920get_m_BlockingMask_7Ev
km:_pthread_detach
_Da:__ZN9Scripting11UnityEngine9Playables18PlayableAssetProxy9InitProxyEv
gye:_FontUpdateTracker_UntrackText_m1981515690
ism:_List_1_System_Collections_ICollection_get_SyncRoot_m1937857346_gshared
aGb:__ZN11MonoManager8TransferI19StreamedBinaryWriteEEvRT_
Ntf:__ZL64AnalyticsEventTracker_t2285229262_CustomAttributesCacheGeneratorP21CustomAttributesCache
xMc:__ZN15DirectorManager20ScheduleGraphDestroyERK14HPlayableGraph
MSb:__ZNSt3__213__stable_sortIRN10vector_mapI17ScriptingClassPtrPKN5Unity4TypeENS_4lessIS2_EENS_9allocatorINS_4pairIS2_S6_EEEEE13value_compareENS_11__wrap_iterIPSB_EEEEvT0_SJ_T_NS_15iterator_traitsISJ_E15difference_typeEPNSM_10value_typeEi
EIk:_SimpleCollator_FillSurrogateSortKeyRaw_m725998232
TXk:__ZN18Thread_t230083606911set_state_7Ei
pql:__Z224RuntimeInvoker_Void_t1185182177_Rect_t2360479859_RuntimeObject_SByte_t1669577662_SByte_t1669577662_SByte_t1669577662_SByte_t1669577662_SByte_t1669577662_Int32_t2950945753_Int32_t2950945753_Color_t2555686324_Color_t2555686324PFvvEPK10MethodInfoPvPS4_
ytm:_List_1_AddEnumerable_m1284696147_gshared
Blj:_IPAddress_Equals_m1823478787
b2h:_Context_CreateNewContext_m3053563976
Gxc:__ZN9ShaderLab25SerializedTextureProperty8TransferI24GenerateTypeTreeTransferEEvRT_
$Hl:_Array_swap_TisVector2_t2156229523_TisVector2_t2156229523_m345092822_gshared
mDm:_Collection_1_get_Item_m1773274637_gshared
zZo:__ZN6il2cpp2gc19AppendOnlyGCHashMapINSt3__24pairIPK14Il2CppAssemblyP11Il2CppClassEEP24Il2CppReflectionAssembly17ReflectionMapHashIS9_ENS2_8equal_toIS9_EEEC2Ev
iHd:_tt_cmap14_char_next
aeo:__ZL24UnresolvedVirtualCall_83P12Il2CppObjectPK10MethodInfo
pBj:__ZN27NumberFormatter_t118292462115set__infinity_9Eb
RFa:__ZN9Scripting11UnityEngine12Experimental9Playables27MaterialEffectPlayableProxy12CleanupProxyEv
Cca:__GLOBAL__sub_I_Runtime_Camera_RenderLoops_2_cpp
gLh:_PlayableOutputHandle_Equals_m2815498676_AdjustorThunk
Eyh:_InvokableCall_remove_Delegate_m1376110510
AW:__ZN20DiagnosticSwitchEnumI14FMODDebugTypesE20ApplyPersistentValueEv
KBi:_Hashtable_Clear_m3112193608
pup:_GC_block_was_dirty
bZk:__ZN16Timer_t71667102615set_period_ms_5Ex
JUk:_UTF8Encoding_InternalGetByteCount_m771565606
tYi:__ZNK22SortedList_t242769464111get_inUse_1Ev
Rap:__ZNK15dense_hashtableINSt3__24pairIK10KeyWrapperIP14Il2CppIUnknownEjEES5_N6il2cpp5utils11PointerHashIS3_EEN14dense_hash_mapIS5_jSB_NS5_14EqualsComparerINS0_8equal_toIS4_EEEENS0_9allocatorIS7_EEE9SelectKeyESG_SI_E12test_deletedEj
Nad:__Z18Transfer_BlittableI8JSONReadLb1EyEvRK29SerializationCommandArgumentsR31RuntimeSerializationCommandInfo
DJ:__ZN13AnimationClip8TransferI19StreamedBinaryWriteEEvRT_
e5e:__ZL51GUILayer_t2783472903_CustomAttributesCacheGeneratorP21CustomAttributesCache
sKe:__ZL56IDictionary_2_t3177279192_CustomAttributesCacheGeneratorP21CustomAttributesCache
sTa:__ZN9GfxDevice20GetVertexDeclarationERK18VertexChannelsInfoNS_30VertexDeclarationMRUCacheIndexE
qhk:_Array_InternalArray__IEnumerable_GetEnumerator_TisUInt64_t4134040092_m1382862496_gshared
hh:_emscripten_glMatrixMode
Geh:_MaskableGraphic_UnityEngine_UI_IClippable_get_gameObject_m1739855597
k$j:_NumberFormatInfo_get_RawPercentGroupSizes_m97703232
Yvk:_SecurityFrame_get_Assembly_m2874566710
E1j:_Guid__ctor_m3562600567_AdjustorThunk
ago:__ZL25UnresolvedVirtualCall_191P12Il2CppObject19Color32_t2600501292S1_PK10MethodInfo
oXh:__ZN21RealProxy_t231205025321set__objectIdentity_5EP20Identity_t1873279371
a8:__ZN11UnityEngine15CloudWebService14DataDispatcher16PrepareDataBlockERNS0_16SessionContainerE
Y6b:__ZN18GfxFramebufferGLES5ClearE13GfxClearFlagsRK10ColorRGBAffib
nmg:__ZN32InternalEnumerator_1_t42399320099set_idx_1Ei
Eta:__ZN13PlayableGraphD2Ev
Axp:__ZN6il2cpp6icalls8mscorlib6System9Threading7Monitor4ExitEP12Il2CppObject
Gkk:_MonoProperty_StaticGetterAdapterFrame_TisRuntimeObject_m4131530968_gshared
SAa:__ZL53__ManagedRegistrationHelperFunction_MeshRendererProxyPv
ARm:_ReadOnlyCollection_1_System_Collections_Generic_IListU3CTU3E_get_Item_m4153579838_gshared
Iyg:_InternalEnumerator_1_get_Current_m2316281569_gshared
vdc:__ZL12DepthPassJobPN21GfxDeviceAsyncCommand10ArgScratchEPKNS_3ArgE
_vc:__ZNSt3__26vectorIN9ShaderLab20SerializedSubProgram16TextureParameterENS_9allocatorIS3_EEE6assignINS_11__wrap_iterIPS3_EEEENS_9enable_ifIXaasr21__is_forward_iteratorIT_EE5valuesr16is_constructibleIS3_NS_15iterator_traitsISC_E9referenceEEE5valueEvE4typeESC_SC_
vzm:_List_1_set_Item_m822941211_gshared
HGh:_MonoBehaviour_IsInvoking_m3285132449
LLl:_Transform_1_EndInvoke_m1701794896_gshared
Ddd:__ZN5Unity9rapidjson6WriterI16TempBufferWriterNS0_4UTF8IcEES4_13JSONAllocatorE11WriteDoubleEd
pVo:__ZNK30dense_hashtable_const_iteratorINSt3__24pairIK10KeyWrapperINS1_IPK9EventInfoP11Il2CppClassEEEjEES9_17ReflectionMapHashIS8_EN14dense_hash_mapIS9_jSD_NS9_14EqualsComparerINS0_8equal_toIS8_EEEENS0_9allocatorISB_EEE9SelectKeyESI_SK_EdeEv
HVd:__ZThn1172_N18UnityConnectClientD0Ev
p3n:_UnityWebRequest_GetWebErrorString_m4076320575
hYk:_Thread_SetCachedCurrentUICulture_m1729523031
CDb:__ZN14GfxDeviceStats16CopyAllDrawStatsERKS_
E7g:_InputField_get_minHeight_m2822964544
v$g:__ZN23GenericVirtFuncInvoker1I27DictionaryEntry_t3123975638iE6InvokeEPK10MethodInfoP12Il2CppObjecti
Mlf:__ZL70EventSystem_t1003666588_CustomAttributesCacheGenerator_m_FirstSelectedP21CustomAttributesCache
go:FUNCTION_TABLE_iiiiiiiiiiii
Vsm:_List_1_get_Item_m1686506901_gshared
YXg:_KeyCollection_System_Collections_Generic_IEnumerableU3CTKeyU3E_GetEnumerator_m1982109872_gshared
F5a:__ZN6prcore9BlitImageERK14ImageReferenceRS0_13ImageBlitMode
jVa:__ZN16GraphicsSettingsD0Ev
pfa:__Z12FormatBufferPciPKcz
q9o:__ZN6il2cpp6icalls8mscorlib6SystemL52FormatExceptionMessageForNonConstructableGenericTypeEPK10Il2CppTypeRKNSt3__26vectorIS5_NS6_9allocatorIS5_EEEE
vYm:__ZNK25SslStreamBase_t166741340731get_checkCertRevocationStatus_9Ev
WVd:__ZNSt3__26__treeINS_12__value_typeIN4core12basic_stringIcNS2_20StringStorageDefaultIcEEEE14CallbackArray3IRKS6_R8JSONReadbEEENS_19__map_value_compareIS6_SD_NS_4lessIS6_EELb1EEE13stl_allocatorISD_L18MemLabelIdentifier6ELi16EEE7destroyEPNS_11__tree_nodeISD_PvEE
n:cttz_i8
kCd:_UNITY_FT_GlyphLoader_Add
Gsg:__Z75InternalEnumerator_1_System_Collections_IEnumerator_get_Current_m2742943179P31InternalEnumerator_1_t350626606PK10MethodInfo
coi:_AppDomain_InternalPopDomainRef_m412593501
CHf:__ZN31OpCodes_t126150456_StaticFields15set_Bge_Un_S_51E17OpCode_t123070264
Joj:__ZN25OidCollection_t423476684411set__list_0EP21ArrayList_t2718874744
ZZh:_ServerIdentity_OnLifetimeExpired_m3729485875
Z6n:_AudioListener_INTERNAL_CALL_ReadExtensionPropertyName_m330480156
_xe:__Z30HashSet_1_Contains_m1017385675P20HashSet_1_t466832188P16Text_t1901882714PK10MethodInfo
WGl:_Array_qsort_TisRuntimeObject_TisRuntimeObject_m2939659920_gshared
rdh:__ZNK20MatEntry_t295710709218get_useAlphaClip_8Ev
Tsf:__ZL78LayoutRebuilder_t541313304_CustomAttributesCacheGenerator_U3CU3Ef__mgU24cache0P21CustomAttributesCache
d6n:__Z30Enumerator_Dispose_m3198901590P22Enumerator_t3959214805PK10MethodInfo
J1k:__ZN26TypedReference_t149110811921get_address_of_type_0Ev
uUo:__ZNK15dense_hashtableINSt3__24pairIK10KeyWrapperINS1_IPK12PropertyInfoP11Il2CppClassEEEjEES9_17ReflectionMapHashIS8_EN14dense_hash_mapIS9_jSD_NS9_14EqualsComparerINS0_8equal_toIS8_EEEENS0_9allocatorISB_EEE9SelectKeyESI_SK_E12bucket_countEv
fll:__Z53RuntimeInvoker_Interval_t1802865632_Int32_t2950945753PFvvEPK10MethodInfoPvPS4_
a4i:_Convert_ToUInt16_m867476252
ki:_emscripten_glViewport
_Jc:__Z21GenerateTilingAreaJobP22GenerateTilingAreaInfoj
ito:_NativeClassAttribute_set_Declaration_m1218368926
rqp:__ZN6il2cpp6icalls8mscorlib6System15MonoCustomAttrs17IsDefinedInternalEP12Il2CppObjectP20Il2CppReflectionType
Dhb:__ZNK16MeshVertexFormat26GetVertexDeclarationSpriteER9GfxDevice16VertexInputMasksjb
rnl:__Z53RuntimeInvoker_Vector3_t3722313464_Single_t1397266774PFvvEPK10MethodInfoPvPS4_
Wno:_SkeletonBone_t4134054672_marshal_pinvoke_back
PQe:__ZL115SynchronizationAttribute_t3946661254_CustomAttributesCacheGenerator_SynchronizationAttribute_IsContextOK_m324067792P21CustomAttributesCache
kNj:_CustomAttributeData_get_Constructor_m489601093
BCp:__Z18RegisterAllClassesv
GDd:_cff_parse_font_bbox
KFk:_MSCompatUnicodeTable_Category_m1834196420
JAg:__Z44InternalEnumerator_1_get_Current_m1408339225P32InternalEnumerator_1_t2576641779PK10MethodInfo
Yal:__Z85RuntimeInvoker_Void_t1185182177_Int32_t2950945753_Int32_t2950945753_Int32_t2950945753PFvvEPK10MethodInfoPvPS4_
bdj:_Double_CompareTo_m3151899116
OBp:__ZN6il2cpp2os5Event5ResetEv
UGd:_tt_name_ascii_from_other
Qbk:_TextWriter_Write_m2252948084
z0n:_ToggleGroup__ctor_m3308114662
ALi:__ZN23CipherSuite_t341474457517set_clientHMAC_19EP29KeyedHashAlgorithm_t112861511
Eka:__ZN18AwakeFromLoadQueue28InvokePersistentManagerAwakeEPNS_4ItemEj17AwakeFromLoadMode
jwk:__ZN40SecurityManager_t3383402582_StaticFields16set__execution_2EP30SecurityPermission_t2954997752
BGl:_Array_Sort_TisUILineInfo_t4195266810_m3737783007_gshared
cKh:_PlayableAsset_Internal_CreatePlayable_m2550417712
gx:__ZNK17AnimationPlayable27GetNextCompatibleDescendantEj
OPi:_Context_get_LastHandshakeMsg_m2730646725
jZe:__ZL59ResolveEventArgs_t1779456501_CustomAttributesCacheGeneratorP21CustomAttributesCache
WAd:__ZN13dynamic_arrayIN4core17string_with_labelILi35EEELj0EE6insertEPS2_jRKS2_
gjf:__ZL64GUIUtility_t1868551600_CustomAttributesCacheGenerator_s_SkinModeP21CustomAttributesCache
x_j:_GregorianCalendar_GetMonth_m3359423849
H8f:_ObjectWriter_BlockWrite_m827549826
Fqn:__ZN31CompositeExpression_t125222980217set_expressions_0EP32ExpressionCollection_t1810289389
cod:__ZN34b2SolveDiscreteIslandBodySleepTask7TaskJobEPS_j
Ihi:_X509CertificateCollection__ctor_m3365535796
$0l:__Z25Il2CppCodeGenWriteBarrierI30EqualityComparer_1_t2365039146EvPPT_S2_
Sll:__Z50RuntimeInvoker_Ray_t3785851493_Vector3_t3722313464PFvvEPK10MethodInfoPvPS4_
Jyh:__Z24List_1__ctor_m1425123358P18List_1_t4176035766PK10MethodInfo
Sco:__ZL24UnresolvedVirtualCall_19P12Il2CppObject25DSAParameters_t1885824122PK10MethodInfo
mWb:__Z25SetNeedToPerformRenderingb
ZUo:__ZN14dense_hash_mapI10KeyWrapperINSt3__24pairIPK9EventInfoP11Il2CppClassEEEj17ReflectionMapHashIS8_ENS9_14EqualsComparerINS1_8equal_toIS8_EEEENS1_9allocatorINS2_IKS9_jEEEEE3endEv
hHp:__ZN10__cxxabiv116__shim_type_infoD2Ev
uTh:_Touch_get_phase_m214549210
qqn:_Alternation__ctor_m1629257642
oYd:__ZN8JSONRead12TransferPairINSt3__24pairIN4core12basic_stringIcNS3_20StringStorageDefaultIcEEEEN11UnityEngine9Analytics16LimitEventConfigEEEEEvRT_17TransferMetaFlagsPKN5Unity9rapidjson12GenericValueINSG_4UTF8IcEE13JSONAllocatorEE
LMa:__ZN10GameObjectD2Ev
Jdc:__ZN14qsort_internal30FindAndMovePivotToLastPositionIP15RODataDepthPassi17ROSorterDepthPassEEvT_S4_T0_T1_
_3m:__ZNK26X509Certificate_t48924302515get_m_keyalgo_6Ev
FBg:_InternalEnumerator_1_Dispose_m630370856_gshared
hFj:_MethodAccessException__ctor_m3411913042
Vbo:__ZN32Vector4_t3319028937_StaticFields15set_oneVector_6E19Vector4_t3319028937
EFj:_MonoCustomAttrs__cctor_m4000462365
y0l:_EqualityComparer_1__ctor_m1767308726_gshared
uUn:_mouseHover__ctor_m2060838702
emc:__ZN12CullingGroup10SendEventsEPK17CullingGroupEventj
Ooc:__ZN19CustomRenderTexture4TickEf
rv:__ZN25RuntimeAnimatorController23VirtualRedirectTransferER19StreamedBinaryWrite
weo:__ZL25UnresolvedVirtualCall_105P12Il2CppObjectxixPK10MethodInfo
s$j:_NumberFormatInfo_get_PerMilleSymbol_m1360140831
rMl:_Transform_1_BeginInvoke_m942628308_gshared
lJi:_EncryptedData_get_EncryptionAlgorithm_m905084934
_gk:_Array_InternalArray__IEnumerable_GetEnumerator_TisCustomAttributeTypedArgument_t2723150157_m1333528454_gshared
tge:_PointerInputModule__ctor_m3728889932
seb:__ZThn32_NK8Renderer8GetLayerEv
A6m:_X509Extension_Equals_m1779194186
d0h:__ZNK25ConfigHandler_t419243721622get_channelInstances_1Ev
VPa:__ZN9Coroutine16CleanupCoroutineEPv
LDd:_cff_parse_vsindex
vce:__Z33EventFunction_1__ctor_m2223601609P27EventFunction_1_t1977848392P12Il2CppObjectiPK10MethodInfo
nvk:_SecurityException_GetObjectData_m1968030344
v_o:__ZNSt3__26vectorIiNS_9allocatorIiEEEC2ERKS3_
T4f:__ZN28MemberInfoU5BU5D_t130209443214SetAtUncheckedEjP12MemberInfo_t
Kyj:_Int32_ValidDigit_m1059003769
M5k:__ZN19Version_t345687396012set__Minor_2Ei
P2n:_DownloadHandler_Dispose_m2747726581
dRp:_emscripten_glTexParameterfv__wrapper
DZe:__ZL54MemberFilter_t426314064_CustomAttributesCacheGeneratorP21CustomAttributesCache
U9g:_LayoutGroup_get_rectTransform_m442863741
QGb:__Z18Transfer_BlittableI14SafeBinaryReadLb1E9BoundsIntEvRK29SerializationCommandArgumentsR31RuntimeSerializationCommandInfo
WCc:__ZN2UI13RectTransform17GetLocalPositionZEv
oUc:__Z57Register_UnityEngine_RectTransform_set_anchorMin_Injectedv
D0o:_il2cpp_method_get_param_count
npa:__ZNK5Unity4Type21FindAllDerivedClassesER13dynamic_arrayIPKS0_Lj0EENS0_17TypeFilterOptionsE
MPm:_ReadOnlyCollection_1_System_Collections_Generic_IListU3CTU3E_get_Item_m3189289772_gshared
JUo:__ZNK15dense_hashtableINSt3__24pairIK10KeyWrapperINS1_IPK12PropertyInfoP11Il2CppClassEEEjEES9_17ReflectionMapHashIS8_EN14dense_hash_mapIS9_jSD_NS9_14EqualsComparerINS0_8equal_toIS8_EEEENS0_9allocatorISB_EEE9SelectKeyESI_SK_E3endEv
Fxn:__ZN28GenericInterfaceFuncInvoker2Ii39CustomAttributeNamedArgument_t287865710S0_E6InvokeEPK10MethodInfoP12Il2CppObjectS0_S0_
IJl:_LayoutGroup_SetProperty_TisAxis_t3613393006_m3591044743_gshared
DDg:__ZNK31InternalEnumerator_1_t7461369139get_idx_1Ev
Pji:__ZNK29X501_t1758824425_StaticFields16get_givenName_13Ev
$He:__ZL69RuntimeArray_CustomAttributesCacheGenerator_Array_SetValue_m282347242P21CustomAttributesCache
qWd:__ZN22BaseUnityConnectClient14AppRunningTickEj
M_c:__Z40Transform_CUSTOM_TransformPoint_InjectedP12Il2CppObjectRK8Vector3fRS1_
Mdk:_Array_InternalArray__ICollection_Contains_TisSByte_t1669577662_m926034270_gshared
RKd:_ps_dimension_done
q9f:_MessageFormatter_GetExtraProperties_m305191653
zel:__Z67RuntimeInvoker_GCHandle_t3351438187_RuntimeObject_Int32_t2950945753PFvvEPK10MethodInfoPvPS4_
orb:__ZN12ScriptMapper23VirtualRedirectTransferER18StreamedBinaryRead
Pvj:__ZNK24FactoryCache_t232711888714get_capacity_0Ev
s0h:__ZN41LifetimeServices_t3061370510_StaticFields25set__sponsorshipTimeout_3E19TimeSpan_t881159249
H_e:__ZL59HybridDictionary_t4070033136_CustomAttributesCacheGeneratorP21CustomAttributesCache
Ncb:__ZN16LightmapSettings8TransferI14SafeBinaryReadEEvRT_
o1b:__ZN17BufferManagerGLES13ReleaseBufferEP14DataBufferGLES
jLi:_CipherSuite_Write_m1172814058
V9n:__ZNK32Vector2_t2156229523_StaticFields16get_zeroVector_2Ev
hRn:__ZNK16Music_t67460792115get_newsprite_9Ev
rbk:_SynchronizedWriter_Write_m301917713
Ngk:_Array_InternalArray__IEnumerable_GetEnumerator_TisKeyValuePair_2_t1377593753_m4153773959_gshared
NLg:_InternalEnumerator_1_System_Collections_IEnumerator_get_Current_m660599465_AdjustorThunk
IMg:__ZN21InterfaceFuncInvoker1Ii22UILineInfo_t4195266810E6InvokeEjP11Il2CppClassP12Il2CppObjectS0_
CIp:dynCall_dii
Kad:__Z18Transfer_BlittableI8JSONReadLb1EjEvRK29SerializationCommandArgumentsR31RuntimeSerializationCommandInfo
UQb:__Z18Transfer_BlittableI18StreamedBinaryReadLb1E5RectTIfEEvRK29SerializationCommandArgumentsR31RuntimeSerializationCommandInfo
mka:__ZNK27SharedObjectDeleteReleaseOpI10UnitySceneEclEPS0_10MemLabelId
G5f:_SerializationObjectManager_RaiseOnSerializedEvent_m272248422
axh:_Debug_LogWarning_m3752629331
$be:__ZN38ExecuteEvents_t3484638744_StaticFields27set_s_PointerEnterHandler_0EP27EventFunction_1_t3995630009
Zdh:__ZNK27MaskableGraphic_t383922155917get_m_Maskable_24Ev
HVm:_ReadOnlyCollection_1_System_Collections_Generic_IListU3CTU3E_RemoveAt_m4037795630_gshared
ogl:__Z117RuntimeInvoker_Void_t1185182177_RuntimeObject_Int32_t2950945753_Int32_t2950945753_Int32_t2950945753_Int32_t2950945753PFvvEPK10MethodInfoPvPS4_
Ubb:__ZNK13ScreenManager17GetFullscreenModeEv
X0:__Z30GetAudioSpatializerDefinitionsR13dynamic_arrayIP29AudioEffectInternalDefinitionLj0EE31UnityAudioEffectDefinitionFlags
h3g:__ZN22InputField_t376291743134get_address_of_m_CaretBlinkRate_37Ev
hqf:__ZL81U3CMouseDragOutsideRectU3Ec__Iterator1_t3909241878_CustomAttributesCacheGeneratorP21CustomAttributesCache
dme:_U3COnFinishSubmitU3Ec__Iterator0_Reset_m3632769946
vp:stackSave
rUj:__ZNK20Calendar_t166112156918get_m_isReadOnly_0Ev
Maa:__ZN5Unity9rapidjson15GenericDocumentINS0_4UTF8IcEE13JSONAllocatorNS0_12CrtAllocatorEE6StringEPKcjb
Mdg:__ZN40Base64Constants_t4102031153_StaticFields17set_DecodeTable_1EP22ByteU5BU5D_t4116647657
gqe:_ColorTween_get_targetColor_m1724075482_AdjustorThunk
kLd:_ps_dimension_end
uYc:__Z41Register_UnityEngine_Mesh_Internal_Createv
Wyb:__ZN16MemoryFileSystem5TouchER13FileEntryData
Dgb:__ZN14SpriteRenderer23VirtualRedirectTransferER24GenerateTypeTreeTransfer
SZg:__Z30Transform_1_Invoke_m1839683782P23Transform_1_t3690794193iP12Il2CppObjectPK10MethodInfo
Hld:__ZNSt3__27__sort3IRN18Overlap2DQueryBase29ColliderHitsByDepthComparitorEPP10Collider2DEEjT0_S7_S7_T_
$Li:__ZN16VirtFuncInvoker1IP22ByteU5BU5D_t4116647657P8String_tE6InvokeEjP12Il2CppObjectS3_
uAl:__Z35RuntimeInvoker_UriScheme_t722425697PFvvEPK10MethodInfoPvPS4_
Egm:_Enumerator_Dispose_m2498245804_AdjustorThunk
sAj:__ZN27NumberFormatter_t118292462112set__val3_21Ej
hEf:__ZNK26AssemblyBuilder_t35988525023get_corlib_enum_type_37Ev
i_i:_Console_Open_m3077673205
$4m:_X509StoreManager_get_CurrentUser_m4040993045
Onc:__ZN6Camera9SetAspectEf
ajk:_Array_InternalArray__IndexOf_TisDateTime_t3738529785_m2463359116_gshared
Ub:invoke_viiffiii
Yzp:__ZN6il2cpp2os13FastMutexImpl6UnlockEv
Yvg:_InternalEnumerator_1_MoveNext_m4138204635_gshared
ZQb:__Z18Transfer_BlittableI18StreamedBinaryReadLb0E11ColorRGBA32EvRK29SerializationCommandArgumentsR31RuntimeSerializationCommandInfo
lOp:_emscripten_glBindVertexArray__wrapper
xge:__ZN30PointerInputModule_t345317374019set_m_MouseState_15EP21MouseState_t384203932
Sip:__ZN6il2cpp6icalls8mscorlib6System4Enum19get_underlying_typeEP20Il2CppReflectionType
hrn:_Parser_IsECMAScript_m674158805
dX:__ZN10ObjectPoolIN4FMOD3DSPENS0_4DSPIEE7GetFreeEi
wWh:_CADMessageBase_UnmarshalArgument_m2058572696
JNa:__ZN9Transform37InitializeTransformHierarchyRecursiveER18TransformHierarchyRii
rFb:__ZN26SinglePassStereoSupportExt23SetupStereoMatrixParamsE21MonoOrStereoscopicEye24BuiltinShaderMatrixParamRK10Matrix4x4f
iWm:_ReadOnlyCollection_1_System_Collections_Generic_ICollectionU3CTU3E_Clear_m3810106454_gshared
g2h:_ContextCallbackObject__ctor_m3499682402
KFl:_Array_Resize_TisVector2_t2156229523_m1564542050_gshared
nCb:__ZN9GfxDevice23CreateAsyncReadbackDataEv
nFp:_fscanf
kSn:__ZNK46U3CAddScoreWithPipeU3Ec__Iterator0_t311897822111get_U24PC_6Ev
q1d:__ZNK25UnityWebRequestJavaScript16GetUploadedBytesEv
i4:__Z46AudioListener_CUSTOM_GetNumExtensionPropertiesP12Il2CppObject
RKo:__ZN6il2cpp6icalls8mscorlib6SystemL16CheckMemberMatchI9FieldInfoNS_5utils10functional6FilterINSt3__212basic_stringIcNS8_11char_traitsIcEENS8_9allocatorIcEEEENS5_13VmStringUtils23CaseInsensitiveComparerEEEEEbPKT_PK11Il2CppClassSN_iRKT0_
dPo:__ZN30dense_hashtable_const_iteratorINSt3__24pairIK10KeyWrapperINS1_IPK14Il2CppAssemblyP11Il2CppClassEEEjEES9_17ReflectionMapHashIS8_EN14dense_hash_mapIS9_jSD_NS9_14EqualsComparerINS0_8equal_toIS8_EEEENS0_9allocatorISB_EEE9SelectKeyESI_SK_EppEv
kge:__ZNK28PointerEventData_t380790109220get_m_PointerPress_3Ev
$Mi:__ZN19Context_t397123470715set_sessionId_1EP22ByteU5BU5D_t4116647657
UGg:__Z75InternalEnumerator_1_System_Collections_IEnumerator_get_Current_m2424959150P32InternalEnumerator_1_t3186646106PK10MethodInfo
G9i:_Decimal_GetHashCode_m2838600885
Yll:__Z84RuntimeInvoker_RuntimeObject_RayU26_t3515555043_Single_t1397266774_Int32_t2950945753PFvvEPK10MethodInfoPvPS4_
I4c:__Z54GUIStyle_CUSTOM_Internal_GetCursorStringIndex_InjectedP12Il2CppObjectRK5RectTIfES0_RK8Vector2f
_ja:__Z14GetMonoManagerv
njk:_Array_InternalArray__IndexOf_TisMonoResource_t4103430009_m1351751258_gshared
bJl:_Dictionary_2_Do_CopyTo_TisTextEditOp_t1927482598_TisTextEditOp_t1927482598_m2365000843_gshared
Jrk:__ZN26X509Certificate_t71313162218set_subject_name_4EP8String_t
apn:_Regex_Init_m289933770
d0b:__ZN13GfxDeviceGLES26SetRandomWriteTargetBufferEi15ComputeBufferID
Wup:_GC_split_block
FFl:_Array_Resize_TisUICharInfo_t75501106_m3903846016_gshared
gSm:_ReadOnlyCollection_1_System_Collections_Generic_ICollectionU3CTU3E_get_IsReadOnly_m3887826072_gshared
xUo:__ZNK15dense_hashtableINSt3__24pairIK10KeyWrapperINS1_IPK12PropertyInfoP11Il2CppClassEEEjEES9_17ReflectionMapHashIS8_EN14dense_hash_mapIS9_jSD_NS9_14EqualsComparerINS0_8equal_toIS8_EEEENS0_9allocatorISB_EEE9SelectKeyESI_SK_E8min_sizeEjj
D8b:__ZZ23InitPlayerLoopCallbacksvEN49EarlyUpdateResetFrameStatsAfterPresentRegistrator7ForwardEv
e_f:__ZN32ContextLevelActivator_t97522336521set_m_NextActivator_0EP12Il2CppObject
SFp:_poll
jSm:_ReadOnlyCollection_1_System_Collections_IEnumerable_GetEnumerator_m1671097018_gshared
B4k:_UInt64_ToString_m1529093114_AdjustorThunk
$Zh:__ZNK26ServerIdentity_t234220860817get__serverSink_9Ev
vZf:_TypeLibImportClassAttribute__ctor_m2302178978
fKk:_Escape_t3294788190_marshal_pinvoke
IDh:_Material__ctor_m1662457592
u6g:_InputField_OnUpdateSelected_m1118869681
Ibp:__ZN6il2cpp2vmL36AddNestedTypesToNametoClassHashTableEP40Il2CppNameToTypeDefinitionIndexHashTablePKcRKNSt3__212basic_stringIcNS5_11char_traitsIcEENS5_9allocatorIcEEEEP11Il2CppClass
ZFn:__Z31UnityAction_1_Invoke_m610765085P25UnityAction_1_t274106566419Vector2_t2156229523PK10MethodInfo
Mag:_SerializationException__ctor_m3131447373
d7a:__ZN4crnd12crn_unpacker11unpack_dxt1EPPhjjj
Q3j:_BinaryWriter_Write_m3577537050
Wzc:__ZNK11ICallString6ToUTF8Ev
lAl:__Z39RuntimeInvoker_MonoResource_t4103430009PFvvEPK10MethodInfoPvPS4_
Huo:__ZN15dense_hashtableINSt3__24pairIK10KeyWrapperIPK22Il2CppGenericParameterEP11Il2CppClassEES6_N6il2cpp5utils11PointerHashIS4_EEN14dense_hash_mapIS6_S9_SE_NS6_14EqualsComparerINS0_8equal_toIS5_EEEENS0_9allocatorISA_EEE9SelectKeyESJ_SL_E15insert_noresizeERKSA_
Q_g:_Transform_1_Invoke_m2468053724_gshared
Mel:__Z51RuntimeInvoker_Void_t1185182177_TimeSpan_t881159249PFvvEPK10MethodInfoPvPS4_
Kdc:__ZNSt3__211__sift_downIR17ROSorterDepthPassP15RODataDepthPassEEvT0_S5_T_NS_15iterator_traitsIS5_E15difference_typeES5_
w1a:__ZN18UnityPropertySheet11UnityTexEnvC2Ev
zbn:__ZN16VirtFuncInvoker0I16Rect_t2360479859E6InvokeEjP12Il2CppObject
kpi:_ArgumentException__ctor_m3200406061
NK:__ZN8Animator17ApplyOnAnimatorIKEiRNS_11AnimatorJobE
h9d:__Z27List_1_RemoveAt_m4240524546P18List_1_t2475741330iPK10MethodInfo
$na:__ZN12FileAccessor4ReadEyyPvPy
Ekh:__ZNK22ScrollRect_t413785581432get_m_HorizontalScrollbarRect_36Ev
QTi:__Z25Il2CppCodeGenWriteBarrierI25AsyncCallback_t3962456242EvPPT_S2_
$um:_List_1_set_Capacity_m2777925136_gshared
Tdn:__ZN26GUILayoutEntry_t321461157014set_maxWidth_1Ef
pZc:__Z46Register_UnityEngine_RectOffset_InternalCreatev
hze:__Z31Dictionary_2_Remove_m3648904610P24Dictionary_2_t2296117448P18Canvas_t3310196443PK10MethodInfo
lWa:__ZN4PPtrI8MaterialE8TransferI19StreamedBinaryWriteEEvRT_
qnc:__ZN13RenderTexture9SetHeightEi
S1:__ZN11AudioSource26KillActiveProviderChannelsEv
Ema:__ZN17PersistentManager25PreallocateObjectThreadedEiNS_9LockFlagsE
ux:__ZN7mecanim9animation17ClearMotionOutputEPNS0_18AnimationNodeStateE
K4e:__ZL59LightmapBakeType_t1497855756_CustomAttributesCacheGeneratorP21CustomAttributesCache
AMi:_CipherSuiteCollection_get_IsFixedSize_m3127823890
_Ua:__ZN16LevelGameManager8TransferI24GenerateTypeTreeTransferEEvRT_
SKg:_InternalEnumerator_1_System_Collections_IEnumerator_get_Current_m3537550566_gshared
kkh:_Scrollbar_UpdateVisuals_m2492252165
tpp:__ZN4utf88internal8is_trailIcEEbT_
DFa:__ZN9Scripting11UnityEngine12Experimental10PlayerLoop18PreLateUpdateProxy12CleanupProxyEv
a3m:_PKCS12_get_Keys_m2165478388
w7o:__ZN6il2cpp6icalls8mscorlib6System2IO6MonoIO17GetFileAttributesEP12Il2CppStringPi
$hg:_HMACMD5__ctor_m3008609295
KSe:__ZL61X509KeyStorageFlags_t441861693_CustomAttributesCacheGeneratorP21CustomAttributesCache
IUf:__ZNK20NameOrId_t236469464210get_name_0Ev
iEp:_hexfloat
NHd:_tt_cmap8_char_index
wbp:___cxx_global_var_init_3_43039
jfg:__Z25Il2CppCodeGenWriteBarrierI24UInt32U5BU5D_t2770800703EvPPT_S2_
Yja:__Z24scripting_class_get_name17ScriptingClassPtr
Wwp:__ZNSt3__26__treeINS_12__value_typeIPvPN6il2cpp2os10FileHandleEEENS_19__map_value_compareIS2_S7_NS_4lessIS2_EELb1EEENS_9allocatorIS7_EEEC2ERKSB_
Hnj:_Oid__ctor_m911618594
s2n:_VerticalLayoutGroup_CalculateLayoutInputHorizontal_m1404590745
QTf:_TypeDelegator_get_TypeHandle_m1498852405
hqa:__ZN13RuntimeStaticI15GUIEventManagerLb0EE13StaticDestroyEPv
pSi:__ZNK31TlsServerKeyExchange_t69946915115get_rsaParams_9Ev
ZGj:_ShortComparer_Compare_m1881262465
EIb:__Z29Transfer_Blittable_ArrayFieldI14SafeBinaryReadjEvRT_R9ArrayInfoRK23StaticTransferFieldInfo
Phm:_Enumerator_Dispose_m2367589020_gshared
Nzl:__Z53RuntimeInvoker_Keyframe_t4206410242_Int32_t2950945753PFvvEPK10MethodInfoPvPS4_
vi:_emscripten_set_keydown_callback
YCk:_EncoderReplacementFallback__ctor_m1483565116
dz:__ZN7mecanim21DestroyValueArrayMaskEPNS_14ValueArrayMaskER20RuntimeBaseAllocator
Fxj:_Interpreter_IsWordChar_m2858055765
Hbe:__ZNK38ExecuteEvents_t3484638744_StaticFields22get_s_EndDragHandler_8Ev
Aqi:__ZNK33Comparer_t1912461351_StaticFields13get_Default_0Ev
IBi:_Hashtable_CopyTo_m2905447224
hoa:__ZN12FileAccessorC2Ev
y0m:__ZNK37BasicConstraintsExtension_t246219527823get_pathLenConstraint_4Ev
Lyl:__Z96RuntimeInvoker_Void_t1185182177_BooleanU5BU5DU26_t3454195888_Int32_t2950945753_Int32_t2950945753PFvvEPK10MethodInfoPvPS4_
pkf:__ZL58ContactFilter2D_t3805203441_CustomAttributesCacheGeneratorP21CustomAttributesCache
v0l:_EqualityComparer_1_System_Collections_IEqualityComparer_Equals_m3855544238_gshared
Heb:__ZNK8Renderer29FlattenPerMaterialCustomPropsER22PerThreadPageAllocatorR10RenderNode
pme:__ZN24CanvasScaler_t276797995524set_m_PrevScaleFactor_16Ef
fwj:__Z25Il2CppCodeGenWriteBarrierI17Group_t2468205786EvPPT_S2_
lDn:_EventFunction_1_Invoke_m2429482587_gshared
_Si:__ZNK29HttpsClientStream_t116055256115get__request_20Ev
D2n:_CertificateHandler_Dispose_m2100863831
Ltd:__ZN23ColliderTilingExtensionC2Ev
XDf:_ModuleBuilder_set_wrappers_type_m2998401134
IXn:__ZN32StandardEventPayload_t162989125512set_m_Name_5EP8String_t
SMo:__ZN6il2cpp2vm7Runtime12GetConfigDirEv
dMm:_Collection_1_SetItem_m794903769_gshared
zLi:_SecurityParameters_get_ClientWriteMAC_m225554750
old:__ZNSt3__27__sort3IR22InverseDepthComparitorP8DepthHitEEjT0_S5_S5_T_
Jdm:_Enumerator_MoveNext_m1177880931_AdjustorThunk
Jnd:__ZN14qsort_internal18QSortSingleJobDataIPN25b2SynchronizeFixturesTask14b2DeferredMoveEiPFbRKS2_S5_EE7SortJobEPS8_
Aoh:_Slider_UpdateVisuals_m3662961057
Xgf:__ZL82Event_t2956885303_CustomAttributesCacheGenerator_Event_get_commandName_m4275147343P21CustomAttributesCache
zjo:_TextGenerator_Populate_m194003733
C9m:_TextEditor_Insert_m1009419335
Drn:__ZN29PositionAssertion_t33392880619set_pos_0Et
ZYi:_Enumerator_MoveNext_m635366482
pQj:_DerivedType_get_FullName_m1025358827
Wdg:_CryptoConfig_MapNameToOID_m2044758263
qih:__ZN22ScrollRect_t413785581426set_m_ScrollSensitivity_11Ef
Xr:__ZN13ConstraintJob23ConstraintComponentDataC2ERKS0_
Ppf:__ZL70InputField_t3762917431_CustomAttributesCacheGenerator_m_OnValueChangedP21CustomAttributesCache
WUb:__Z39WriteQueueForTransferSignatureIntoCacheRK31TransferFunctionScriptingTraitsRK24TransferRequestSignature17ScriptingClassPtrR23CachedSerializationDataRb
Uob:__ZN13RenderManager18UpdateAllRenderersEv
UDk:_Encoding_get_UTF8UnmarkedUnsafe_m320312322
xYk:_Thread_Thread_free_internal_m333849022
w7c:__Z35Transfer_Blittable_FixedBufferFieldI9JSONWritexEvRK29SerializationCommandArgumentsR31RuntimeSerializationCommandInfo
hfd:__ZN20PerformanceReporting17PlayerLoopHandlerEv
hHj:__Z25Il2CppCodeGenWriteBarrierI24ConstructorInfo_t5769829EvPPT_S2_
N9a:__ZN15QualitySettings23VirtualRedirectTransferER19StreamedBinaryWrite
xVd:__ZN22BaseUnityConnectClient30OnEnteringStatePausedOrStoppedEv
_qd:__ZN10ClipperLib7Clipper18SwapPositionsInAELEPNS_5TEdgeES2_
bkk:_Array_compare_TisCustomAttributeNamedArgument_t287865710_m2877346442_gshared
VIm:_Collection_1_ConvertItem_m1556170494_gshared
Ix:__ZN7mecanim5human12HumanPoseAddERNS0_9HumanPoseERKS1_S4_
j0i:_DateTime_ToUniversalTime_m1945318289
ucj:_DllNotFoundException__ctor_m1156705135
Vwi:_ArrayList_ToArray_m3827492363
vph:_Slider_get_stepSize_m1423227661
w4k:_UInt64_Parse_m819899889
eqk:_SymmetricAlgorithm_set_IV_m3196220308
qzf:_GenericTypeParameterBuilder_GetHashCode_m852224381
s4i:_Convert_ToUInt32_m1453583008
nXj:_CompareInfo_Compare_m894311506
pNa:__Z24MergeTransformComponentsR9TransformS0_b
hCo:__ZNK15dense_hashtableI10KeyWrapperIPK19Il2CppGenericMethodES4_N6il2cpp8metadata23Il2CppGenericMethodHashEN14dense_hash_setIS4_S7_NS4_14EqualsComparerINS6_26Il2CppGenericMethodCompareEEENSt3__29allocatorIS4_EEE8IdentityESB_SE_E10test_emptyEj
S0l:__Z25Il2CppCodeGenWriteBarrierI30EqualityComparer_1_t2540240738EvPPT_S2_
B7d:_EventSystem_UpdateModules_m3643806022
Tkp:__ZN6il2cpp2gc16GarbageCollector10StartWorldEv
zen:__ZNK35GUIContent_t3050628031_StaticFields17get_s_TextImage_5Ev
Zvf:__ZL66U3CRepeatU3Ec__Iterator1_t734646936_CustomAttributesCacheGeneratorP21CustomAttributesCache
Okd:__ZN15b2CircleContactD0Ev
Fmo:_AnimationOffsetPlayable__cctor_m1029460816
CEn:_InvokableCall_1__ctor_m2610016537_gshared
RWo:__ZN15dense_hashtableINSt3__24pairIK10KeyWrapperIPK14Il2CppAssemblyEPK22Il2CppMonoAssemblyNameEES6_N6il2cpp5utils11PointerHashIS4_EEN14dense_hash_mapIS6_SA_SF_NS6_14EqualsComparerINS0_8equal_toIS5_EEEENS0_9allocatorISB_EEE9SelectKeyESK_SM_ED2Ev
btk:_Evidence_get_SyncRoot_m2835084965
fJa:__ZN19StreamedBinaryWrite5AlignEv
cgk:_SetPropertyUtility_SetStruct_TisTouchScreenKeyboardType_t1530597702_m2455393348_gshared
eIi:__ZNK22RSAManaged_t175709382019get_KeyGenerated_14Ev
nVa:__ZN16GraphicsSettings23VirtualRedirectTransferER19StreamedBinaryWrite
GWl:_DefaultComparer__ctor_m2280347240_gshared
kTe:__ZL59ICryptoTransform_t2733259762_CustomAttributesCacheGeneratorP21CustomAttributesCache
yBn:__ZN23GenericVirtFuncInvoker1Ib40CustomAttributeTypedArgument_t2723150157E6InvokeEPK10MethodInfoP12Il2CppObjectS0_
Q3o:__ZNK6il2cpp8metadata19SZArrayClassCompareclEPK11Il2CppClassS4_
uFe:__ZN30Image_t2670269651_StaticFields11set_s_Xy_44EP25Vector3U5BU5D_t1718750761
IOj:__ZNK24MonoResource_t410343000914get_filename_2Ev
I_i:_Convert_ToBoolean_m2833489984
uUa:__Z37GetBarycentricCoordinatesForOuterCellPPK8Vector3fRK13dynamic_arrayIS_Lj0EERS0_RK11TetrahedronR8Vector4f
ii:_emscripten_glVertexAttribPointer
hcn:__ZNK22TextEditor_t275985536622get_keyboardOnScreen_0Ev
OXb:__ZN14PreloadManager26UpdatePreloadingSingleStepENS_21UpdatePreloadingFlagsEi
_In:_TweenRunner_1__ctor_m340723704_gshared
Hlh:_ScrollRect_SetLayoutHorizontal_m3078869633
JN:__ZN7mecanim9animation28DestroyBlendTreeNodeConstantEPNS0_21BlendTreeNodeConstantER20RuntimeBaseAllocator
caf:__ZL98RenderTextureDescriptor_t1974534975_CustomAttributesCacheGenerator_U3CmemorylessU3Ek__BackingFieldP21CustomAttributesCache
t6m:_X509Crl_VerifySignature_m1377612461
dFo:__ZN24dense_hashtable_iteratorI10KeyWrapperIPK19Il2CppGenericMethodES4_N6il2cpp8metadata23Il2CppGenericMethodHashEN14dense_hash_setIS4_S7_NS4_14EqualsComparerINS6_26Il2CppGenericMethodCompareEEENSt3__29allocatorIS4_EEE8IdentityESB_SE_EC2EPK15dense_hashtableIS4_S4_S7_SG_SB_SE_EPS4_SM_b
gup:_GC_cond_register_dynamic_libraries
j4i:_Convert_ToUInt16_m1480956416
Pya:__ZN6prcoreL25inner_stretch_i8_bilinearEPKNS_9InnerInfoE
fOl:_Enumerator_MoveNext_m1359058366_gshared
xqb:__ZL30RegisterFilteredObjectCallbackPP12Il2CppObjectiPv
tcp:__ZN15dense_hashtableINSt3__24pairIK10KeyWrapperINS1_IPKcS4_EEEiEES6_24NamespaceAndNamePairHashN14dense_hash_mapIS6_iS9_NS6_14EqualsComparerI26NamespaceAndNamePairEqualsEENS0_9allocatorIS8_EEE9SelectKeyESD_SF_E16reset_thresholdsEv
bVm:_ReadOnlyCollection_1_System_Collections_Generic_IListU3CTU3E_RemoveAt_m3317217538_gshared
Qef:__ZL54AudioSource_t3935305588_CustomAttributesCacheGeneratorP21CustomAttributesCache
uid:__ZN16PhysicsManager2D19ApplyParticleForcesER13dynamic_arrayI21BatchedColliderResultLj0EE
zNd:__ZL49__ManagedRegistrationHelperFunction_TileDataProxyPv
I8:__ZN11UnityEngine15CloudWebService16SessionContainer24GetSessionHeaderJsonDataERKN4core12basic_stringIcNS2_20StringStorageDefaultIcEEEERNS2_13StringBuilderE
UPj:_DerivedType_GetEvent_m4157575360
zpa:__ZN13RuntimeStaticI21AssetReferenceStorageLb0EE13StaticDestroyEPv
RF:__Z23ConvertCacheToBuildKeysI11QuaternionfEvRN17AnimationCurveTplIT_E5CacheEiP19StreamedClipBuilder
cQe:__ZL56_MethodBuilder_t600455149_CustomAttributesCacheGeneratorP21CustomAttributesCache
t3j:_BinaryWriter__cctor_m874809665
vAi:_Comparer__ctor_m2831654082
c7e:__ZL54PhysicsUpdate_t81124440_CustomAttributesCacheGeneratorP21CustomAttributesCache
fho:__ZL25UnresolvedVirtualCall_250P12Il2CppObject22ColorBlock_t2139031574PK10MethodInfo
t6k:__ZN25WeakReference_t133488671614set_gcHandle_1E20GCHandle_t3351438187
Tsl:__Z72RuntimeInvoker_Bounds_t2266837910_RuntimeObject_Matrix4x4U26_t3606180965PFvvEPK10MethodInfoPvPS4_
Bgj:__ZN36NameObjectCollectionBase_t209184736423set_equality_comparer_9EP12Il2CppObject
Zzn:__ZN28GenericInterfaceFuncInvoker2IbiiE6InvokeEPK10MethodInfoP12Il2CppObjectii
s4a:__ZN18StreamedBinaryRead16TransferTypelessEPjPKc17TransferMetaFlags
Qlm:__ZN17List_1_t25721361014set__version_3Ei
wv:__ZNK25RuntimeAnimatorController30GetAnimationClipOverrideVectorEv
gVf:__ZN26ResourceReader_t330049263930get_address_of_resource_ver_10Ev
O4h:__ZN16VirtFuncInvoker1I19TimeSpan_t881159249P12Il2CppObjectE6InvokeEjS2_S2_
x7f:__ZN27ClrTypeMetadata_t388585303518set_InstanceType_2EP6Type_t
Zmi:__ZNK25SmallXmlParser_t97378783916get_nameBuffer_6Ev
OXe:__ZL79Convert_t2465617642_CustomAttributesCacheGenerator_Convert_ToUInt32_m3188121845P21CustomAttributesCache
i9k:__Z48RuntimeInvoker_RuntimeObject_Decimal_t2948259380PFvvEPK10MethodInfoPvPS4_
TYk:_ThreadStart_EndInvoke_m3768045394
Nkl:__Z103RuntimeInvoker_Void_t1185182177_Int16_t2552820387_SByte_t1669577662_SByte_t1669577662_SByte_t1669577662PFvvEPK10MethodInfoPvPS4_
stb:__ZNK17FileSystemHandler10IsReadOnlyERK13FileEntryData
$Xc:__Z34Quaternion_CUSTOM_Inverse_InjectedRK11QuaternionfRS_
$Ko:__ZNSt3__214__split_bufferIP9FieldInfoRNS_9allocatorIS2_EEEC2EjjS5_
lbg:_StreamingContext__ctor_m2604757771_AdjustorThunk
VMb:__Z18Transfer_BlittableI24GenerateTypeTreeTransferLb1EjEvRK29SerializationCommandArgumentsR31RuntimeSerializationCommandInfo
tHm:__ZN24Collection_1_t230466276714set_syncRoot_1EP12Il2CppObject
jle:__ZNK29AspectRatioFitter_t331240708323get_m_DelayedSetDirty_7Ev
fTo:__ZNK15dense_hashtableINSt3__24pairIK10KeyWrapperINS1_IPK11Il2CppImageP11Il2CppClassEEEjEES9_17ReflectionMapHashIS8_EN14dense_hash_mapIS9_jSD_NS9_14EqualsComparerINS0_8equal_toIS8_EEEENS0_9allocatorISB_EEE9SelectKeyESI_SK_E10test_emptyERK30dense_hashtable_const_iteratorISB_S9_SD_SM_SI_SK_E
Euo:__ZN6il2cpp2os12FastAutoLockD2Ev
JNe:__ZL68AssemblyCopyrightAttribute_t836190902_CustomAttributesCacheGeneratorP21CustomAttributesCache
BEm:_Collection_1_Add_m1736908447_gshared
ZDd:_cff_vstore_done
AUl:__ZNK23Dictionary_2_t13254515225get_serialization_info_13Ev
lLn:__ZN17Board_t368830528716set_startTime_25Ef
jMa:__ZN18StreamedBinaryRead21TransferSTLStyleArrayI13dynamic_arrayI17SortingLayerEntryLj0EEEEvRT_17TransferMetaFlags
tll:__Z68RuntimeInvoker_Void_t1185182177_UInt16_t2177724958_SByte_t1669577662PFvvEPK10MethodInfoPvPS4_
e5k:__ZN25GenericVirtActionInvoker2IP12Il2CppObjectP39UnhandledExceptionEventArgs_t2886101344E6InvokeEPK10MethodInfoS1_S1_S3_
Xrg:_InternalEnumerator_1_get_Current_m3008260692_AdjustorThunk
Rig:_MACTripleDES_HashFinal_m3613553534
O3k:_UInt64_System_IConvertible_ToChar_m2074245892
LCo:__ZN6il2cpp5utils11collections13ArrayValueMapIPK10Il2CppType17Il2CppInteropData26InteropDataToTypeConverterNS_8metadata14Il2CppTypeLessENS8_26Il2CppTypeEqualityComparerEE12SortComparerC2ES7_S9_
Sr:__ZN4core8hash_setIPN5Unity9ComponentENS_4hashIS3_EENSt3__28equal_toIS3_EEE4growEi
wZa:__ZN13RenderTexture6CreateERK12ObjectHandleI17RenderSurface_TagP17RenderSurfaceBaseES6_NS_11CreateFlagsE
NUk:_UTF8Encoding_InternalGetBytes_m1965760031
xf:_emscripten_glClearDepth
UDc:__ZNK8GUILayer22GetTypeVirtualInternalEv
T9a:__ZN14SafeBinaryRead21TransferSTLStyleArrayINSt3__26vectorIN15QualitySettings14QualitySettingENS1_9allocatorIS4_EEEEEEvRT_17TransferMetaFlags
mAo:__ZNK14dense_hash_mapI10KeyWrapperIPK19Il2CppGenericMethodEPK26Il2CppGenericMethodIndicesN6il2cpp8metadata23Il2CppGenericMethodHashENS4_14EqualsComparerINS9_26Il2CppGenericMethodCompareEEENSt3__29allocatorINSE_4pairIKS4_S7_EEEEE9SelectKeyclERKSI_
lFn:_UnityAction_1__ctor_m3007623985_gshared
Cok:__ZNK23SHA384Managed_t741585759get_H5_12Ev
BXg:_KeyCollection__ctor_m2388548663_gshared
Bvl:__Z56RuntimeInvoker_Boolean_t97287965_ILTokenInfo_t2325775114PFvvEPK10MethodInfoPvPS4_
Yff:__ZL92DownloadHandler_t2937767557_CustomAttributesCacheGenerator_DownloadHandler__ctor_m2126376377P21CustomAttributesCache
amb:__ZNSt3__26vectorINS_4pairIPKN5Unity4TypeE7Hash128EENS_9allocatorIS7_EEE8__appendEj
ybd:__ZN8JSONRead21TransferSTLStyleArrayI13dynamic_arrayIaLj0EEEEvRT_17TransferMetaFlags
aEd:_cff_font_load
BE:__Z25AddPPtrCurveToClipBuilderR13dynamic_arrayI12PPtrKeyframeLj0EERKN11UnityEngine9Animation14GenericBindingER18MecanimClipBuilder
ORc:__Z13IsPathCreatedRKN4core12basic_stringIcNS_20StringStorageDefaultIcEEEE
Aof:__ZL99Dropdown_t2274391225_CustomAttributesCacheGenerator_Dropdown_DelayedDestroyDropdownList_m2082128994P21CustomAttributesCache
jTg:__ZN22Enumerator_t208672792711set_stamp_2Ei
X5a:__ZL22stbir__encode_scanlineP11stbir__infoiPvPfiii
$co:__ZL24UnresolvedVirtualCall_28P12Il2CppObjectS0_iiPK10MethodInfo
hYf:_ExternalException__ctor_m2877839282
wwd:__ZN20QuadTreeNodeRenderer13StaticDestroyEPv
E9:__ZN11UnityEngine15CloudWebService20WebRequestRestClient5AbortEv
AJm:_Collection_1_InsertItem_m954500348_gshared
$_m:__Z25Il2CppCodeGenWriteBarrierI22RSAManaged_t1757093820EvPPT_S2_
TBc:__ZN9Transform12CleanupClassEv
Pof:__ZL57FontData_t746620069_CustomAttributesCacheGenerator_m_FontP21CustomAttributesCache
YDh:_Mathf_Sin_m3411839043
HBa:__ZL55__ManagedRegistrationHelperFunction_SetupCoroutineProxyPv
aKj:_OperatingSystem_Clone_m1122165140
bLl:_GameObject_AddComponent_TisRuntimeObject_m3469369570_gshared
wdh:__Z28List_1_get_Count_m2576555402P18List_1_t3275726873PK10MethodInfo
lK:__ZN11UnityEngine9Animation33SetGenericTransformPropertyValuesERKNS0_30AnimatorGenericBindingConstantERKN7mecanim10ValueArrayEP9Transformy
uWe:__ZL59AttributeTargets_t1784037988_CustomAttributesCacheGeneratorP21CustomAttributesCache
aCo:__ZNK15dense_hashtableI10KeyWrapperIPK19Il2CppGenericMethodES4_N6il2cpp8metadata23Il2CppGenericMethodHashEN14dense_hash_setIS4_S7_NS4_14EqualsComparerINS6_26Il2CppGenericMethodCompareEEENSt3__29allocatorIS4_EEE8IdentityESB_SE_E8min_sizeEjj
DI:__ZN11UnityEngine9Animation28AnimationClipBindingConstant8TransferI24GenerateTypeTreeTransferEEvRT_
jko:_Canvas_add_willRenderCanvases_m1234571137
lPg:__Z25Il2CppCodeGenWriteBarrierI22Comparer_1_t3655984405EvPPT_S2_
OCf:__ZN25ParameterInfo_t186105659814set_NameImpl_3EP8String_t
Aqm:_List_1_RemoveAll_m3165362277_gshared
dXk:__ZN32RegisteredWaitHandle_t152953845421set__callsInProcess_8Ei
n0k:_Type_type_is_subtype_of_m1406623598
tBm:__Z32Enumerator_get_Current_m42805805P22Enumerator_t1142515742PK10MethodInfo
t2h:__ZN19Context_t328544694415set_datastore_6EP24ObjectU5BU5D_t2843939325
mV:__ZN9Scripting11UnityEngine2XR5Tango29MeshReconstructionServerProxy9InitProxyEv
uhk:_Array_InternalArray__IEnumerable_GetEnumerator_TisRaycastResult_t3360306849_m3650537473_gshared
Sjk:_Array_InternalArray__IndexOf_TisVector2_t2156229523_m424149457_gshared
Oqe:__Z31UnityEvent_1_Invoke_m3884411426P24UnityEvent_1_t343734582817Color_t2555686324PK10MethodInfo
_Eh:__ZNK21Matrix4x4_t18179018439get_m01_4Ev
ZVk:_Thread_get_CurrentThread_m4142136012
HTa:__Z30ProcessDynamicBatchGeometryJobP25DynamicVBOGeometryJobDataj
Lwc:__ZNSt3__26__treeINS_12__value_typeI11ShaderTagIDS2_EENS_19__map_value_compareIS2_S3_NS_4lessIS2_EELb1EEENS_9allocatorIS3_EEE12__find_equalIS2_EERPNS_16__tree_node_baseIPvEENS_21__tree_const_iteratorIS3_PNS_11__tree_nodeIS3_SD_EEiEERPNS_15__tree_end_nodeISF_EESG_RKT_
nec:__ZNSt3__27__sort4IRNS_6__lessI11CulledLightS2_EEPS2_EEjT0_S6_S6_S6_T_
ZZo:__ZN6il2cpp2vm14TypeNameParser26ParseArrayModifierOptionalEv
VRm:_ReadOnlyCollection_1_GetEnumerator_m3522987773_gshared
ola:__Z26scripting_object_get_class18ScriptingObjectPtr
q6o:__ZN6il2cpp6icalls8mscorlib6System10Reflection8Assembly13get_code_baseEP24Il2CppReflectionAssemblyb
bod:__ZN34b2SolveDiscreteIslandBodySleepTaskD0Ev
Tmb:__ZNSt3__26vectorIN4core12basic_stringIcNS1_20StringStorageDefaultIcEEEE13stl_allocatorIS5_L18MemLabelIdentifier13ELi16EEE7reserveEj
q0n:_Toggle_GraphicUpdateComplete_m2285510719
Sgg:_DSASignatureDeformatter__ctor_m2889130126
Etj:_X509ChainElementCollection_Clear_m2271223414
ANf:__ZN16VirtFuncInvoker0IP27UnmanagedMarshal_t984015687E6InvokeEjP12Il2CppObject
IDc:__ZNK28MonoBehaviourPropertyBinding15GenerateBindingERKN4core12basic_stringIcNS0_20StringStorageDefaultIcEEEEbRN11UnityEngine9Animation14GenericBindingE
hwm:_List_1_set_Item_m35836043_gshared
grf:__ZL70ScrollRect_t4137855814_CustomAttributesCacheGenerator_m_OnValueChangedP21CustomAttributesCache
auj:_X509ChainElementCollection__ctor_m3424079155
YUg:_Enumerator_System_Collections_IDictionaryEnumerator_get_Value_m3881181744_AdjustorThunk
y4m:__ZN39X509Certificate_t489243025_StaticFields30set_U3CU3Ef__switchU24map11_25EP24Dictionary_2_t2736202052
Ljh:_ScrollRect_get_viewRect_m791243225
GEg:__ZN32InternalEnumerator_1_t35075654099set_idx_1Ei
vig:_HMACSHA512__cctor_m4155933671
fmn:_LinkStack_Push_m3081279930
X0j:__ZN6Guid_t8set__b_1Es
QEk:__Z25Il2CppCodeGenWriteBarrierI29Level2MapComparer_t1716225294EvPPT_S2_
YVd:__Z33GetUnityAnalyticsScriptingClassesv
UTg:_Enumerator_MoveNext_m1107569389_gshared
pZn:__ZN27AnalyticsTracker_t73102137815set_m_Trigger_8Ei
XYk:_Timer_Init_m891735195
aLo:__ZNSt3__26vectorIP9FieldInfoNS_9allocatorIS2_EEE26__swap_out_circular_bufferERNS_14__split_bufferIS2_RS4_EE
THn:_UnityEvent_3_GetDelegate_m1156357290_gshared
lnp:__ZN6il2cpp6icalls8mscorlib6System11Environment15internalGetHomeEv
eAg:_InternalEnumerator_1__ctor_m4200721464_gshared
kFh:_Matrix4x4_GetHashCode_m4034747639_AdjustorThunk
Oeo:__ZL25UnresolvedVirtualCall_123P12Il2CppObjectiPK10MethodInfo
xGa:__ZN9Scripting11UnityEngine12CubemapProxy12CleanupProxyEv
pae:__Z25Il2CppCodeGenWriteBarrierI18List_1_t2475741330EvPPT_S2_
GWf:_ResourceCacheItem_t51292791_marshal_pinvoke_cleanup
fIa:__ZNK5Unity9Component7GetNameEv
ULo:__ZNSt3__214__split_bufferIN6il2cpp6icalls8mscorlib6System12PropertyPairERNS_9allocatorIS5_EEEC2EjjS8_
noc:__Z23FindMonoScriptFromClass17ScriptingClassPtr
hqk:_SymmetricAlgorithm_get_KeySize_m4185004893
jom:_List_1_GetEnumerator_m232588170_gshared
r1n:__Z24List_1_Clear_m3097985365P17List_1_t899420910PK10MethodInfo
Nah:_U3CDelayedSetDirtyU3Ec__Iterator0_Reset_m160466733
Nqd:__ZNSt3__26vectorIPN10ClipperLib6OutRecENS_9allocatorIS3_EEE21__push_back_slow_pathIRKS3_EEvOT_
iK:__ZN11UnityEngine9Animation28SetGenericPPtrPropertyValuesERKNS0_30AnimatorGenericBindingConstantERKN7mecanim10ValueArrayE
UQj:_DynamicMethod_ToString_m2710486086
wEk:__Z25Il2CppCodeGenWriteBarrierI28TableRangeU5BU5D_t2913440125EvPPT_S2_
soh:__ZN18Slider_t390372890223set_m_OnValueChanged_25EP23SliderEvent_t3180273144
oum:_List_1_System_Collections_IList_Remove_m1070694895_gshared
cen:_LayoutCache__ctor_m3885940174
xbb:__ZN13ScreenManagerD0Ev
umo:_AnimationMotionXToDeltaPlayable_GetHandle_m1319190040_AdjustorThunk
Dgd:__ZNK11b2RopeJoint16GetReactionForceEf
Mrp:__ZN6il2cpp6icalls8mscorlib6System11DiagnosticsL39IsCalledFromSystemDiagnosticsStackTraceERKNSt3__26vectorI20Il2CppStackFrameInfoNS4_9allocatorIS6_EEEE
xL:__ZN7mecanim8skeleton26SkeletonPoseComputeGlobalQEPKNS0_8SkeletonEPKNS0_13SkeletonPoseTIN4math4trsXEEEPS7_ii
e$m:_TlsServerSettings__ctor_m373357120
N3k:_UInt64_System_IConvertible_ToByte_m1501504925_AdjustorThunk
BTi:__ZN49RSASslSignatureFormatter_t2709678514_StaticFields29set_U3CU3Ef__switchU24map16_2EP24Dictionary_2_t2736202052
tOg:__ZN16VirtFuncInvoker2Ii22OrderBlock_t1585977831S0_E6InvokeEjP12Il2CppObjectS0_S0_
uRi:_TlsClientHello_ProcessAsTls1_m2549285167
jAa:__ZL50__ManagedRegistrationHelperFunction_PreUpdateProxyPv
DNk:_CryptoConvert_ToCapiKeyBlob_m3371450375
tij:__ZN25FtpWebRequest_t157781830511set_proxy_7EP12Il2CppObject
RSm:_ReadOnlyCollection_1_System_Collections_IList_Clear_m3591436538_gshared
Vih:_ScrollRect_set_decelerationRate_m723367336
Lce:__Z33EventFunction_1__ctor_m3477300752P27EventFunction_1_t2886331738P12Il2CppObjectiPK10MethodInfo
r4g:__Z75SetPropertyUtility_SetStruct_TisCharacterValidation_t4051914437_m1041518770P12Il2CppObjectPiiPK10MethodInfo
wsg:__Z38InternalEnumerator_1__ctor_m3456047704P31InternalEnumerator_1_t350626606P11Il2CppArrayPK10MethodInfo
cL:__ZN9BlobWrite8TransferI22OffsetPtrArrayTransferIiEEEvRT_PKc17TransferMetaFlags
ICk:_EncoderExceptionFallback_Equals_m2760188920
O8m:_TextEditor_get_cursorIndex_m590337076
xFg:_InternalEnumerator_1__ctor_m43405049_AdjustorThunk
iLb:__Z18Transfer_BlittableI17RemapPPtrTransferLb1EjEvRK29SerializationCommandArgumentsR31RuntimeSerializationCommandInfo
eV:__ZL65__ManagedRegistrationHelperFunction_MeshReconstructionConfigProxyPv
SKe:__ZL94Hashtable_t1853889766_CustomAttributesCacheGenerator_Hashtable_t1853889766____hcp_PropertyInfoP21CustomAttributesCache
Yem:__Z33Enumerator_get_Current_m530189328P22Enumerator_t2426658172PK10MethodInfo
l_:__ZN4FMOD6System7releaseEv
mQl:__ZNK15Link_t54431796410get_Next_1Ev
Zsi:_Boolean_CompareTo_m3665076258
_xk:_String_Split_m3580120853
rQk:_PrivateKeyInfo__ctor_m2811023496
Ena:__Z18PathToAbsolutePathRKN4core12basic_stringIcNS_20StringStorageDefaultIcEEEE
jLf:_PropertyBuilder_GetCustomAttributes_m2917594003
xgn:_GUILayoutUtility_LayoutFromEditorWindow_m2914699782
sCi:_BigInteger_SetBit_m1723423691
Gmg:__Z41InternalEnumerator_1_MoveNext_m4138845038P32InternalEnumerator_1_t4239932009PK10MethodInfo
ppk:__ZNK25SHA512Managed_t17873363398get_H2_9Ev
mG:__ZN13AnimationClip23VirtualRedirectTransferER17RemapPPtrTransfer
iul:__Z78RuntimeInvoker_RuntimeObject_ObjectU26_t2146539884_RuntimeObject_RuntimeObjectPFvvEPK10MethodInfoPvPS4_
EZj:__ZNK30DateTimeFormatInfo_t240585370123get_shortTimePattern_17Ev
cNm:_Collection_1_System_Collections_Generic_ICollectionU3CTU3E_get_IsReadOnly_m432995385_gshared
ssn:__ZNK22AnchorInfo_t338701115111get_width_4Ev
YSi:__ZNK29HttpsClientStream_t116055256114get__status_21Ev
Ugj:__ZNK27_KeysEnumerator_t424666643216get_m_position_1Ev
TBe:__ZN40GraphicRegistry_t3479976429_StaticFields17set_s_EmptyList_2EP18List_1_t3132410353
bbh:__ZNK39LayoutRebuilder_t541313304_StaticFields26get_U3CU3Ef__amU24cache0_4Ev
nYc:__Z22Mesh_CUSTOM_HasChannelP12Il2CppObject30InternalScriptingShaderChannel
uMc:__ZN15DirectorManager17AcquireOutputNodeEv
dao:__ZN32Vector2_t2156229523_StaticFields14set_upVector_4E19Vector2_t2156229523
u3a:__Z14resize_trimmedINSt3__26vectorI13dynamic_arrayI8Vector2fLj0EENS0_9allocatorIS4_EEEEEvRT_j
YEl:_Array_InternalArray__set_Item_TisColor32_t2600501292_m1891325855_gshared
mfo:__ZL25UnresolvedVirtualCall_149P12Il2CppObject25PlayableGraph_t3515989261S0_PK10MethodInfo
uTb:__ZN10MonoScript23VirtualRedirectTransferER17RemapPPtrTransfer
eLl:_GameObject_GetComponentInChildren_TisRuntimeObject_m1310240902_gshared
O4n:_UploadHandler_t2993558019_marshal_pinvoke_cleanup
yej:_Locale_GetText_m2640320736
Wjn:__ZN20IntStack_t218932768712set_values_0EP22Int32U5BU5D_t385246372
Qaf:__ZL69PersistentCall_t3407714124_CustomAttributesCacheGenerator_m_ArgumentsP21CustomAttributesCache
Deb:__ZN23TextureStreamingManager11AddRendererER8Renderer
Axa:__ZN6prcoreL21StretchRGB9e5BilinearEPKNS_9InnerInfoE
KXa:__ZN16ReflectionProbes28GetMinBakedCubemapResolutionEv
o6o:__ZN6il2cpp6icalls8mscorlib6System10Reflection8Assembly22load_with_partial_nameEP12Il2CppStringP40mscorlib_System_Security_Policy_Evidence
cib:__ZN14BlendShapeData8TransferI14SafeBinaryReadEEvRT_
igh:__Z25Il2CppCodeGenWriteBarrierI17List_1_t651996883EvPPT_S2_
tMl:_Enumerator__ctor_m1849900510_gshared
Wpp:__GLOBAL__sub_I_String_cpp
Fuo:__ZN15dense_hashtableINSt3__24pairIK10KeyWrapperIPK22Il2CppGenericParameterEP11Il2CppClassEES6_N6il2cpp5utils11PointerHashIS4_EEN14dense_hash_mapIS6_S9_SE_NS6_14EqualsComparerINS0_8equal_toIS5_EEEENS0_9allocatorISA_EEE9SelectKeyESJ_SL_E6insertERKSA_
dYh:_CADMessageBase_MarshalArguments_m1927937746
H6g:_InputField_GenerateCaret_m1459647218
pVf:__ZN26ResourceReader_t330049263912set_hashes_6EP22Int32U5BU5D_t385246372
YP:__ZNSt3__26__sortIRNS_6__lessI4PPtrI13AnimationClipES4_EEPS4_EEvT0_S8_T_
nIc:__Z43Register_UnityEngine_Input_GetKeyDownStringv
CIa:__Z29GetGlobalAllowNameConversionsv
XCl:_Array_InternalArray__Insert_TisTableRange_t3332867892_m558285859_gshared
Dhm:__Z34Enumerator_VerifyState_m3479732886P22Enumerator_t2788664787PK10MethodInfo
epc:__ZN8Material8SetColorEN9ShaderLab16FastPropertyNameERK10ColorRGBAf
Tij:__ZN26HttpWebRequest_t166943651517set_webHeaders_14EP31WebHeaderCollection_t1942268960
U0h:__ZNK32Context_t3285446944_StaticFields18get_global_count_9Ev
hmf:__ZL77ExecuteEvents_t3484638744_CustomAttributesCacheGenerator_U3CU3Ef__mgU24cacheFP21CustomAttributesCache
zVj:__ZN20TextInfo_t381042552221get_address_of_data_8Ev
cZl:__ZN43EqualityComparer_1_t1249878500_StaticFields14set__default_0EP30EqualityComparer_1_t1249878500
him:_Enumerator_System_Collections_IEnumerator_Reset_m3754523291_gshared
lMa:__ZN15SerializeTraitsI13dynamic_arrayI17SortingLayerEntryLj0EEE8TransferI19StreamedBinaryWriteEEvRS2_RT_
RQp:_glUniform3uiv__wrapper
FWe:__ZL77Convert_t2465617642_CustomAttributesCacheGenerator_Convert_ToByte_m2375887898P21CustomAttributesCache
Ptj:_X509CertificateEnumerator__ctor_m943731472
Dpk:_SHA512Managed_processLength_m2162821715
HMh:_RangeInt_get_end_m4128831787
_2m:_PKCS12_get_IterationCount_m3005687235
wNm:_Collection_1_Clear_m2588360720_gshared
qZj:_DateTimeFormatInfo_get_RawMonthNames_m246920234
w0d:__Z25GetUnityConnectModuleSpecv
Wsm:_List_1_set_Item_m2082115010_gshared
KDk:_Encoding_GetBytes_m3735967069
Kpd:__ZN23ColliderTilingExtension5ResetEv
Kqi:_Array_Initialize_m3004991267
B4b:__ZN14GfxContextGLES43AddRenderSurfaceToDeferredFBOInvalidateListEPK17RenderSurfaceGLES
oWm:_ReadOnlyCollection_1_System_Collections_Generic_ICollectionU3CTU3E_get_IsReadOnly_m2225895556_gshared
$6o:__ZN6il2cpp6icalls8mscorlib6System9Threading6Thread15Thread_internalEP12Il2CppThreadP14Il2CppDelegate
_ma:__ZN14SerializedFile14SerializedTypeD2Ev
Vho:__ZL25UnresolvedVirtualCall_292P12Il2CppObjectiPK10MethodInfo
QAe:__ZN19Graphic_t166033561130set_m_OnDirtyLayoutCallback_14EP23UnityAction_t3245792599
rAf:__Z25Il2CppCodeGenWriteBarrierI24LocalBuilder_t3562264111EvPPT_S2_
MAd:__ZNSt3__26vectorIN20TextRenderingPrivate8FontImpl13CharacterInfoE13stl_allocatorIS3_L18MemLabelIdentifier1ELi16EEE6insertENS_11__wrap_iterIPKS3_EERS9_
Rnb:__ZN23PreloadManagerOperation6IsDoneEv
rfi:__ZNK46RemotingConfiguration_t4113740665_StaticFields16get__errorMode_5Ev
jBg:_InternalEnumerator_1_Dispose_m469889800_gshared
bpm:_List_1_GrowIfNeeded_m3796726_gshared
mzi:__ZNK29BitArrayEnumerator_t89349621814get__current_1Ev
jSo:__ZNK15dense_hashtableINSt3__24pairIK10KeyWrapperINS1_IPK10MethodInfoP11Il2CppClassEEEjEES9_17ReflectionMapHashIS8_EN14dense_hash_mapIS9_jSD_NS9_14EqualsComparerINS0_8equal_toIS8_EEEENS0_9allocatorISB_EEE9SelectKeyESI_SK_E8min_sizeEjj
KAa:__ZL44__ManagedRegistrationHelperFunction_LODProxyPv
Mzo:__ZNK15dense_hashtableINSt3__24pairIK10KeyWrapperIP9FieldInfoEiEES5_N6il2cpp5utils11PointerHashIS3_EEN14dense_hash_mapIS5_iSB_NS5_14EqualsComparerINS0_8equal_toIS4_EEEENS0_9allocatorIS7_EEE9SelectKeyESG_SI_E3endEv
Mud:__ZN10Effector2D10EndContactEP9b2Contact
_op:__ZN6il2cpp5utils11StringUtils11Utf16ToUtf8ERKNSt3__212basic_stringIDsNS2_11char_traitsIDsEENS2_9allocatorIDsEEEE
oxn:_Comparison_1__ctor_m2649066178_gshared
iGi:_MD4Managed_Decode_m4273685594
xhl:__Z50RuntimeInvoker_Int64_t3736567304_Int16_t2552820387PFvvEPK10MethodInfoPvPS4_
uto:_UnityEngineModuleAssembly__ctor_m242195730
Zyi:__ZN20BitArray_t408788350914set__version_2Ei
Jwn:__ZN14Uri_t10023632421set_cachedHashCode_15Ei
Cpb:__ZN21LightProbeProxyVolume18HasHardwareSupportEv
Skd:__ZNK20b2SeparationFunction17FindMinSeparationEPiS0_f
QDj:_IntPtr__ctor_m620280096
Oya:__ZN6prcoreL31inner_stretch_argb8888_bilinearEPKNS_9InnerInfoE
Gwm:__ZN17List_1_t89942091014set__version_3Ei
rId:_UNITY_FT_Outline_Decompose
JCj:_Int64_System_IConvertible_ToChar_m1509243576_AdjustorThunk
dNg:__ZNK35Comparer_1_t1597042847_StaticFields14get__default_0Ev
X0m:_GeneralNames_get_IPAddresses_m4242915644
Ycm:_Enumerator_Dispose_m3500272053_AdjustorThunk
ADo:__ZNSt3__24pairIK10KeyWrapperIN6il2cpp5utils13dynamic_arrayIPK10Il2CppTypeLj4EEEEPFvvEEC2ERKSD_
ref:__ZL84AudioSampleProvider_t3950279772_CustomAttributesCacheGenerator_sampleFramesAvailableP21CustomAttributesCache
wvg:__ZNK32InternalEnumerator_1_t398717028111get_array_0Ev
gQa:__Z20scripting_object_new17ScriptingClassPtr
ZBe:__ZN27GridLayoutGroup_t304622046119set_m_Constraint_16Ei
vIe:__ZL69RuntimeArray_CustomAttributesCacheGenerator_Array_Reverse_m3714848183P21CustomAttributesCache
Gym:_List_1_System_Collections_IList_Remove_m2868726600_gshared
bRk:_KeyGeneratedEventHandler_Invoke_m2527485594
Bak:__ZNK24StreamWriter_t126637890414get_byte_buf_5Ev
kFe:_Image_get_layoutPriority_m1290204116
PPo:__ZN24dense_hashtable_iteratorINSt3__24pairIK10KeyWrapperINS1_IPK9FieldInfoP11Il2CppClassEEEjEES9_17ReflectionMapHashIS8_EN14dense_hash_mapIS9_jSD_NS9_14EqualsComparerINS0_8equal_toIS8_EEEENS0_9allocatorISB_EEE9SelectKeyESI_SK_E30advance_past_empty_and_deletedEv
Wtn:_Repetition_get_Expression_m2673886232
fMj:__ZN23AssemblyName_t27093193814set_revision_5Ei
S8i:_Decimal__ctor_m1925875020_AdjustorThunk
C4f:_SerializationCallbacks__ctor_m3863304525
nwd:__GLOBAL__sub_I_TerrainScriptingClasses_cpp
gVa:__ZN18ShadowMapJobHeaderD0Ev
Ern:__ZN18Parser_t243050938310set_caps_2EP21ArrayList_t2718874744
xSe:__ZL59SerializationInfo_t950877179_CustomAttributesCacheGeneratorP21CustomAttributesCache
Qci:_ReturnMessage_get_Exception_m3375728265
Ekl:__Z44RuntimeInvoker_X509KeyUsageFlags_t1431795504PFvvEPK10MethodInfoPvPS4_
L:Math_exp
Mao:_Vector3_Min_m1803158933
kOk:__ZNK22DSAManaged_t280026018216get_m_disposed_3Ev
Kn:FUNCTION_TABLE_iiifi
dGi:__ZNK21MD4Managed_t95754006311get_state_4Ev
Ntd:__ZN13BoxCollider2D15InitializeClassEv
Hak:_StreamWriter_LowLevelWrite_m1081676583
x$m:_TlsServerSettings_set_CertificateTypes_m2047242411
FVn:_SymmetricTransform_OFB_m3690147804
$Ig:_InternalEnumerator_1_MoveNext_m3713722659_AdjustorThunk
H6d:__Z64ExecuteEvents_Execute_TisIDeselectHandler_t393712923_m2480832291P12Il2CppObjectP22GameObject_t1113636619P25BaseEventData_t3903027533P27EventFunction_1_t3373214253PK10MethodInfo
rUb:__ZN13MonoBehaviour9SetScriptERK4PPtrI10MonoScriptE18ScriptingObjectPtr
D_i:__ZN19Decimal_t29482593808set_hi_6Ej
WQb:__Z18Transfer_BlittableI18StreamedBinaryReadLb1E5RectTIiEEvRK29SerializationCommandArgumentsR31RuntimeSerializationCommandInfo
Wro:_RaycastHit2D_get_collider_m1549426026
uZo:__ZN14dense_hash_mapI10KeyWrapperINSt3__24pairIPK9FieldInfoP11Il2CppClassEEEj17ReflectionMapHashIS8_ENS9_14EqualsComparerINS1_8equal_toIS8_EEEENS1_9allocatorINS2_IKS9_jEEEEED2Ev
rKb:__Z18Transfer_BlittableI17RemapPPtrTransferLb0E8Vector2fEvRK29SerializationCommandArgumentsR31RuntimeSerializationCommandInfo
Eap:__ZNSt3__218uninitialized_copyIPNS_4pairIK10KeyWrapperIP14Il2CppIUnknownEjEES8_EET0_T_SA_S9_
Tuk:__ZN40SecurityElement_t1046076091_StaticFields29set_invalid_attr_name_chars_6EP22CharU5BU5D_t3528271667
pPg:__ZNK35Comparer_1_t3655984405_StaticFields14get__default_0Ev
T6l:__ZNK40RSAPKCS1KeyExchangeFormatter_t276109610112get_random_1Ev
yki:_PKCS12_get_RNG_m2649456600
rvb:__ZNK10FileSystem16LastErrorMessageEv
d5j:__ZN32FileNotFoundException_t22539102515set_fileName_11EP8String_t
z0e:__ZL104NativeClassAttribute_t2601352714_CustomAttributesCacheGenerator_U3CQualifiedNativeNameU3Ek__BackingFieldP21CustomAttributesCache
ndb:__ZN4PPtrI11LightProbesE8TransferI18StreamedBinaryReadEEvRT_
Too:_CustomEventData_Internal_Destroy_m3916992396
Rxo:__ZN15dense_hashtableINSt3__24pairIK10KeyWrapperIPK11Il2CppClassEPKcEES6_N6il2cpp5utils11PointerHashIS3_EEN14dense_hash_mapIS6_S9_SE_NS6_14EqualsComparerINS0_8equal_toIS5_EEEENS0_9allocatorISA_EEE9SelectKeyESJ_SL_E14squash_deletedEv
u3n:__Z25Il2CppCodeGenWriteBarrierI27DownloadHandler_t2937767557EvPPT_S2_
dae:_EventSystem_Update_m1662072334
hBk:_SystemException__ctor_m4132668650
O2d:__ZN22UnityWebRequestManager10InitializeEv
Gnb:__ZNSt3__26__treeINS_12__value_typeIN4core12basic_stringIcNS2_20StringStorageDefaultIcEEEE4PPtrI6ObjectEEENS_19__map_value_compareIS6_SA_NS_4lessIS6_EELb1EEE13stl_allocatorISA_L18MemLabelIdentifier52ELi16EEE15__emplace_multiIJRNS_4pairIS6_S9_EEEEENS_15__tree_iteratorISA_PNS_11__tree_nodeISA_PvEEiEEDpOT_
qwp:__ZN6il2cpp6icalls8mscorlib6System10Reflection4Emit13ModuleBuilder20create_modified_typeEP27Il2CppReflectionTypeBuilderP12Il2CppString
ksp:__ZN6il2cpp8metadataL7CompareIhEEiRKT_S4_
hAd:_raccess_guess_darwin_newvfs
Xdb:__ZN8Renderer23VirtualRedirectTransferER18StreamedBinaryRead
bLb:__ZL26Transfer_SimpleNativeClassI17RemapPPtrTransfer8GradientLb1EEvRK29SerializationCommandArgumentsR31RuntimeSerializationCommandInfo
U8d:_RaycasterManager_RemoveRaycasters_m3057093063
lJc:__ZN12CachedWriter9InitWriteER15CacheWriterBase
iMc:__Z21UnsignedInt64ToStringy
K1n:__Z26List_1_set_Item_m658432263P17List_1_t899420910i19Vector3_t3722313464PK10MethodInfo
Hhh:_GetRaycastNonAllocCallback_BeginInvoke_m3984885848
Zvg:_InternalEnumerator_1_MoveNext_m4138204635_AdjustorThunk
Vnn:_PatternCompiler_BeginLink_m1295557963
$zk:__ZN33Encoding_t1523322056_StaticFields24set_isoLatin1Encoding_23EP20Encoding_t1523322056
gsf:__ZL70CanvasScaler_t2767979955_CustomAttributesCacheGenerator_m_PhysicalUnitP21CustomAttributesCache
p1j:_GuidParser_ThrowFormatException_m3223388534
Atn:_Group_GetAnchorInfo_m3730312864
bpf:__ZL50Graphic_t1660335611_CustomAttributesCacheGeneratorP21CustomAttributesCache
bKg:__Z44InternalEnumerator_1_get_Current_m2297647799P32InternalEnumerator_1_t2261582729PK10MethodInfo
Rbh:__ZNK38LayoutUtility_t2745813735_StaticFields26get_U3CU3Ef__amU24cache0_0Ev
hYg:_KeyCollection_System_Collections_Generic_ICollectionU3CTKeyU3E_Add_m454648927_gshared
q$k:_TimeSpan_op_LessThanOrEqual_m300470010
Gup:_GC_print_static_roots
Fgf:__ZL139AnimatorOverrideController_t3582062219_CustomAttributesCacheGenerator_AnimatorOverrideController_OnInvalidateOverrideController_m3380737075P21CustomAttributesCache
z2h:_ContextAttribute_Freeze_m3288175579
PS:__ZN15SerializeTraitsI9OffsetPtrIN7mecanim9animation17BlendTreeConstantEEE8TransferI19StreamedBinaryWriteEEvRS4_RT_
RHh:__Z76Enumerable_SingleOrDefault_TisMessageTypeSubscribers_t1684935770_m2109312684P12Il2CppObjectS0_P18Func_2_t2172606577PK10MethodInfo
OAo:__ZNSt3__218uninitialized_fillIPNS_4pairIK10KeyWrapperIPK19Il2CppGenericMethodEPK26Il2CppGenericMethodIndicesEESB_EEvT_SD_RKT0_
jta:__ZZN15DirectorManager15InitializeClassEvEN41FixedUpdateDirectorFixedUpdateRegistrator7ForwardEv
yWo:__ZN6il2cpp2vmL10IsAssemblyEP12Il2CppObject
M7j:_MemoryStream_get_Position_m3733941202
Cyp:__ZN6il2cpp2os9MutexImpl7TryLockEjb
pKn:_ListPool_1_Clear_m2587502754_gshared
rup:_GC_clear_fl_links
Ryf:_GenericTypeParameterBuilder_InvokeMember_m1647304778
Kal:__Z58RuntimeInvoker_RuntimeTypeHandle_t3027515415_RuntimeObjectPFvvEPK10MethodInfoPvPS4_
zcn:_GUIClip_Push_m1724200065
ftk:__ZN20Evidence_t200814414826set_assemblyEvidenceList_2EP21ArrayList_t2718874744
htc:__ZL10KeyHandleriPK23EmscriptenKeyboardEventPv
HWi:_Slot_t3975888750_marshal_pinvoke
WNp:_glLinkProgram__wrapper
Ktb:__ZN18ScriptingArguments8AddInt64Ex
Zxa:__ZN6prcoreL12RemapGenericI17TexFormatARGB888815TexFormatBGR888EEvPKNS_9InnerInfoE
lFb:__ZN26SinglePassStereoSupportExt19SaveStereoConstantsEv
Hua:__ZNSt3__26vectorIP10MemoryPool13stl_allocatorIS2_L18MemLabelIdentifier76ELi16EEE21__push_back_slow_pathIRKS2_EEvOT_
J0j:_TextInfo_get_ListSeparator_m1628160079
_lf:__ZL77ExecuteEvents_t3484638744_CustomAttributesCacheGenerator_U3CU3Ef__mgU24cache6P21CustomAttributesCache
Qnh:_Selectable_OnCanvasGroupChanged_m472903475
UHn:_UnityEvent_4__ctor_m831487108_gshared
UXh:__ZNK32CADMethodReturnMessage_t2812984718get__returnValue_4Ev
gNi:_ClientContext_get_SslStream_m1583577309
E9o:__ZN6il2cpp6icalls8mscorlib6System13Globalization11CultureInfo35construct_internal_locale_from_nameEP17Il2CppCultureInfoP12Il2CppString
mRm:_ReadOnlyCollection_1_System_Collections_IList_set_Item_m4015530489_gshared
cqo:__ZL18incMultConstant128PyS_ii
iNb:__ZL22Transfer_ManagedObjectI24GenerateTypeTreeTransferLb1EEvRK29SerializationCommandArgumentsR31RuntimeSerializationCommandInfo
f8k:__Z100RuntimeInvoker_Boolean_t97287965_RuntimeObject_Int32_t2950945753_RuntimeObject_UInt16U26_t2814738322PFvvEPK10MethodInfoPvPS4_
Azl:__Z56RuntimeInvoker_ILTokenInfo_t2325775114_Int32_t2950945753PFvvEPK10MethodInfoPvPS4_
lhg:_HMAC_get_BlockSizeValue_m455678067
Mbc:__ZN15RenderNodeQueueC2E10MemLabelId
kJo:__ZN6il2cpp2vm21ThreadPoolCompartment20SpawnNewWorkerThreadEv
rWf:_ResourceEnumerator_FillCache_m1661715061
TSm:_ReadOnlyCollection_1_System_Collections_IList_IndexOf_m3664838805_gshared
rOd:__ZL17CleanupModule_TLSv
AUe:__ZL72SecuritySafeCriticalAttribute_t3505979402_CustomAttributesCacheGeneratorP21CustomAttributesCache
zi:_emscripten_set_main_loop_timing
Yth:_Bounds_get_min_m3755135869
c4i:_Convert_ToUInt16_m3523269149
Fth:_Bounds_get_center_m1418449258
ohp:__ZN24dense_hashtable_iteratorINSt3__24pairIK10KeyWrapperIP12Il2CppObjectEN6il2cpp2gc9CachedCCWEEES5_NS7_5utils11PointerHashIS3_EEN14dense_hash_mapIS5_S9_SD_NS5_14EqualsComparerINS0_8equal_toIS4_EEEENS0_9allocatorISA_EEE9SelectKeyESI_SK_EC2EPK15dense_hashtableISA_S5_SD_SM_SI_SK_EPSA_SS_b
Hoe:__ZNK19Vector3_t37223134647get_y_3Ev
B2b:__ZN14DataBufferGLES12RecordRenderEv
Gbe:_ExecuteEvents_get_endDragHandler_m2879610446
AO:__ZNSt3__26vectorIN9Animation15QueuedAnimationE13stl_allocatorIS2_L18MemLabelIdentifier26ELi16EEE21__push_back_slow_pathIRKS2_EEvOT_
THj:__ZNK34DefaultMemberAttribute_t327509242217get_member_name_0Ev
Koc:__ZN14ImageReference10FlipImageYEv
RHc:__Z29Input_CUSTOM_GetKeyDownStringP12Il2CppString
PNm:_Collection_1_IsSynchronized_m1221696663_gshared
Qwa:__ZN6prcoreL17RGBAFloatToRGB9e5EPKNS_9InnerInfoE
SBm:__ZN19Stack_1_t392349561923get_address_of__array_0Ev
RIg:__Z44InternalEnumerator_1_get_Current_m3792939945P31InternalEnumerator_1_t982565223PK10MethodInfo
QOa:__ZN21ScalableBufferManager20GetHeightScaleFactorEv
jwc:__ZNSt3__26vectorIN9ShaderLab20SerializedSubProgram15VectorParameterENS_9allocatorIS3_EEE8__appendEj
_Ln:__ZN30Board_t3688305287_StaticFields12set_coins_19Ei
bX:__ZN4FMOD3DSP9setBypassEb
Zsc:__Z19NormalizeWheelInputf
jAe:_Graphic_DoMeshGeneration_m3548487693
Yrc:__Z29StdTemplateConversionFunctionIsaEbPvR14SafeBinaryRead
LH:__ZN11KeyframeTplIfE8TransferI14SafeBinaryReadEEvRT_
T4n:__ZN37WWWTranscoder_t272523958_StaticFields16set_lcHexChars_1EP22ByteU5BU5D_t4116647657
MB:__ZNK4PPtrI13MonoBehaviourEcvPS0_Ev
tqn:_Repetition__ctor_m1672362629
Ncd:__Z29Transfer_Blittable_ArrayFieldI8JSONReadhEvRT_R9ArrayInfoRK23StaticTransferFieldInfo
gwk:_SecurityFrame_ToString_m339310712_AdjustorThunk
Wwe:__ZN19FontData_t74662006917set_m_FontStyle_2Ei
cAc:__ZN11MonoManager25GetImageFromAssemblyIndexEi
Mrg:_InternalEnumerator_1_get_Current_m3008260692_gshared
rBp:__ZN6il2cpp2os20ThreadLocalValueImpl8SetValueEPv
Yqp:__ZN6il2cpp2os11Environment17GetProcessorCountEv
R1i:_Decimal_op_Implicit_m2299919277
y7c:__Z18Transfer_BlittableI9JSONWriteLb1EtEvRK29SerializationCommandArgumentsR31RuntimeSerializationCommandInfo
dPj:__ZNK30ConstructorBuilder_t281352410816get_parameters_3Ev
aHf:__ZN31OpCodes_t126150456_StaticFields15set_Ldc_I4_1_23E17OpCode_t123070264
hck:_UnexceptionalStreamReader_ReadToEnd_m920589220
Q6i:_DateTime_System_IConvertible_ToType_m1242864300
Byk:_String_IndexOf_m1298810678
Fe:___syscall85
pQd:__ZN2UI14CanvasRenderer18UpdateTRSHierarchyEb
qUo:__ZNK24dense_hashtable_iteratorINSt3__24pairIK10KeyWrapperINS1_IPK12PropertyInfoP11Il2CppClassEEEjEES9_17ReflectionMapHashIS8_EN14dense_hash_mapIS9_jSD_NS9_14EqualsComparerINS0_8equal_toIS8_EEEENS0_9allocatorISB_EEE9SelectKeyESI_SK_EdeEv
Mpo:_Mesh_GetAllocArrayFromChannel_TisVector3_t3722313464_m2332439905_gshared
n5o:__ZN6il2cpp5utils10StringViewIDsE5EmptyEv
sCp:__ZN6il2cpp2os12MarshalAlloc4FreeEPv
Rbc:__ZNSt3__26__sortIRPFbP10GUIElementS2_EPS2_EEvT0_S7_T_
_Dc:__ZN16GraphicsSettings12CleanupClassEv
HJg:__Z44InternalEnumerator_1_get_Current_m1534474313P31InternalEnumerator_1_t669594426PK10MethodInfo
yAk:_EncoderFallback_get_ReplacementFallback_m818398284
_lp:__ZN6il2cpp2os6Thread19DetachCurrentThreadEv
Qae:_EventTrigger_OnBeginDrag_m4203438710
YZh:_ClientActivatedIdentity_OnLifetimeExpired_m635240647
VFb:__ZN11MonoManager23VirtualRedirectTransferER24GenerateTypeTreeTransfer
sIl:_Dictionary_2_Do_CopyTo_TisRuntimeObject_TisRuntimeObject_m2344529027_gshared
zKj:__Z25Il2CppCodeGenWriteBarrierI30ResolveEventHolder_t2120639521EvPPT_S2_
OC:__ZN23AnimationPlayableOutput17SetSourcePlayableEP8Playable
qfd:__GLOBAL__sub_I_Modules_Physics2D_0_cpp
gBh:_SupportedRenderingFeatures_set_active_m3446087961
N4f:__ZN24TypeMetadata_t313952326017set_MemberTypes_1EP22TypeU5BU5D_t3940880105
FAl:__Z37RuntimeInvoker_UILineInfo_t4195266810PFvvEPK10MethodInfoPvPS4_
Dwh:_CullingGroup_Dispose_m782801025
VTl:_Dictionary_2_System_Collections_IDictionary_GetEnumerator_m529247385_gshared
gng:__Z38InternalEnumerator_1__ctor_m3349908318P32InternalEnumerator_1_t1004352082P11Il2CppArrayPK10MethodInfo
E8:__ZN11UnityEngine15CloudWebService14DataDispatcher15SetupWebRequestEv
Z$l:_EqualityComparer_1_get_Default_m1038871402_gshared
FXd:__ZN11UnityEngine15PlatformWrapper13GetShaderCapsEv
Zuf:__ZL82dreamloLeaderBoard_t2767863335_CustomAttributesCacheGenerator_U3CU3Ef__amU24cache0P21CustomAttributesCache
Ujc:__ZNSt3__211__sift_downIR26RenderDeferredObjectSorterP16RenderObjectDataEEvT0_S5_T_NS_15iterator_traitsIS5_E15difference_typeES5_
Uff:__ZL99CertificateHandler_t2739891000_CustomAttributesCacheGenerator_CertificateHandler_Release_m648790222P21CustomAttributesCache
Jgg:__ZN16VirtFuncInvoker1IP22ByteU5BU5D_t4116647657S1_E6InvokeEjP12Il2CppObjectS1_
Xyf:_GenericTypeParameterBuilder_IsDefined_m98179866
_jf:__ZL82Physics2D_t1528932956_CustomAttributesCacheGenerator_Physics2D_Raycast_m1377762210P21CustomAttributesCache
Sen:_GUILayoutEntry__ctor_m1644640309
XOk:_KeyPairPersistence_get_MachinePath_m3812267291
LZi:_Stack_Peek_m2216191248
D6i:_DateTime_System_IConvertible_ToDecimal_m1044850612_AdjustorThunk
LHc:__ZN21FixedBehaviourManager6UpdateEv
CRc:__ZN9Transform9SetParentEPS_NS_15SetParentOptionE
Jpp:__ZN6il2cpp2vm13ComObjectBase16GetWeakReferenceEPP20Il2CppIWeakReference
Ven:__ZNK26GUILayoutGroup_t215778969515get_m_Cursor_17Ev
TSa:__ZN19ShaderPropertySheet8SetFloatEN9ShaderLab16FastPropertyNameEfNS_8SetFlagsE
mQg:__Z34KeyValuePair_2_get_Key_m1839753989P24KeyValuePair_2_t71524366PK10MethodInfo
vrn:__ZN25CharacterClass_t83912086014set_pos_cats_3EP20BitArray_t4087883509
tob:__ZN19RuntimeSceneManager24BeginIntegrateMainThreadEP10UnityScene
NSf:__ZNK25ParameterInfo_t186105659815get_marshalAs_6Ev
xSd:__ZN2UI17SystemProfilerApi9EndSampleENS0_10SampleTypeE
TUo:__ZNK30dense_hashtable_const_iteratorINSt3__24pairIK10KeyWrapperINS1_IPK12PropertyInfoP11Il2CppClassEEEjEES9_17ReflectionMapHashIS8_EN14dense_hash_mapIS9_jSD_NS9_14EqualsComparerINS0_8equal_toIS8_EEEENS0_9allocatorISB_EEE9SelectKeyESI_SK_EptEv
ARi:_TlsServerCertificate_ProcessAsSsl3_m1306583193
$mp:__ZNSt3__2plIcNS_11char_traitsIcEENS_9allocatorIcEEEENS_12basic_stringIT_T0_T1_EERKS9_S6_
Tak:_StringReader_CheckObjectDisposedException_m3796163530
Z2k:_UInt32_System_IConvertible_ToInt16_m1659441601
Kjg:__ZN30GenericInterfaceActionInvoker2IP12Il2CppObjectS1_E6InvokeEPK10MethodInfoS1_S1_S1_
twc:__ZN9ShaderLab20SerializedSubProgramaSERKS0_
wIp:_roundf
Mti:_Byte_System_IConvertible_ToSingle_m324484566_AdjustorThunk
sOo:__ZNK14dense_hash_mapI10KeyWrapperINSt3__24pairIPK14Il2CppAssemblyP11Il2CppClassEEEj17ReflectionMapHashIS8_ENS9_14EqualsComparerINS1_8equal_toIS8_EEEENS1_9allocatorINS2_IKS9_jEEEEE9SelectKeyclERKSI_
cFa:__ZN9Scripting11UnityEngine12Experimental3U2D15SpriteBoneProxy9InitProxyEv
X_i:_Decimal_op_Explicit_m2848387298
XIk:__ZN25SortKeyBuffer_t294527527014set_options_21Ei
M8l:_KeyValuePair_2_ToString_m1238786018_gshared
Uv:__ZN8Animator15SetPrepareStageEv
eOj:__ZN26AssemblyBuilder_t35988525013set_access_24Ej
kih:__ZN22ScrollRect_t413785581418set_m_Horizontal_5Eb
vU:__ZN8AnimatorC2E10MemLabelId18ObjectCreationMode
gvo:__ZN6il2cpp2vmL24SetupTypeHierarchyLockedEP11Il2CppClassRKNS_2os12FastAutoLockE
f7f:__ZNK31OpCodes_t126150456_StaticFields11get_Box_137Ev
Sxk:_String_Clone_m3573869765
J4g:_InputField_set_selectionAnchorPosition_m68980541
bpk:__ZN25SHA512Managed_t178733633911set_wOff_17Ei
itc:__ZL11TextHandleriPK23EmscriptenKeyboardEventPv
fhc:__Z20CalculateLightMatrixRK15SharedLightDataP10Matrix4x4f
f8b:__ZNSt3__26vectorIP17FileSystemHandlerNS_9allocatorIS2_EEE21__push_back_slow_pathIRKS2_EEvOT_
_zd:_destroy_face
FMk:_ASN1_get_Length_m1923878580
bnn:__ZNK17Regex_t365730985314get_roptions_8Ev
K9f:_SerializableTypeMetadata_WriteTypeData_m1099030367
ePp:_glBlendEquationSeparate__wrapper
zYd:__ZNSt3__26vectorIPN11UnityEngine15CloudWebService14CloudEventInfoE13stl_allocatorIS4_L18MemLabelIdentifier88ELi16EEE21__push_back_slow_pathIS4_EEvOT_
OYj:__ZN36CultureInfo_t4157843068_StaticFields23set_shared_by_number_36EP21Hashtable_t1853889766
Hxp:__ZN6il2cpp6icalls8mscorlib6System8Security12Cryptography24RNGCryptoServiceProvider13RngInitializeEP11Il2CppArray
x9f:_CodeGenerator__cctor_m3167429173
k0e:__ZL68UsedByNativeCodeAttribute_t1703770351_CustomAttributesCacheGeneratorP21CustomAttributesCache
Zmn:_Regex_get_RightToLeft_m2317867572
SZ:__ZN20SoundChannelInstance7setMuteEb
n8k:__Z81RuntimeInvoker_Void_t1185182177_RuntimeObject_Int32_t2950945753_Int32_t2950945753PFvvEPK10MethodInfoPvPS4_
fdi:__ZNK33ServerObjectReplySink_t296604298615get__identity_1Ev
U6i:_DateTimeUtils_ToString_m1782212840
Jom:_List_1__cctor_m972674764_gshared
mzn:_Comparison_1_EndInvoke_m4192439227_gshared
xJj:_NumberFormatter_NumberToString_m3906556024
Mup:_set_bits
bcf:__ZL85Logger_t274032455_CustomAttributesCacheGenerator_Logger_set_filterLogType_m3622751173P21CustomAttributesCache
mud:__ZN7b2World18SetContactListenerEP17b2ContactListener
Q2b:__ZN18GfxFramebufferGLES22MakeCurrentFramebufferENS_7BuiltinE
drp:__ZN6il2cpp2vm12MarshalAlloc4FreeEPv
B8o:__ZN6il2cpp5utils13dynamic_arrayIP12Il2CppObjectLj4EE8allocateEj
zhp:__ZNK24dense_hashtable_iteratorINSt3__24pairIK10KeyWrapperIP12Il2CppObjectEN6il2cpp2gc9CachedCCWEEES5_NS7_5utils11PointerHashIS3_EEN14dense_hash_mapIS5_S9_SD_NS5_14EqualsComparerINS0_8equal_toIS4_EEEENS0_9allocatorISA_EEE9SelectKeyESI_SK_EeqERKSN_
Mnh:__ZN22Selectable_t325002844143set_U3CisPointerInsideU3Ek__BackingField_14Eb
iXa:__ZN12CachedReader4ReadEPvj
Zgh:__Z25Il2CppCodeGenWriteBarrierI49GetRayIntersectionAllNonAllocCallback_t2311174851EvPPT_S2_
ffi:__ZN46RemotingConfiguration_t4113740665_StaticFields28set_wellKnownClientEntries_6EP21Hashtable_t1853889766
sUf:_TypeFilter_EndInvoke_m998903841
bje:_StandaloneInputModule_ProcessMouseEvent_m2923582521
EKc:__Z18RegisterUnityClassI11GameManagerEvPKc
FLe:__ZL112RegionInfo_t1090270226_CustomAttributesCacheGenerator_RegionInfo_t1090270226____CurrencyEnglishName_PropertyInfoP21CustomAttributesCache
Vkf:__ZL49Canvas_t3310196443_CustomAttributesCacheGeneratorP21CustomAttributesCache
kRf:_MonoMethod_ShouldPrintFullName_m1607666412
ebh:__Z27List_1_RemoveAll_m156087608P18List_1_t3395709193P23Predicate_1_t2748928575PK10MethodInfo
QXi:__ZNK35SortedList_t2427694641_StaticFields18get_INITIAL_SIZE_0Ev
rgc:__Z24CalculateLightShadowFadeRK6CamerafffR8Vector4f
QBf:__ZN25MethodBuilder_t280731675311set_rtype_1EP6Type_t
gka:__ZN19RuntimeSceneManagerD2Ev
zHh:_PlayerConnectionInternal__ctor_m2406218802
c$n:__Z25Il2CppCodeGenWriteBarrierI17Object_t631007953EvPPT_S2_
Efn:__ZNK20GUIStyle_t395690151115get_m_Margin_11Ev
kUj:_CCGregorianCalendar_GetMonth_m1547203696
_Sk:_StringBuilder_get_Chars_m1819843468
XQb:__Z18Transfer_BlittableI18StreamedBinaryReadLb0E10Matrix4x4fEvRK29SerializationCommandArgumentsR31RuntimeSerializationCommandInfo
SXl:_DefaultComparer__ctor_m1019370711_gshared
Yvn:__ZN27Uri_t100236324_StaticFields20set_UriSchemeNews_24EP8String_t
fym:_List_1_RemoveAt_m3304170338_gshared
qip:__ZN6il2cpp2osL23ConvertAccessModeToUnixEi
sCm:_Collection_1_IndexOf_m934463944_gshared
usd:__ZN13BoxCollider2DD0Ev
F_i:__ZN19Decimal_t29482593808set_lo_7Ej
D5i:__ZNK33CurrentSystemTimeZone_t399835225522get_utcOffsetWithDLS_8Ev
lBe:__ZN28GraphicRaycaster_t299969710914set_m_Canvas_8EP18Canvas_t3310196443
kUf:_TypeDelegator_IsPrimitiveImpl_m2362421338
vKh:_CreateOutputMethod_BeginInvoke_m3202548900
_Le:__ZL51Directory_t828876208_CustomAttributesCacheGeneratorP21CustomAttributesCache
pri:_SimpleEnumerator_Reset_m2182001888
sHa:__ZN9Scripting11UnityEngine16ApplicationProxy9InitProxyEv
kxl:__Z86RuntimeInvoker_Int32_t2950945753_Vector2_t2156229523_Vector2_t2156229523_RuntimeObjectPFvvEPK10MethodInfoPvPS4_
STc:__ZN9BlobWrite14ReduceCopyImplERK14ReduceCopyDataj
Xjk:_Array_LastIndexOf_TisRuntimeObject_m1677937501_gshared
d1j:__ZN6Guid_t8set__j_9Eh
y4:__ZN11AudioSource18IsPlayingScriptingEv
COk:_KeyBuilder_IV_m2230195376
chd:__ZNK12b2WheelJoint10GetAnchorAEv
VRp:_glShaderSource__wrapper
gxb:__ZN25MultiBlocksMemoryFileData17AdjustBlocksCountEj
G6o:__ZNSt3__214__split_bufferIN6il2cpp2vm22EmbeddedResourceRecordERNS_9allocatorIS3_EEED2Ev
Dlp:__ZN6il2cpp5utils13dynamic_arrayIPNS_2os6ThreadELj4EE10reallocateEPS4_j
Oqd:__ZN10ClipperLib14PointInPolygonERKNS_8IntPointEPNS_5OutPtE
Q1j:__ZNK6Guid_t8get__d_3Ev
dyd:__ZN13TextRendering4Font8TransferI24GenerateTypeTreeTransferEEvRT_
NBb:__ZN9GfxDevice15EndProfileEventEPN9profiling6MarkerE
gwo:__ZN6il2cpp2vm5Class9HasParentEP11Il2CppClassS3_
CNg:_Comparer_1__ctor_m319670016_gshared
dl:_glStencilMask
Jmp:__ZN6il2cpp2os10ThreadImpl16GetCurrentThreadEv
thj:_TypeConverterAttribute_GetHashCode_m948291090
Knh:__ZN22Selectable_t325002844132get_address_of_m_Interactable_10Ev
$sc:__ZN15GUIEventManager10QueueEventERK10InputEvent
_Ea:__ZN9Scripting11UnityEngine15GameObjectProxy9InitProxyEv
$cn:__ZNK26GUILayoutGroup_t215778969515get_isWindow_15Ev
ODm:_Collection_1_Clear_m1300437781_gshared
gxo:_AnalyticsEvent_OnValidationFailed_m2609604624
jhf:__ZL62EventType_t3528516131_CustomAttributesCacheGenerator_mouseMoveP21CustomAttributesCache
PGl:_Array_Sort_TisScore_t1179825972_TisScore_t1179825972_m2169723887_gshared
EXf:_DecimalConstantAttribute__ctor_m3583301917
pjn:__ZN35GUIUtility_t1868551600_StaticFields16set_s_SkinMode_0Ei
jDa:__ZN9Scripting11UnityEngine9Rendering18CommandBufferProxy12CleanupProxyEv
yI:__ZN24GenerateTypeTreeTransfer21TransferSTLStyleArrayINSt3__26vectorI24CompressedAnimationCurve13stl_allocatorIS3_L18MemLabelIdentifier26ELi16EEEEEEvRT_17TransferMetaFlags
Ika:__ZNSt3__227__insertion_sort_incompleteIRPFbRKN18AwakeFromLoadQueue4ItemES4_EPS2_EEbT0_S9_T_
hup:_GC_push_conditional_with_exclusions
Yy:__ZN21AnimationPosePlayableD0Ev
ZJd:_Compute_Point_Displacement
RWe:__ZL80Convert_t2465617642_CustomAttributesCacheGenerator_Convert_ToDecimal_m2858622624P21CustomAttributesCache
AEh:__ZNK37MathfInternal_t624072491_StaticFields22get_FloatMinDenormal_1Ev
whb:__Z31DrawSpriteDeformedFromNodeQueueRK15RenderNodeQueuej16VertexInputMasksi
sAc:__Z44Register_UnityEngine_RenderTexture_set_depthv
pWg:__Z59Enumerator_System_Collections_IEnumerator_Reset_m4278714428P21Enumerator_t185561725PK10MethodInfo
F2m:__ZNK26X509Certificate_t48924302521get_m_keyalgoparams_7Ev
Qvh:_Component_GetComponentInParent_m779177818
MFo:__ZN15dense_hashtableINSt3__24pairIK10KeyWrapperIPK11Il2CppClassEPKcEES6_N6il2cpp5utils11PointerHashIS3_EEN14dense_hash_mapIS6_S9_SE_NS6_14EqualsComparerINS0_8equal_toIS5_EEEENS0_9allocatorISA_EEE9SelectKeyESJ_SL_E13clear_deletedER30dense_hashtable_const_iteratorISA_S6_SE_SN_SJ_SL_E
Ien:_GUILayout_DoLabel_m607126153
T_h:__ZN21InterfaceFuncInvoker1IP8String_tS1_E6InvokeEjP11Il2CppClassP12Il2CppObjectS1_
SNd:_unitytls_x509_export_der
ngp:___cxx_global_var_init_1_43275
iQb:__Z18Transfer_BlittableI18StreamedBinaryReadLb1EiEvRK29SerializationCommandArgumentsR31RuntimeSerializationCommandInfo
rEj:_InvalidOperationException__ctor_m1685032583
dJl:_Dictionary_2_Do_ICollectionCopyTo_TisKeyValuePair_2_t1377593753_m4023145528_gshared
Ohp:__ZN6il2cpp2vm12GenericClass17GetTypeDefinitionEP18Il2CppGenericClass
Dih:__ZN22ScrollRect_t413785581415set_m_Content_4EP25RectTransform_t3704657025
kRl:_Dictionary_2_System_Collections_ICollection_get_SyncRoot_m2069913662_gshared
rke:_UIBehaviour_IsDestroyed_m3033055982
PTi:__Z25Il2CppCodeGenWriteBarrierI28HandshakeMessage_t3696583168EvPPT_S2_
dkl:__Z109RuntimeInvoker_Void_t1185182177_RuntimeObject_RuntimeObject_SByte_t1669577662_Int32_t2950945753_RuntimeObjectPFvvEPK10MethodInfoPvPS4_
Zsm:__ZN18List_1_t137237425612set__items_1EP28UILineInfoU5BU5D_t1655937503
KUh:_Enumerator_Reset_m39541243
s4g:_InputField_get_readOnly_m3111985574
XXa:__ZN14RenderSettings27UpdateIndirectSpecularColorEv
X4e:__ZL59RectOffset_t1369453676_CustomAttributesCacheGenerator_m_PtrP21CustomAttributesCache
ku:__ZN9Scripting11UnityEngine10Animations27AnimationMixerPlayableProxy9InitProxyEv
pLo:__ZN6il2cpp6icalls8mscorlib6System8MonoType16GetMethodsByNameEP20Il2CppReflectionTypeP12Il2CppStringibS5_
MRe:__ZL73ObjRef_t2141158884_CustomAttributesCacheGenerator_U3CU3Ef__switchU24map26P21CustomAttributesCache
H1n:__Z26List_1_get_Item_m783205072P17List_1_t496136383iPK10MethodInfo
Ymf:__ZL102PointerEventData_t3807901092_CustomAttributesCacheGenerator_PointerEventData_set_pointerId_m1888344330P21CustomAttributesCache
Hef:__ZL88AudioClip_t3680889665_CustomAttributesCacheGenerator_AudioClip_get_ambisonic_m3815052287P21CustomAttributesCache
TS:__Z17TransferOffsetPtrI9OffsetPtrI8Vector2fE19StreamedBinaryWriteEvRT_PKcRjRT0_
qah:_U3CDelayedSetDirtyU3Ec__Iterator0__ctor_m3936335621
hDp:_strncmp
Ueb:__ZN4PPtrI10GameObjectE8TransferI14SafeBinaryReadEEvRT_
n4m:__ZNK26X509Certificate_t48924302515get_m_subject_9Ev
Dbf:__ZL106PlayableAsset_t3219022681_CustomAttributesCacheGenerator_PlayableAsset_Internal_CreatePlayable_m2550417712P21CustomAttributesCache
qXe:__ZL78Convert_t2465617642_CustomAttributesCacheGenerator_Convert_ToSByte_m2486156346P21CustomAttributesCache
Tmn:__Z25Il2CppCodeGenWriteBarrierI17Match_t3408321083EvPPT_S2_
e7m:_Event_set_type_m3901523645
Z7l:_RijndaelTransform__cctor_m2439033240
YYb:__ZNSt3__27__sort3IRNS_4lessIN22BuiltinResourceManager8ResourceEEEPS3_EEjT0_S7_S7_T_
fVb:__Z23TransferScriptingObjectI19StreamedBinaryWriteEvRT_18ScriptingObjectPtr17ScriptingClassPtrPK15MonoScriptCache
YIe:__ZL175U3CGetEnumeratorU3Ec__Iterator0_t1202911786_CustomAttributesCacheGenerator_U3CGetEnumeratorU3Ec__Iterator0_System_Collections_Generic_IEnumeratorU3CTU3E_get_Current_m322251035P21CustomAttributesCache
Nco:__ZL24UnresolvedVirtualCall_14P12Il2CppObject25RSAParameters_t1728406613PK10MethodInfo
ZKd:_ps_hints_t2mask
LJl:_LayoutGroup_SetProperty_TisVector2_t2156229523_m2721164497_gshared
Oek:_Array_InternalArray__ICollection_Remove_TisMonoResource_t4103430009_m238733686_gshared
bEj:_IntPtr_ToString_m1831665121
ral:__Z74RuntimeInvoker_Int32_t2950945753_RuntimeObject_RuntimeObject_RuntimeObjectPFvvEPK10MethodInfoPvPS4_
Eph:_Slider_Set_m1476104429
BUf:__ZN28GenericInterfaceFuncInvoker1IP10Assembly_tP28ResolveEventArgs_t1779456501E6InvokeEPK10MethodInfoP12Il2CppObjectS3_
_De:_Image_set_fillClockwise_m2210525152
FKc:__Z18RegisterUnityClassI12ScriptMapperEvPKc
rEb:__ZNSt3__26vectorIN20GpuProgramParameters14ConstantBufferENS_9allocatorIS2_EEE21__push_back_slow_pathIRKS2_EEvOT_
GFl:_Array_Resize_TisUILineInfo_t4195266810_m2197625248_gshared
RIh:_PlayerConnection_DisconnectedCallback_m1697017309
gkb:__Z19GetTimeSinceStartupv
Ith:__ZNK18Bounds_t226683791014get_m_Center_0Ev
UEe:_Image_AddQuad_m2161647989
Esk:__ZNK40SecurityElement_t1046076091_StaticFields30get_invalid_attr_value_chars_7Ev
w8d:_BaseInputModule_DeactivateModule_m856719157
xmp:__ZN6il2cpp2os10ThreadImpl11SetPriorityENS0_14ThreadPriorityE
Chm:_Enumerator_System_Collections_IEnumerator_Reset_m2953002685_gshared
gal:__Z50RuntimeInvoker_Int64_t3736567304_Int32_t2950945753PFvvEPK10MethodInfoPvPS4_
pCe:__ZNK27GridLayoutGroup_t304622046116get_m_Spacing_15Ev
d8d:__Z25List_1_Remove_m4063777476P18List_1_t2585711361P22GameObject_t1113636619PK10MethodInfo
tKd:_TT_Load_Composite_Glyph
HTk:_UTF32Encoding_GetDecoder_m3364062151
zxo:___cxx_global_var_init_11_41806
RBb:__ZN9GfxDevice16DeleteTimerQueryEP13GfxTimerQuery
Ywm:_List_1_Insert_m1695211546_gshared
PDi:__ZN21InterfaceFuncInvoker2IbP22BigInteger_t2902905090iE6InvokeEjP11Il2CppClassP12Il2CppObjectS1_i
_ol:__Z49RuntimeInvoker_Void_t1185182177_Color_t2555686324PFvvEPK10MethodInfoPvPS4_
Wza:__ZL51__ManagedRegistrationHelperFunction_UnityEventProxyPv
w0a:__ZN9ShaderLab11shaderprops9GetTexEnvEPK19ShaderPropertySheetS3_NS_16FastPropertyNameE16TextureDimensionb
Dqm:_List_1_Sort_m3232912161_gshared
POn:__ZN23DragHandler_t418772403015set_positions_7EP28GameObjectU5BU5D_t3328599146
pgn:_GUILayoutGroup_CalcHeight_m1669391299
Gec:__ZN29RenderNodeQueuePrepareContextC2Ev
p0o:_il2cpp_gc_disable
Cxc:__ZN9ShaderLab20SerializedSubProgram16TextureParameter8TransferI24GenerateTypeTreeTransferEEvRT_
G8f:__ZN18VirtActionInvoker1I19Decimal_t2948259380E6InvokeEjP12Il2CppObjectS0_
Vgg:_DSASignatureDeformatter_SetKey_m2999549245
kyp:__ZN6il2cpp2os11MutexHandle4WaitEb
Lzb:__ZN9GfxDevice19SaveStereoConstantsEv
jyp:__ZN6il2cpp2os11MutexHandle4WaitEj
qSc:__ZL34GetComponentsImplementationRecurseILb1ELi1ELi1EEbR10GameObjectbRK17CompareParametersRK39GetComponentsImplementation_ReturnValue
BN:__ZL39InvalidateSceneHandleTransformsCallbackPvS_i
qbl:__Z114RuntimeInvoker_Boolean_t97287965_RuntimeObject_RuntimeObject_Int32_t2950945753_Int32_t2950945753_Int32_t2950945753PFvvEPK10MethodInfoPvPS4_
MOj:_AssemblyBuilder_GetTypes_m3415680380
hxa:__ZN6prcoreL17RemapGenericFloatI15TexFormatRGHalf18TexFormatARGBFloatEEvPKNS_9InnerInfoE
m$l:__ZNK43EqualityComparer_1_t3632197202_StaticFields14get__default_0Ev
eXn:_AnalyticsEventParam_get_groupID_m569309506
Wbj:_StackFrame_GetMethod_m1395840764
l8o:__ZN6il2cpp6icalls8mscorlib6SystemL10AssignRealIfEEvNS2_17WidenedValueUnionEPv14Il2CppTypeEnumjj
B_a:__ZNK13RenderTexture13GetDataHeightEv
HWb:__Z18SimulateMouseInputi
lac:__ZN13RenderManager23AddRemoveCamerasDelayedEv
rsl:__Z119RuntimeInvoker_Void_t1185182177_RuntimeObject_Single_t1397266774_Single_t1397266774_SByte_t1669577662_Int32_t2950945753PFvvEPK10MethodInfoPvPS4_
SBa:__ZL51__ManagedRegistrationHelperFunction_Vector2IntProxyPv
mLb:__Z35Transfer_Blittable_FixedBufferFieldI17RemapPPtrTransferyEvRK29SerializationCommandArgumentsR31RuntimeSerializationCommandInfo
v9g:_LayoutElement_OnEnable_m1760066426
f_d:__ZN11UnityEngine9Analytics15AnalyticsConfigC2Ev
oKj:_OverflowException__ctor_m4029085969
fsi:_BitConverter__cctor_m3841343255
mHg:__ZNK32InternalEnumerator_1_t196306608311get_array_0Ev
Gln:_IntervalCollection_GetMetaCollection_m4029522214
Pt:__ZN9Scripting11UnityEngine13AnimatorProxy12CleanupProxyEv
Lae:_EventTrigger_OnDeselect_m1919608102
ojo:_TextGenerator_get_characterCount_m864136654
PEg:__ZNK32InternalEnumerator_1_t35075654099get_idx_1Ev
Krj:__ZN33X509Chain_t194917408_StaticFields29set_U3CU3Ef__switchU24mapB_12EP24Dictionary_2_t2736202052
ktk:__ZN30EvidenceEnumerator_t170816666714set_hostEnum_1EP12Il2CppObject
pnc:__ZN13RenderTexture8SetWidthEi
kCc:__ZNK28RectTransformPropertyBinding12SetPPtrValueERKN11UnityEngine9Animation10BoundCurveEi
jZb:__ZN18FrameTimingManager18GetVSyncsPerSecondEv
hDk:__ZN44EncoderReplacementFallbackBuffer_t186318716217set_replacement_0EP8String_t
agb:__ZN10MeshFilterD0Ev
vKd:_UNITY_FT_GlyphLoader_CheckSubGlyphs
Zpg:_InternalEnumerator_1__ctor_m1341209356_AdjustorThunk
tzi:__ZN35CaseInsensitiveComparer_t367003580013set_culture_2EP23CultureInfo_t4157843068
tpo:_RemoteSettings_RemoteSettingsUpdateCompleted_m2956290507
lYm:__ZN31InternalAsyncResult_t350428282013set__buffer_9EP22ByteU5BU5D_t4116647657
tYk:__ZN18Thread_t230083606916set_ec_to_set_37EP28ExecutionContext_t1748372627
aFm:_Collection_1_System_Collections_ICollection_CopyTo_m1516601228_gshared
xqa:__ZN23DefaultMeshVertexFormatC2E18VertexChannelsInfo
Lgh:__Z34Enumerator_get_Current_m1834618397P22Enumerator_t1509756096PK10MethodInfo
kGm:_Collection_1_CopyTo_m4278237485_gshared
edi:_ServerObjectReplySink_SyncProcessMessage_m512968558
rro:_Physics2D_Raycast_m2082490717
e5c:__Z42Register_UnityEngine_GUIStyle_set_fontSizev
DIm:_Collection_1_Add_m3860636938_gshared
gFi:__ZNK23ARC4Managed_t26418584528get_y_15Ev
Otd:__ZZN13BoxCollider2D15InitializeClassEvEN41FunctorImpl_40kSpriteTilingPropertyChange4CallEPviR11MessageData
JXh:__ZN18ObjRef_t214115888417set__serverType_5EP6Type_t
clm:_List_1_Insert_m4050947056_gshared
Jha:__ZN9ShaderLab16FastPropertyName4InitEPKc
Xyg:_InternalEnumerator_1__ctor_m39232262_AdjustorThunk
Wdj:__ZNK37MonoEnumInfo_t3694469084_StaticFields20get_short_comparer_8Ev
tFk:__ZNK24TailoringInfo_t86643365420get_TailoringCount_2Ev
LQ:__ZN14SafeBinaryRead21TransferSTLStyleArrayI13dynamic_arrayI4PPtrI13MonoBehaviourELj0EEEEvRT_17TransferMetaFlags
B$a:__ZN6ObjectC2E10MemLabelId18ObjectCreationMode
pMm:_Collection_1_System_Collections_IEnumerable_GetEnumerator_m3596816767_gshared
xdn:__Z25Il2CppCodeGenWriteBarrierI26GUILayoutGroup_t2157789695EvPPT_S2_
zAg:_InternalEnumerator_1_get_Current_m3911557813_AdjustorThunk
_ad:__ZN8JSONRead21TransferSTLStyleArrayI31ArrayOfManagedObjectsTransfererEEvRT_17TransferMetaFlags
rx:__ZN17AnimationPlayable17GetAnimationClipsER13dynamic_arrayIP13AnimationClipLj0EE
Dui:_Char_System_IConvertible_ToByte_m2347554595_AdjustorThunk
hzh:__ZN26PersistentCall_t340771412417set_m_CallState_4Ei
t8e:__ZL59TooltipAttribute_t3957072629_CustomAttributesCacheGeneratorP21CustomAttributesCache
jff:__ZL99TextGenerator_t3211863866_CustomAttributesCacheGenerator_TextGenerator_Internal_Destroy_m1142896160P21CustomAttributesCache
$Za:__ZN13RenderTexture9SetMipMapEb
syo:__ZN15dense_hashtableINSt3__24pairIK10KeyWrapperIPK11Il2CppClassEPKcEES6_N6il2cpp5utils11PointerHashIS3_EEN14dense_hash_mapIS6_S9_SE_NS6_14EqualsComparerINS0_8equal_toIS5_EEEENS0_9allocatorISA_EEE9SelectKeyESJ_SL_E13set_empty_keyERKSA_
ami:__ZN26SecurityParser_t412448007711set_root_13EP27SecurityElement_t1046076091
Rsn:_BalancingGroup_Compile_m2575117193
Kta:__Z18GetDirectorManagerv
GEm:_Collection_1_GetEnumerator_m1824095167_gshared
Vqk:__ZN29TripleDESTransform_t9641690609set_E3_14EP24DESTransform_t4088905499
K0m:__ZN50ExtendedKeyUsageExtension_t3929363080_StaticFields29set_U3CU3Ef__switchU24map14_4EP24Dictionary_2_t2736202052
hPe:__ZL107CriticalFinalizerObject_t701527852_CustomAttributesCacheGenerator_CriticalFinalizerObject__ctor_m3245424448P21CustomAttributesCache
pCj:_Int32_Equals_m2976157357_AdjustorThunk
NKa:__ZN11NamedObject8TransferI19StreamedBinaryWriteEEvRT_
Zcf:__ZL99SceneManager_t2787271929_CustomAttributesCacheGenerator_SceneManager_LoadScene_m2298600132____mode1P21CustomAttributesCache
Tnl:__Z73RuntimeInvoker_Single_t1397266774_Vector2_t2156229523_Vector2_t2156229523PFvvEPK10MethodInfoPvPS4_
Log:__ZN32InternalEnumerator_1_t411633109011set_array_0EP11Il2CppArray
vdi:_SoapAttribute_get_XmlNamespace_m859394681
Omh:__Z27List_1_get_Count_m124153205P17List_1_t427135887PK10MethodInfo
Nzk:__ZN33Encoding_t1523322056_StaticFields33set_utf8EncodingWithoutMarkers_21EP20Encoding_t1523322056
E6m:_X509ExtensionCollection_System_Collections_IEnumerable_GetEnumerator_m1475785462
j1b:__ZN7ApiGLES19UploadBufferSubDataEjN2gl12BufferTargetEllPKv
aoo:_SkeletonBone_t4134054672_marshal_pinvoke_cleanup
awa:__ZNSt3__216__rotate_forwardINS_11__wrap_iterIPN4core12basic_stringIcNS2_20StringStorageDefaultIcEEEEEEEET_S9_S9_S9_
kqm:__ZN21InterfaceFuncInvoker0I19Color32_t2600501292E6InvokeEjP11Il2CppClassP12Il2CppObject
Wha:__ZdaPv
Q5g:_Navigation_get_mode_m1766451275
O7g:__ZNK40U3CCaretBlinkU3Ec__Iterator0_t258988903813get_U24this_2Ev
xmi:_SmallXmlParserException__ctor_m1976648878
Ubg:__ZN31RuntimeMethodHandle_t113392498422get_address_of_value_0Ev
vxe:__ZNK19FontData_t74662006915get_m_MaxSize_5Ev
bR:__ZN7mecanim12statemachine20StateMachineConstant8TransferI14SafeBinaryReadEEvRT_
b7g:__ZNK22InputField_t376291743131get_m_HasDoneFocusTransition_62Ev
W5g:_Selectable_get_isPointerDown_m3518318267
lHh:__ZN40PlayerEditorConnectionEvents_t341178751324set_disconnectionEvent_2EP33ConnectionChangeEvent_t3251856151
iqk:_SymmetricAlgorithm_set_KeySize_m3805756466
G3l:__Z30Enumerator_Dispose_m1204547613P22Enumerator_t3350232909PK10MethodInfo
nuf:__ZL70ValueProperty_t1868393739_CustomAttributesCacheGenerator_m_CustomValueP21CustomAttributesCache
_Pi:__ZNK19Context_t397123470725get_readSequenceNumber_17Ev
KHa:__ZN9Scripting5Unity11Collections8LowLevel6Unsafe47NativeDisableUnsafePtrRestrictionAttributeProxy9InitProxyEv
Qti:_Byte_System_IConvertible_ToUInt32_m1049546902_AdjustorThunk
mHh:__Z25Il2CppCodeGenWriteBarrierI33ConnectionChangeEvent_t3251856151EvPPT_S2_
hll:__Z53RuntimeInvoker_Double_t594665363_Interval_t1802865632PFvvEPK10MethodInfoPvPS4_
lkh:__ZN21Scrollbar_t149444723327get_address_of_m_Tracker_26Ev
Y4h:_LeaseSink_RenewLease_m578578728
Xqc:__Z21InitializeBatchedJobsv
Rko:_CanvasGroup_get_blocksRaycasts_m1805542303
jnk:_SHA1Internal_ProcessBlock_m1991889327
kIb:__Z19TransferField_ArrayI14SafeBinaryRead27Converter_SimpleNativeClassI8GUIStyleEEvRK23StaticTransferFieldInfoR31RuntimeSerializationCommandInfoRT0_
d9m:_GUIStyle_Internal_CalcSize_Injected_m3782469813
WBm:__ZN24Collection_1_t333661117914set_syncRoot_1EP12Il2CppObject
BSb:__ZN18StreamedBinaryRead21TransferSTLStyleArrayI13dynamic_arrayIN4math12int3_storageELj0EEEEvRT_17TransferMetaFlags
YFl:_Array_Sort_TisRuntimeObject_TisRuntimeObject_m1685639929_gshared
Sxp:__ZN6il2cpp5utils10MemoryPoolC2Ev
Ofi:_RemotingServices_SetMessageTargetIdentity_m4083751943
qXa:__ZN14RenderSettings5ResetEv
GGa:__ZN9Scripting11UnityEngine15ColorGamutProxy9InitProxyEv
s6c:__ZN5Unity9rapidjson12GenericValueINS0_4UTF8IcEE13JSONAllocatorE10FindMemberIS4_EENS0_21GenericMemberIteratorILb0ES3_S4_EERKNS1_IS3_T_EE
Fom:__ZN18List_1_t305805257312set__items_1EP28OrderBlockU5BU5D_t2389202590
rAg:_InternalEnumerator_1_System_Collections_IEnumerator_get_Current_m3892960115_AdjustorThunk
Pzc:__ZN9ShaderLabL18AddPropertyToArrayERK19ShaderPropertySheetR13dynamic_arrayIiLj0EERKNS_8FloatValE
H5o:__ZNSt3__212basic_stringIDsNS_11char_traitsIDsEENS_9allocatorIDsEEE6appendEPKDsj
uVn:_SymmetricTransform_Finalize_m4129642865
Avj:_CaptureCollection_CopyTo_m3566922817
$Pf:_MonoEventInfo_t346866618_marshal_pinvoke_cleanup
Shg:_HMAC_HashCore_m3684104066
Jyn:__ZN28GenericInterfaceFuncInvoker2Ii20UIVertex_t4057497605S0_E6InvokeEPK10MethodInfoP12Il2CppObjectS0_S0_
ldd:__ZN5Unity9rapidjson13GenericReaderINS0_4UTF8IcEES3_13JSONAllocatorE11ParseNumberILj1ENS0_25GenericInsituStringStreamIS3_EENS0_15GenericDocumentIS3_S4_S4_EEEEvRT0_RT1_
R7:__ZN11UnityEngine15CloudWebService14DataDispatcherD0Ev
dCi:__ZNK22BigInteger_t290290509012get_length_0Ev
sWm:_ReadOnlyCollection_1_System_Collections_IList_Add_m222254439_gshared
Hgb:__ZN14SpriteRenderer14OnChangeSpriteEv
s5m:__ZN22X509Stores_t137393623714set__trusted_1EP21X509Store_t2777415283
_Hm:_Collection_1_RemoveItem_m2911050674_gshared
ecg:_RuntimeTypeHandle_GetHashCode_m3999856879
qOk:__ZN22DSAManaged_t280026018216set_j_missing_12Eb
d8k:__Z79RuntimeInvoker_UInt16_t2177724958_RuntimeObject_Int32_t2950945753_RuntimeObjectPFvvEPK10MethodInfoPvPS4_
qmp:__ZN6il2cpp2os10ThreadImplD2Ev
h8e:__ZL56ResetInputAxis_t866062302_CustomAttributesCacheGeneratorP21CustomAttributesCache
Shd:__ZN12b2MouseJoint23InitVelocityConstraintsERK12b2SolverData
H6c:__ZN8Gradient8TransferI9JSONWriteEEvRT_
KXc:__Z51Register_UnityEngine_Sprite_GetTextureRect_Injectedv
Njf:__ZL81TextEditor_t2759855366_CustomAttributesCacheGenerator_TextEditor__ctor_m242049450P21CustomAttributesCache
J_i:_Convert_ToBoolean_m2833621053
hLa:__ZNK12TLSAllocatorI14StackAllocatorE22GetAllocatedMemorySizeEv
bG:__ZN7mecanim6memory16ChainedAllocator8AllocateEjj
g0:__ZN11AudioSource23VirtualRedirectTransferER18StreamedBinaryRead
Z_e:__ZL62WebHeaderCollection_t1942268960_CustomAttributesCacheGeneratorP21CustomAttributesCache
WIa:__ZN17RemapPPtrTransfer12PushMetaFlagE17TransferMetaFlags
UIk:__ZN19Context_t174453113024set_QuickCheckPossible_7Eb
U_l:_EqualityComparer_1_System_Collections_IEqualityComparer_GetHashCode_m2138064395_gshared
v1:__ZNK7WeakPtrI20SoundChannelInstanceE10SharedData9GetRawPtrEv
aub:__ZN12HandlerChain4NameEv
are:_FloatTween_t1274330004_marshal_pinvoke
IEl:_Array_InternalArray__set_Item_TisMonoWin32Resource_t1904229483_m4042549565_gshared
_mj:__ZN20WebProxy_t201676054227set_useDefaultCredentials_4Eb
gyj:_Int16_System_IConvertible_ToType_m3672347013_AdjustorThunk
SJb:__Z29Transfer_Blittable_ArrayFieldI14SafeBinaryReadN4math12int3_storageEEvRT_R9ArrayInfoRK23StaticTransferFieldInfo
ovk:_SecurityException_ToString_m3228070608
xBj:_Int16_ToString_m2013897809
D0k:_Type_GetType_m1766533001
Hwl:__Z60RuntimeInvoker_Int32_t2950945753_ResourceCacheItem_t51292791PFvvEPK10MethodInfoPvPS4_
Cpg:__ZN31InternalEnumerator_1_t4544632379set_idx_1Ei
MWm:__ZN28SslHandshakeHash_t21075817729set_md5_4EP25HashAlgorithm_t1432317219
rvk:_String_Substring_m2848979100
hnp:__ZN6il2cpp5utils10StringViewIDsEC2ILj2EEERAT__KDs
zTd:__Z44Register_UnityEngine_CanvasRenderer_get_cullv
Cto:__ZN15dense_hashtableINSt3__24pairIK10KeyWrapperIPK22Il2CppGenericParameterEP11Il2CppClassEES6_N6il2cpp5utils11PointerHashIS4_EEN14dense_hash_mapIS6_S9_SE_NS6_14EqualsComparerINS0_8equal_toIS5_EEEENS0_9allocatorISA_EEE9SelectKeyESJ_SL_ED2Ev
iLl:_ScriptableObject_CreateInstance_TisRuntimeObject_m1552711675_gshared
hvk:_SecurityException_get_PermissionType_m2237538728
ysc:__Z29StdTemplateConversionFunctionIbbEbPvR14SafeBinaryRead
mBm:__Z28Enumerator__ctor_m3419056812P22Enumerator_t1142515742P19Stack_1_t3923495619PK10MethodInfo
Aop:__ZNK15dense_hashtableINSt3__24pairIK10KeyWrapperIPK19Il2CppGenericMethodEP10MethodInfoEES6_N6il2cpp8metadata23Il2CppGenericMethodHashEN14dense_hash_mapIS6_S9_SD_NS6_14EqualsComparerINSC_26Il2CppGenericMethodCompareEEENS0_9allocatorISA_EEE9SelectKeyESH_SJ_E12test_deletedEj
nGb:__Z44InitializeTransferFunctionScriptingTraitsForI17RemapPPtrTransferEvR31TransferFunctionScriptingTraits
aXj:__ZN27NumberFormatInfo_t43587713829set_percentNegativePattern_25Ei
lih:__ZN22ScrollRect_t413785581416set_m_Vertical_6Eb
$Bc:__ZNSt3__26vectorI16MessageForwarder13stl_allocatorIS1_L18MemLabelIdentifier7ELi8EEE6resizeEj
mtj:_X509Chain_SelectBestFromCollection_m1068759221
xeh:__ZN22RectMask2D_t347488943718set_m_ForceClip_10Eb
IVn:_SymmetricTransform_TransformBlock_m851059707
oWo:__ZN6il2cpp2vm10Reflection27GetCustomAttributesCacheForEP11Il2CppClass
iHe:__ZL68IntPtr_t_CustomAttributesCacheGenerator_IntPtr_ToPointer_m4157623054P21CustomAttributesCache
s7h:__ZNK34MethodCall_t861078140_StaticFields30get_U3CU3Ef__switchU24map1F_11Ev
YMl:_Enumerator_Dispose_m4166166038_gshared
Akb:__Z11StringToKeyRKN4core12basic_stringIcNS_20StringStorageDefaultIcEEEE
sNm:_Collection_1_System_Collections_IList_get_Item_m336450589_gshared
Krn:_Regex_System_Runtime_Serialization_ISerializable_GetObjectData_m4061390789
iAm:_Enumerator_System_Collections_IEnumerator_Reset_m2261065994_AdjustorThunk
ekh:_ScrollRect_get_verticalNormalizedPosition_m3693218937
sob:__ZN18LoadSceneOperation21MustCompleteNextFrameEv
Gph:_Slider_UpdateDrag_m1102107039
qPf:_MonoMethodInfo_get_method_info_m88651774
e4:__ZNK12AudioManager16GetAudioListenerEv
ovh:_Color_Equals_m4060997379_AdjustorThunk
oRl:_Dictionary_2_System_Collections_Generic_ICollectionU3CSystem_Collections_Generic_KeyValuePairU3CTKeyU2CTValueU3EU3E_CopyTo_m331407443_gshared
Mmp:__ZN6il2cpp2osL23CleanupThreadIfCanceledEPv
NSo:__ZNK14dense_hash_mapI10KeyWrapperINSt3__24pairIPK11Il2CppImageP11Il2CppClassEEEj17ReflectionMapHashIS8_ENS9_14EqualsComparerINS1_8equal_toIS8_EEEENS1_9allocatorINS2_IKS9_jEEEEE4sizeEv
_bg:_RuntimeTypeHandle__ctor_m3315980708_AdjustorThunk
Vvj:__ZNK15Key_t272552300113get_options_1Ev
dUe:__ZL69IIdentityPermissionFactory_t3268650966_CustomAttributesCacheGeneratorP21CustomAttributesCache
xko:_Canvas_set_overrideSorting_m4088794420
Umc:__ZNSt3__26vectorI11CameraStackNS_9allocatorIS1_EEE8__appendEj
IVl:_Dictionary_2_Clear_m4146867046_gshared
xTn:__ZNK44U3CGetSingleScoreU3Ec__Iterator4_t237550413411get_U24PC_5Ev
MCa:__ZN9Scripting11UnityEngine13Serialization34FormerlySerializedAsAttributeProxy9InitProxyEv
kxh:_Logger_set_filterLogType_m3622751173
x4f:__ZN25GenericVirtActionInvoker1I28StreamingContext_t3711869237E6InvokeEPK10MethodInfoP12Il2CppObjectS0_
rHn:_UnityEvent_1_GetDelegate_m25714567_gshared
Ax:__ZN7mecanim9animation12GetHumanPoseERKNS0_18ClipMuscleConstantEPKNS0_10ValueDeltaERNS_5human9HumanPoseE
F_d:__ZN11UnityEngine9Analytics15UserCustomEvent12CustomParams6InsertEPKcRNS1_11CustomValueE
uz:__ZN22AnimationMixerPlayable17ProcessRootMotionEP35AnimationPlayableEvaluationConstantP32AnimationPlayableEvaluationInputP33AnimationPlayableEvaluationOutput
zTl:_Dictionary_2__ctor_m518943619_gshared
VUd:__ZL55__ManagedRegistrationHelperFunction_RemoteSettingsProxyPv
Kna:__Z13GetFileSystemv
d8n:_AudioSourceExtension_ExtensionUpdate_m2790353999
gqa:__ZN13RuntimeStaticI15GUIEventManagerLb0EE16StaticInitializeEPv
KGh:_MonoBehaviour_IsObjectMonoBehaviour_m2134950949
Ngo:__ZL25UnresolvedVirtualCall_230P12Il2CppObject20DateTime_t3738529785S1_PK10MethodInfo
l6g:_InputField_MoveDown_m4006004038
zbi:__ZNK29MonoMethodMessage_t280763694422get_methodSignature_10Ev
b6k:_Version_CompareTo_m3146217210
Gid:__ZN24RigidbodyMovementState2D21ResetAngularMoveStateEv
Lgb:__ZThn32_N14SpriteRenderer15AddAsRenderNodeER15RenderNodeQueueRK20DeprecatedSourceData
Ylk:_Array_InternalArray__ICollection_CopyTo_TisKeyValuePair_2_t71524366_m1056941380_gshared
zao:_Vector3_Equals_m906392898_AdjustorThunk
$$k:_Type_get_IsClass_m589177581
e1e:__ZL62NativeTypeAttribute_t2250406315_CustomAttributesCacheGeneratorP21CustomAttributesCache
oue:__ZNK20Dropdown_t227439122518get_m_ItemImage_22Ev
OLj:__Z25Il2CppCodeGenWriteBarrierI29StrongNameKeyPair_t3411219591EvPPT_S2_
zFb:__ZN19ShaderPropertySheet9SetMatrixEN9ShaderLab16FastPropertyNameERK10Matrix4x4fNS_8SetFlagsE
Dbn:_TextEditor_GetGraphicalLineStart_m2559051595
iJi:__ZNK25EncryptedData_t357754873326get__encryptionAlgorithm_2Ev
_8a:__Z29GetTextureSizeAllowedMultiple13TextureFormat
$Ho:__ZN6il2cpp2os6Atomic22CompareExchangePointerI21CustomAttributesCacheEEPT_PVS5_S5_S5_
F9i:_Decimal_Subtract_m835601464
w8b:__ZZ23InitPlayerLoopCallbacksvEN52InitializationAsyncUploadTimeSlicedUpdateRegistrator7ForwardEv
RTn:_dreamloPromoCode__ctor_m2320260083
pBc:__Z46CleanupSpriteRendererAnimationBindingInterfacev
rkl:__Z73RuntimeInvoker_Boolean_t97287965_RuntimeObject_IPv6AddressU26_t3285609463PFvvEPK10MethodInfoPvPS4_
RBh:__ZNK21SpriteBone_t30332009616get_m_Position_1Ev
Kuj:_X509ExtensionCollection_get_IsSynchronized_m2607599544
d_k:_TimeSpan__ctor_m3689759052_AdjustorThunk
BBp:__ZNK6il2cpp8metadata19Il2CppSignatureHashclERKNS_5utils13dynamic_arrayIPK10Il2CppTypeLj4EEE
z$o:_il2cpp_array_element_size
Jyl:__Z67RuntimeInvoker_Void_t1185182177_Int32_t2950945753_Score_t1179825972PFvvEPK10MethodInfoPvPS4_
PFe:__ZL62ComVisibleAttribute_t1362837655_CustomAttributesCacheGeneratorP21CustomAttributesCache
Xqm:_List_1_System_Collections_IEnumerable_GetEnumerator_m1824431956_gshared
bMa:__ZNSt3__26__treeINS_12__value_typeIN4core12basic_stringIcNS2_20StringStorageDefaultIcEEEEjEENS_19__map_value_compareIS6_S7_NS_4lessIS6_EELb1EEE13stl_allocatorIS7_L18MemLabelIdentifier7ELi16EEE25__emplace_unique_key_argsIS6_JNS_4pairIS6_jEEEEENSH_INS_15__tree_iteratorIS7_PNS_11__tree_nodeIS7_PvEEiEEbEERKT_DpOT0_
jj:_glCheckFramebufferStatus
Hwp:__ZN6il2cpp2os11EventHandle4WaitEv
qkg:_U3CGetEnumeratorU3Ec__Iterator0_System_Collections_Generic_IEnumeratorU3CTU3E_get_Current_m9057020_gshared
PBk:__ZN19Decoder_t220418272521set_fallback_buffer_1EP33DecoderFallbackBuffer_t2402303981
Tja:__Z43scripting_class_get_method_from_name_filter17ScriptingClassPtrPKciN24ScriptingMethodFiltering18MethodSearchFilterEPK16ScriptingTypePtr
noo:_CustomEventData__ctor_m4146403782
Eba:__ZN19CloudServiceHandler20StartEventDispatcherERKN11UnityEngine15CloudWebService18CloudServiceConfigERNS1_23WebRequestRestHeaderMapE
BS:__ZN7mecanim9animation18ControllerConstant8TransferI19StreamedBinaryWriteEEvRT_
CPo:__ZN24dense_hashtable_iteratorINSt3__24pairIK10KeyWrapperINS1_IPK9FieldInfoP11Il2CppClassEEEjEES9_17ReflectionMapHashIS8_EN14dense_hash_mapIS9_jSD_NS9_14EqualsComparerINS0_8equal_toIS8_EEEENS0_9allocatorISB_EEE9SelectKeyESI_SK_EC2EPK15dense_hashtableISB_S9_SD_SM_SI_SK_EPSB_SS_b
bBe:_GraphicRaycaster__ctor_m646559428
Khf:__ZL102GUILayout_t3503650450_CustomAttributesCacheGenerator_GUILayout_BeginHorizontal_m1655989246____options0P21CustomAttributesCache
KKi:_CipherSuite_get_CipherAlgorithmType_m137858741
W4m:__ZNK20X509Chain_t86378360013get__status_4Ev
Zhd:__ZNK15b2DistanceJoint17GetReactionTorqueEf
jzi:_BitArrayEnumerator_get_Current_m4220391712
lLj:__Z37il2cpp_codegen_get_executing_assemblyPK10MethodInfo
zHp:__ZN10__cxxabiv112_GLOBAL__N_110construct_Ev
OWc:__Z104Register_UnityEngine_Experimental_Rendering_GraphicsFormatUtility_GetGraphicsFormat_Native_TextureFormatv
PSk:__ZNK15StringBuilder_t18get__maxCapacity_4Ev
vla:__ZN4core8hash_setINS_4pairIKi17ThreadedAwakeDataLb0EEENS_9hash_pairINS_4hashIiEES2_S3_EENS_10equal_pairINSt3__28equal_toIiEES2_S3_EEE4growEi
znl:__Z48RuntimeInvoker_OperatingSystemFamily_t1868066375PFvvEPK10MethodInfoPvPS4_
Ksb:__ZN9Transform23VirtualRedirectTransferER17RemapPPtrTransfer
SWn:__ZNK24AesTransform_t295712361118get_expandedKey_12Ev
tlj:_IPAddress_get_ScopeId_m4237202723
tMh:_Quaternion_Equals_m2038868948_AdjustorThunk
hvg:_InternalEnumerator_1_MoveNext_m3520556285_AdjustorThunk
Kqn:_ExpressionCollection_get_Item_m3510736379
Vof:__ZL62FontData_t746620069_CustomAttributesCacheGenerator_m_AlignmentP21CustomAttributesCache
rie:_StandaloneInputModule_get_inputActionsPerSecond_m3946624274
SUk:_UTF8Encoding_InternalGetCharCount_m82458470
aao:_Vector2__cctor_m2108982652
Jbe:__ZNK38ExecuteEvents_t3484638744_StaticFields19get_s_DropHandler_9Ev
TIh:_U3CBlockUntilRecvMsgU3Ec__AnonStorey2_U3CU3Em__0_m2225790220
jde:__ZN38ExecuteEvents_t3484638744_StaticFields22set_s_CancelHandler_16EP27EventFunction_1_t2658898854
ZGg:_InternalEnumerator_1_MoveNext_m2734554195_AdjustorThunk
aap:__ZN14dense_hash_mapI10KeyWrapperIP14Il2CppIUnknownEjN6il2cpp5utils11PointerHashIS1_EENS3_14EqualsComparerINSt3__28equal_toIS2_EEEENS9_9allocatorINS9_4pairIKS3_jEEEEE15set_deleted_keyERSF_
BRb:__ZL22Transfer_ManagedObjectI18StreamedBinaryReadLb0EEvRK29SerializationCommandArgumentsR31RuntimeSerializationCommandInfo
PSi:__ZN27SslClientStream_t391462466126set_ClientCertSelection_17EP40CertificateSelectionCallback_t3743405224
F1o:__ZN6il2cpp2gc9AllocatorIP12Il2CppThreadE10deallocateEPvj
yKi:__ZN23CipherSuite_t341474457518set_keyBlockSize_9Ei
KWo:__ZN13Il2CppHashMapIPK14Il2CppAssemblyPK22Il2CppMonoAssemblyNameN6il2cpp5utils11PointerHashIS1_EENSt3__28equal_toIS2_EENSA_9allocatorINSA_4pairIK10KeyWrapperIS2_ES5_EEEEEC2EjRKS9_RKSC_
E4h:_RenewalDelegate_BeginInvoke_m1180839451
Ooi:_DelegatePInvokeWrapper_AppDomainInitializer_t682969308
pQp:b100
Mcf:__ZL141SupportedRenderingFeatures_t353898663_CustomAttributesCacheGenerator_SupportedRenderingFeatures_IsMixedLightingModeSupportedByRef_m2282093837P21CustomAttributesCache
j8o:__ZN6il2cpp6icalls8mscorlib6SystemL12AssignSignedIiEEvNS2_17WidenedValueUnionEPv14Il2CppTypeEnumjj
KG:__ZN14AnimationEvent8TransferI14SafeBinaryReadEEvRT_
Oma:__ZN8Remapper6RemoveEi
MGn:_UnityEvent_1__ctor_m3777630589_gshared
Gxb:__ZN10MemoryFile4ReadEyPvPy
JDk:_Encoding_GetBytes_m3148649984
VSc:__ZN9Scripting27CreateArgumentNullExceptionEPKc
UAd:__ZL36CleanupTextRenderingScriptingClassesv
mnc:__ZN15ReflectionProbe17UseRendererResultEP13ProbeRenderer
lhp:__ZNK24dense_hashtable_iteratorINSt3__24pairIK10KeyWrapperIP12Il2CppObjectEN6il2cpp2gc9CachedCCWEEES5_NS7_5utils11PointerHashIS3_EEN14dense_hash_mapIS5_S9_SD_NS5_14EqualsComparerINS0_8equal_toIS4_EEEENS0_9allocatorISA_EEE9SelectKeyESI_SK_EptEv
oYc:__Z34Mesh_CUSTOM_SetArrayForChannelImplP12Il2CppObject30InternalScriptingShaderChannel34InternalScriptingVertexChannelTypeiP11Il2CppArrayi
T3k:_UInt64_System_IConvertible_ToDecimal_m806594027_AdjustorThunk
Gvk:__ZNK36RuntimeDeclSecurityEntry_t314446915610get_size_1Ev
AHn:_UnityEvent_1_GetDelegate_m274387680_gshared
Bto:__ZN14dense_hash_mapI10KeyWrapperIPK22Il2CppGenericParameterEP11Il2CppClassN6il2cpp5utils11PointerHashIS2_EENS4_14EqualsComparerINSt3__28equal_toIS3_EEEENSC_9allocatorINSC_4pairIKS4_S6_EEEEED2Ev
Dnm:_List_1__ctor_m3395838871_gshared
_Mm:_Collection_1_IsFixedSize_m3698021882_gshared
Ahi:__ZNK22StrongName_t409384937720get_tokenAlgorithm_3Ev
Fgj:__ZNK36NameObjectCollectionBase_t209184736419get_m_NullKeyItem_1Ev
sXl:_DefaultComparer_GetHashCode_m2651362016_gshared
cyf:__ZNK24FieldBuilder_t262704999310get_type_1Ev
CHi:__ZN25RSAParameters_t172840661314set_InverseQ_5EP22ByteU5BU5D_t4116647657
vFl:_Array_Resize_TisCustomAttributeNamedArgument_t287865710_m885566878_gshared
Poa:__ZN17TransformInternal19FreeTransformThreadER18TransformHierarchyjj
IEg:__Z37InternalEnumerator_1__ctor_m539509188P32InternalEnumerator_1_t3507565409P11Il2CppArrayPK10MethodInfo
mil:__Z85RuntimeInvoker_RuntimeObject_RuntimeObject_SByte_t1669577662_ExceptionU26_t3600731591PFvvEPK10MethodInfoPvPS4_
$Vl:_DefaultComparer__ctor_m2556554241_gshared
Lu:__ZN11UnityEngine9Animation28GenericAnimationBindingCache25RegisterIAnimationBindingEPKN5Unity4TypeEiP17IAnimationBinding
hMl:_Transform_1_BeginInvoke_m2149919550_gshared
W$h:_FormatterData__ctor_m3990517908
E4j:_DirectoryInfo__ctor_m481305441
G9g:__Z24List_1__ctor_m3408116030P17List_1_t881764471PK10MethodInfo
FCa:__ZN9Scripting11UnityEngine11SpriteProxy12CleanupProxyEv
Luj:_X509ExtensionCollection_get_SyncRoot_m2667861032
Xuo:__ZN6il2cpp2vm5Class15GetElementClassEP11Il2CppClass
Gha:__ZN10MemoryPoolC2E10MemLabelIdbPKciii
TIm:_Collection_1_SetItem_m941095285_gshared
zZl:__ZNK42EqualityComparer_1_t892922493_StaticFields14get__default_0Ev
pZd:__ZN14UnityAnalytics25UnregisterGlobalCallbacksEv
_ul:__Z80RuntimeInvoker_Boolean_t97287965_ColorBlockU26_t337120346_ColorBlock_t2139031574PFvvEPK10MethodInfoPvPS4_
Elc:__Z40ProcessCameraIndexListIsNodeVisibleInOutRK22SceneCullingParametersPK9SceneNodePK4AABBR9IndexList
Ngn:_GUIScrollGroup_SetHorizontal_m291416666
KCa:__ZN9Scripting11UnityEngine19SerializeFieldProxy9InitProxyEv
hRd:__ZN2UI6Canvas13UpdateBatchesEb
Qoj:_X509BasicConstraintsExtension_Decode_m120598446
LC:__ZNK23AnimationPlayableOutput11DerivesFromE17ScriptingClassPtr
Hmj:__ZNK44WebHeaderCollection_t1942268960_StaticFields20get_allowed_chars_16Ev
$aj:_Delegate_Remove_m334097152
GCf:_MethodBuilder_GetParameters_m3527753207
k5f:_ObjectReader_ReadObjectGraph_m340866276
Noo:_CustomEventData_t317522481_marshal_pinvoke
Thl:__Z51RuntimeInvoker_UInt32_t2560061978_Int16_t2552820387PFvvEPK10MethodInfoPvPS4_
u_b:__ZNK13GfxDeviceGLES12GetWireframeEv
zDg:__Z68InternalEnumerator_1_System_Collections_IEnumerator_Reset_m872612294P31InternalEnumerator_1_t746136913PK10MethodInfo
WVn:_DelegatePInvokeWrapper_Action_t1264377477
Tga:__ZN24ProfilerCallbacksHandlerC2E10MemLabelId
Gli:__ZNK25X509Extension_t317339365218get_extnCritical_1Ev
rwj:__ZNK25GroupCollection_t697704849get_gap_1Ev
qhf:__ZL64EventType_t3528516131_CustomAttributesCacheGenerator_dragUpdatedP21CustomAttributesCache
vho:__ZL25UnresolvedVirtualCall_266P12Il2CppObject39CustomAttributeNamedArgument_t287865710PK10MethodInfo
$Hh:__Z25Il2CppCodeGenWriteBarrierI24MessageEvent_t1491597365EvPPT_S2_
UGi:_PKCS1_Verify_v15_m4192025173
NAb:__ZN9GfxDevice18AllocRenderSurfaceEb
pui:_Char__cctor_m2787437263
bJc:__ZN10TagManager32GetSortingLayerUniqueIDFromValueEi
Vke:_AspectRatioFitter_get_rectTransform_m2996235303
YBf:__ZNK25MethodBuilder_t280731675316get_parameters_2Ev
kMa:__ZN10TagManager8TransferI19StreamedBinaryWriteEEvRT_
o$j:_NumberFormatInfo_get_PercentPositivePattern_m1800841633
win:_GUISkin_FindStyle_m1654492643
yio:_TextGenerationSettings_t1351628751_marshal_pinvoke
YAe:_Graphic_UnregisterDirtyMaterialCallback_m2707090617
MIh:__ZN28MessageEventArgs_t117057578410set_data_1EP22ByteU5BU5D_t4116647657
YOg:_Comparer_1_System_Collections_IComparer_Compare_m1313384821_gshared
bMo:__ZN6il2cpp6icalls8mscorlib6SystemL16CheckMemberMatchI12PropertyInfoNS_5utils10functional6FilterINSt3__212basic_stringIcNS8_11char_traitsIcEENS8_9allocatorIcEEEENS5_13VmStringUtils23CaseInsensitiveComparerEEEEEbPKT_PK11Il2CppClassSN_iRKT0_
xbh:_LayoutRebuilder_GetHashCode_m1943075341
szf:_GenericTypeParameterBuilder_MakeGenericType_m3048165991
Ngb:__ZThn356_N14SpriteRenderer14OnChangeSpriteEv
LQp:_glUniform1uiv__wrapper
Njd:__ZNK14b2PolygonShape5CloneEP16b2BlockAllocator
P$j:__ZNK22RegionInfo_t109027022617get_englishName_6Ev
Pma:__ZN17PersistentManager26GetStreamNameSpaceInternalEi
GFg:__ZNK32InternalEnumerator_1_t101283622211get_array_0Ev
d1:__ZN4FMOD6System11createSoundEPKcjP22FMOD_CREATESOUNDEXINFOPPNS_5SoundE
TRp:_glRenderbufferStorage__wrapper
Nn:FUNCTION_TABLE_iiifiiii
CHg:_InternalEnumerator_1_System_Collections_IEnumerator_Reset_m1451164462_AdjustorThunk
Ewd:__ZN13SpeedTreeWind20AdvanceWithoutUpdateEd
Vte:__Z24List_1__ctor_m2163569220P18List_1_t2924027637PK10MethodInfo
cth:__ZN46AttributeHelperEngine_t2735742303_StaticFields28set__requireComponentArray_2EP34RequireComponentU5BU5D_t2245623724
E2m:__ZNK37X509CertificateEnumerator_t351593469816get_enumerator_0Ev
C6i:_DateTime_System_IConvertible_ToDecimal_m1044850612
gnm:_List_1_IndexOf_m2206067159_gshared
F5o:__ZN6il2cpp2vm9Exception11FromNameMsgEPK11Il2CppImagePKcS6_RKNS_5utils10StringViewIDsEEi
kpg:_InternalEnumerator_1_System_Collections_IEnumerator_Reset_m1318888374_AdjustorThunk
Ria:__ZN9ShaderLab19CommonPropertyNames13StaticCleanupEPv
GKo:__ZN6il2cpp5utils10functional6FilterINSt3__212basic_stringIcNS3_11char_traitsIcEENS3_9allocatorIcEEEENS0_13VmStringUtils23CaseInsensitiveComparerEED2Ev
XOf:_Module_IsResource_m553227372
cma:__Z31scripting_method_get_returntype18ScriptingMethodPtr
EUi:__ZNK36ReceiveRecordAsyncResult_t368090765722get__resultingBuffer_5Ev
aWh:__Z25Il2CppCodeGenWriteBarrierI30LogicalCallContext_t3342013719EvPPT_S2_
fdb:__ZN15SerializeTraitsI12LightmapDataE8TransferI24GenerateTypeTreeTransferEEvRS0_RT_
tsk:_SecurityElement_AddAttribute_m311510562
HLj:__ZN23AssemblyName_t27093193814set_version_13EP19Version_t3456873960
XRp:_glStencilOpSeparate__wrapper
Qpo:__ZNK38ExecuteEvents_t3484638744_StaticFields30get_s_InternalTransformList_18Ev
pOc:__ZN4Mesh5SetUvEiPKfjj
kab:__ZN7Texture13SetAnisoLimitENS_20AnisotropicFilteringE
kgo:__ZL25UnresolvedVirtualCall_201P12Il2CppObjectaPK10MethodInfo
cMa:__ZNSt3__26__treeINS_12__value_typeIjN4core12basic_stringIcNS2_20StringStorageDefaultIcEEEEEENS_19__map_value_compareIjS7_NS_4lessIjEELb1EEE13stl_allocatorIS7_L18MemLabelIdentifier7ELi16EEE25__emplace_unique_key_argsIjJNS_4pairIjS6_EEEEENSH_INS_15__tree_iteratorIS7_PNS_11__tree_nodeIS7_PvEEiEEbEERKT_DpOT0_
LLh:_PropertyName_Equals_m3623975820
Yw:__ZN21AnimationClipPlayable22PrepareAnimationEventsEfR13dynamic_arrayI22AnimationClipEventInfoLj0EE
QVg:__Z28Enumerator__ctor_m1320896511P22Enumerator_t1626871233P24Dictionary_2_t1444694249PK10MethodInfo
Rri:_Attribute_IsDefined_m4069052474
Ff:_emscripten_glCompressedTexSubImage2D
q4b:__ZN13GfxDeviceGLES22MemoryBarrierImmediateEyN2gl17MemoryBarrierTypeE
Kmo:__ZN38AnimatorControllerPlayable_t101576784125get_address_of_m_Handle_0Ev
Z7g:_U3CCaretBlinkU3Ec__Iterator0_Dispose_m860898205
Oxa:__ZN6prcoreL26RemapGenericFloatToIntegerI18TexFormatARGBFloat17TexFormatARGB8888EEvPKNS_9InnerInfoE
lnd:__ZN14qsort_internal5QSortIPN35b2SynchronizeContinuousFixturesTask14b2DeferredMoveEiPFbRKS2_S5_EEEvT_S8_T0_T1_
hxm:_List_1_set_Capacity_m1977188119_gshared
jRc:__Z46GetShaderModelNumericValueFromRequirementsMask18ShaderRequirements
JEd:_cff_ps_has_glyph_names
LFi:__ZNK22MD2Managed_t137710153511get_state_4Ev
aKe:__ZL86MSCompatUnicodeTable_t1453885583_CustomAttributesCacheGenerator_U3CU3Ef__switchU24map2P21CustomAttributesCache
w4:__ZN11AudioSource7UnPauseEv
vsp:_GC_write
tol:__Z98RuntimeInvoker_Boolean_t97287965_PlayableOutputHandle_t4208053793_PlayableOutputHandle_t4208053793PFvvEPK10MethodInfoPvPS4_
_di:_SoapTypeAttribute_SetReflectionObject_m1691526413
Ovj:__ZNK24FactoryCache_t232711888714get_mru_list_2Ev
dT:__ZN13ProduceHelperI9AnimationLb0EE7ProduceE10MemLabelId18ObjectCreationMode
Mr:__ZN17ConstraintManagerD2Ev
sig:_HMACSHA512_set_ProduceLegacyHmacValues_m3961135292
odo:__ZL24UnresolvedVirtualCall_43P12Il2CppObjectS0_PK10MethodInfo
TQl:_Dictionary_2_Remove_m4193450060_gshared
Gvh:__ZNK19Color32_t26005012927get_g_2Ev
Kro:__Z24List_1__ctor_m2466177744P18List_1_t2411569343PK10MethodInfo
tIj:_MulticastDelegate_GetObjectData_m3957553424
p_n:_StandardEventPayload_set_name_m549984672
xDj:_Int64_TryParse_m3606398488
REl:_Array_InternalArray__set_Item_TisMark_t3471605523_m1299772331_gshared
w5c:__Z44Register_UnityEngine_GUIStyle_SetDefaultFontv
lqk:__ZNK30SymmetricAlgorithm_t425422308715get_ModeValue_7Ev
BF:__Z19AddCurveToDenseClipI8Vector3fEvRN7mecanim9animation9DenseClipEiRK17AnimationCurveTplIT_E
aL:__ZN9BlobWrite8TransferI22OffsetPtrArrayTransferIKN4math7_float3EEEEvRT_PKc17TransferMetaFlags
AJa:__ZN5Unity9Component23VirtualRedirectTransferER18StreamedBinaryRead
R9j:__ZN24StreamReader_t400993589914set_foundCR_13Eb
PNd:_unitytls_key_parse_der
Nan:_TextEditor_MoveParagraphBackward_m2833567235
BLj:__ZN49AssemblyInformationalVersionAttribute_t303776499110set_name_0EP8String_t
ZHa:__ZN9Scripting5Unity11Collections8LowLevel6Unsafe46NativeContainerIsAtomicWriteOnlyAttributeProxy12CleanupProxyEv
C2m:_X509Certificate_get_DSA_m565099499
Ilj:__Z25Il2CppCodeGenWriteBarrierI23IPv6Address_t2709566769EvPPT_S2_
kYh:__ZN23CADArgHolder_t58304931411set_index_0Ei
bTk:_StringBuilder_Remove_m940064945
jbo:__ZN32Vector3_t3722313464_StaticFields15set_oneVector_6E19Vector3_t3722313464
clb:__ZN14SafeBinaryRead21TransferSTLStyleArrayI13dynamic_arrayI16SplashScreenLogoLj0EEEEvRT_17TransferMetaFlags
dEb:__ZN13dynamic_arrayIN16GeometryJobTasks15GeometryJobTaskELj0EE18resize_initializedEjRKS1_12ResizePolicy
yTf:__Z25Il2CppCodeGenWriteBarrierI15RSA_t2385438082EvPPT_S2_
lfg:_DESCryptoServiceProvider_GenerateIV_m683687014
o3j:_BinaryWriter__ctor_m2439641268
VGa:__ZN9Scripting11UnityEngine14BoundsIntProxy12CleanupProxyEv
tDa:__ZN9Scripting11UnityEngine15RectOffsetProxy12CleanupProxyEv
L5d:__ZN9Scripting11UnityEngine12Experimental2XR18TrackingStateProxy12CleanupProxyEv
Mab:__ZL21SetAnisoLimitEnumImplN7Texture20AnisotropicFilteringEb
FOb:__Z18Transfer_BlittableI19StreamedBinaryWriteLb1EtEvRK29SerializationCommandArgumentsR31RuntimeSerializationCommandInfo
B0k:_Type_GetTypeHandle_m1526957577
aIf:__ZN31OpCodes_t126150456_StaticFields15set_Ldind_R4_77E17OpCode_t123070264
Vjo:__ZNK25TextGenerator_t321186386619get_m_CachedVerts_8Ev
Nqh:_Text_get_fontSize_m1677872538
sGk:__ZN45MSCompatUnicodeTable_t1453885583_StaticFields15set_cjkJAlv1_12EPh
VFg:_InternalEnumerator_1_System_Collections_IEnumerator_Reset_m3217592429_gshared
Mlm:_List_1_System_Collections_IList_get_Item_m995551621_gshared
rYh:__ZN21CADObjRef_t321912773012set_objref_0EP18ObjRef_t2141158884
h4l:__ZNK21HashSet_1_t164505563816get_threshold_10Ev
KHg:__Z75InternalEnumerator_1_System_Collections_IEnumerator_get_Current_m2032951142P32InternalEnumerator_1_t4136673857PK10MethodInfo
R4m:__ZN20X509Chain_t86378360011set_certs_1EP37X509CertificateCollection_t1542168550
Ucl:__Z49RuntimeInvoker_Void_t1185182177_Int16_t2552820387PFvvEPK10MethodInfoPvPS4_
Bvk:__ZN25SecurityFrame_t142246247517set__permitonly_4EP24PermissionSet_t223948603
x4l:__ZN21HashSet_1_t164505563811set_count_9Ei
ZHc:__Z29Input_CUSTOM_GetMouseButtonUpi
Byj:_Int16_Parse_m138525169
iok:__ZN23SHA384Managed_t7415857516set_byteCount2_7Ey
DWd:__ZN11UnityEngine9Analytics18ConnectSessionInfo12ToJsonStringERN4core12basic_stringIcNS2_20StringStorageDefaultIcEEEE
fMo:__ZN6il2cpp6icalls8mscorlib6System8MonoType16InternalGetEventEP20Il2CppReflectionTypeP12Il2CppStringi
Lvk:__ZNK40SecurityManager_t3383402582_StaticFields17get__lockObject_0Ev
Vwn:_UriScheme_t722425697_marshal_pinvoke_back
AGd:_UNITY_tt_face_load_maxp
_3c:__Z39Register_UnityEngine_Event_Internal_Usev
mIc:__Z46Input_CUSTOM_INTERNAL_set_compositionCursorPosRK13Vector2fIcall
Aw:__ZN7mecanim5human12FullBodyMaskEv
p7n:__ZNK46AudioExtensionManager_t3220897493_StaticFields21get_m_NextStopIndex_4Ev
sgm:__ZN22Enumerator_t312384892810set_next_1Ei
Pqp:__ZN6il2cpp6icalls8mscorlib6System9Threading10WaitHandle16WaitAny_internalEP11Il2CppArrayib
Bdc:__ZN13BatchRenderer15ApplyShaderPassER17ShaderPassContextPK18SharedMaterialDataP6ShaderPN9ShaderLab4PassEi13BatchingFlagsbbPKNS7_10GrabPassesEPK22DeviceRenderStateBlock
mSj:__ZN22FileStream_t429218306521set_append_startpos_5Ex
rhb:__ZN19ShaderPropertySheet11ComputeHashEv
Vtl:__Z68RuntimeInvoker_Int32_t2950945753_Score_t1179825972_Score_t1179825972PFvvEPK10MethodInfoPvPS4_
iCo:__ZN30dense_hashtable_const_iteratorI10KeyWrapperIPK19Il2CppGenericMethodES4_N6il2cpp8metadata23Il2CppGenericMethodHashEN14dense_hash_setIS4_S7_NS4_14EqualsComparerINS6_26Il2CppGenericMethodCompareEEENSt3__29allocatorIS4_EEE8IdentityESB_SE_EppEv
Pte:_Resources_t1597885468_marshal_pinvoke_cleanup
rkd:__ZN12b2EPCollider24ComputePolygonSeparationEv
XLd:__Z18RegisterUnityClassIN20TextRenderingPrivate7GUITextEEvPKc
D9:__ZN11UnityEngine15CloudWebService20WebRequestRestClient6IsDoneEv
Zpn:_Group__ctor_m2980794822
XW:__ZN9Scripting11UnityEngine5Audio24AudioPlayableOutputProxy9InitProxyEv
CDn:_CachedInvokableCall_1_Invoke_m502907382_gshared
Y$e:__ZL79Enumerable_t538148348_CustomAttributesCacheGenerator_Enumerable_Any_m1084009618P21CustomAttributesCache
Tl:_llvm_fabs_f32
q2h:__ZNK29LocalDataStoreSlot_t74084196810get_slot_0Ev
g9:__ZN11UnityEngine15CloudWebService16SessionContainer16GetJsonDataBlockEjRKN4core12basic_stringIcNS2_20StringStorageDefaultIcEEEERS6_PjSA_
XDe:__ZN17Image_t267026965130get_address_of_m_FillAmount_37Ev
yMk:_ASN1_Decode_m1695284166
ZG:__ZN7mecanim9animation18ClipMuscleConstant8TransferI14SafeBinaryReadEEvRT_
Lff:__ZL100UnityWebRequest_t463507806_CustomAttributesCacheGenerator_UnityWebRequest_BeginWebRequest_m464964044P21CustomAttributesCache
rDa:__ZN9Scripting11UnityEngine14TransformProxy12CleanupProxyEv
SLn:__ZNK30Board_t3688305287_StaticFields24get_tutorial_complete_17Ev
dKi:__ZN23GenericVirtFuncInvoker0IP28ValidationResult_t3834298736E6InvokeEPK10MethodInfoP12Il2CppObject
ZHm:_Collection_1_RemoveAt_m2240641437_gshared
kYo:__ZN10KeyWrapperIPK10Il2CppTypeEC2ENS3_11KeyTypeEnumE
Kdj:_Enum_ToString_m3248653065
Q3c:__Z40Register_UnityEngine_Event_set_modifiersv
U$h:__ZNK46RemotingConfiguration_t4113740665_StaticFields30get_serverProviderTemplates_12Ev
YCc:__Z27RegisterAllowNameConversionR20AllowNameConversionsPKcS2_S2_
ila:__ZN14SafeBinaryReadD2Ev
hgk:_SetPropertyUtility_SetStruct_TisFillMethod_t1167457570_m4164776730_gshared
xei:__ZNK18ObjRef_t21411588849get_uri_1Ev
_em:__ZN22Enumerator_t34368197257set_l_0EP18List_1_t1547575848
Thm:_Enumerator_MoveNext_m3859993671_gshared
Jxd:__ZN14SafeBinaryRead21TransferSTLStyleArrayI13dynamic_arrayIN20TextRenderingPrivate8FontImpl13CharacterInfoELj0EEEEvRT_17TransferMetaFlags
UDi:_SequentialSearchPrimeGeneratorBase_IsPrimeAcceptable_m1127740833
dvj:_Capture__ctor_m3103117740
Wgm:__Z28Enumerator__ctor_m3875432026P22Enumerator_t1222580846P18List_1_t3628304265PK10MethodInfo
FAb:__ZNK9GfxDevice22GetActiveRenderTargetsERA8_12ObjectHandleI17RenderSurface_TagP17RenderSurfaceBaseERS4_
qTm:_ReadOnlyCollection_1_System_Collections_Generic_ICollectionU3CTU3E_get_IsReadOnly_m3551835259_gshared
v3k:_UInt32_CompareTo_m2218823230
Edd:__ZN5Unity9rapidjson8internal6Grisu2EdPcPiS3_
aJn:__ZN35U3CStartU3Ec__Iterator0_t386039344215set_tweenInfo_0E21ColorTween_t809614380
hZj:_DateTimeFormatInfo_GetEraName_m3151483707
JMh:_RangeInt_get_end_m4128831787_AdjustorThunk
cNf:__Z40il2cpp_codegen_method_get_declaring_typeP10MethodInfo
n4l:__ZNK21HashSet_1_t164505563815get_comparer_11Ev
Dd:_SDL_PauseAudio
Kho:__ZL25UnresolvedVirtualCall_281P12Il2CppObject22UILineInfo_t4195266810PK10MethodInfo
yRn:_Slot_OnDrop_m60410793
Cml:__Z54RuntimeInvoker_Int32_t2950945753_LayerMask_t3493934918PFvvEPK10MethodInfoPvPS4_
kJh:_Object_Internal_InstantiateSingle_m4074556765
T3c:__Z40Register_UnityEngine_Event_set_characterv
jWa:__ZN4PPtrI6ShaderE8TransferI19StreamedBinaryWriteEEvRT_
opo:_RemoteSettings_RemoteSettingsUpdated_m1182006011
Knj:__ZNK15Oid_t355212026012get__value_0Ev
vso:_NativeHeaderAttribute__ctor_m457462113
sXe:__ZL77Convert_t2465617642_CustomAttributesCacheGenerator_Convert_ToSByte_m516918950P21CustomAttributesCache
isb:__ZN2UI13RectTransform8TransferI18StreamedBinaryReadEEvRT_
Qia:__ZN9ShaderLab19CommonPropertyNames16StaticInitializeEPv
Bqb:__ZN13MemoryManager31DisallowAllocationsOnThisThreadEv
ZMg:_Comparer_1__cctor_m2517796511_gshared
DRo:__ZN14dense_hash_mapI10KeyWrapperINSt3__24pairIPK10MethodInfoP11Il2CppClassEEEj17ReflectionMapHashIS8_ENS9_14EqualsComparerINS1_8equal_toIS8_EEEENS1_9allocatorINS2_IKS9_jEEEEE4findERSH_
T5c:__Z45GUIUtility_CUSTOM_Internal_GetKeyboardControlv
Ejf:__ZL101GUIUtility_t1868551600_CustomAttributesCacheGenerator_GUIUtility_t1868551600____guiDepth_PropertyInfoP21CustomAttributesCache
L4n:_UnityWebRequestAsyncOperation__ctor_m1252495487
jdp:__ZN6il2cpp2vmL14FindNestedTypeEP11Il2CppClassPKc
_ph:_SpriteState_get_pressedSprite_m3868967445_AdjustorThunk
i0:__ZN11AudioSource23VirtualRedirectTransferER24GenerateTypeTreeTransfer
_Nc:__ZN7Texture11SetWrapModeE15TextureWrapMode
lWd:__ZN22BaseUnityConnectClient13ResumeSessionEv
mcb:__ZN14Texture2DArray23VirtualRedirectTransferER14SafeBinaryRead
aCi:__ZN22BigInteger_t290290509010set_data_1EP24UInt32U5BU5D_t2770800703
mgc:__ZNK6Camera21CalculateCanDoShadowsEv
hej:__ZNK29Enum_t4135868527_StaticFields16get_split_char_0Ev
fsh:_Application_InvokeOnBeforeRender_m2875673833
rbn:_TextEditor_FindEndOfPreviousWord_m1511551992
cXh:__ZN26ClientIdentity_t142804684421set__proxyReference_7EP25WeakReference_t1334886716
Tlp:__ZN6il2cpp2os6Thread12SetStackSizeEj
SDe:__Z66SetPropertyUtility_SetStruct_TisFillMethod_t1167457570_m4164776730P12Il2CppObjectPiiPK10MethodInfo
Feh:_MaskableGraphic_RecalculateMasking_m183336762
OKg:__Z38InternalEnumerator_1__ctor_m4132027968P31InternalEnumerator_1_t334410285P11Il2CppArrayPK10MethodInfo
qDk:__ZNK44EncoderReplacementFallbackBuffer_t186318716223get_fallback_assigned_2Ev
eMf:_TypeBuilder_IsSubclassOf_m3458909121
TJf:__ZN31OpCodes_t126150456_StaticFields15set_Conv_U1_176E17OpCode_t123070264
Jhf:__ZL96GUILayout_t3503650450_CustomAttributesCacheGenerator_GUILayout_TextField_m1637580227____options1P21CustomAttributesCache
iKp:dynCall_viffii
Wpj:__ZN40X509Certificate2_t714049126_StaticFields17set_commonName_15EP22ByteU5BU5D_t4116647657
EOo:__ZNK10KeyWrapperINSt3__24pairIPK14Il2CppAssemblyP11Il2CppClassEEE8isNormalEv
gli:_X509Certificate__cctor_m198658613
Rll:__Z68RuntimeInvoker_Ray_t3785851493_Vector3_t3722313464_Int32_t2950945753PFvvEPK10MethodInfoPvPS4_
hYd:__ZN11UnityEngine9Analytics13ConnectConfig13SessionConfig8TransferI8JSONReadEEvRT_
s6f:_MemberTypeMetadata__ctor_m2376841411
OAc:__Z18RegisterUnityClassI7TextureEvPKc
kfi:__ZN46RemotingConfiguration_t4113740665_StaticFields30set_clientProviderTemplates_11EP21Hashtable_t1853889766
sxa:__ZN6prcoreL27StretchGenericFloatBilinearI15TexFormatRFloatEEvPKNS_9InnerInfoE
uEk:__ZN22TableRange_t333286789216set_IndexStart_3Ei
E8h:_ErrorMessage_get_MethodSignature_m3912515700
c4h:_Identity_get_EnvoySink_m1643114474
hTn:_U3CAddScoreWithPipeU3Ec__Iterator2_Reset_m1275135051
Y_e:__ZL139ServicePointManager_t170559685_CustomAttributesCacheGenerator_ServicePointManager_t170559685____CheckCertificateRevocationList_PropertyInfoP21CustomAttributesCache
gDe:__Z56LayoutGroup_SetProperty_TisSingle_t1397266774_m793506911P23LayoutGroup_t2436138090PffPK10MethodInfo
$9o:__ZN14dense_hash_mapI10KeyWrapperIP14Il2CppIUnknownEjN6il2cpp5utils11PointerHashIS1_EENS3_14EqualsComparerINSt3__28equal_toIS2_EEEENS9_9allocatorINS9_4pairIKS3_jEEEEE13set_empty_keyERSF_
Tdj:_Enum_ToObject_m1628250250
ymn:__ZNK16Mark_t347160552311get_Start_0Ev
vde:__Z25Il2CppCodeGenWriteBarrierI26EventFunction_1_t955952873EvPPT_S2_
CXf:__ZN43CompilationRelaxationsAttribute_t172144211111set_relax_0Ei
R4e:__ZL136GraphicsFormatUtility_t3491748452_CustomAttributesCacheGenerator_GraphicsFormatUtility_GetGraphicsFormat_Native_TextureFormat_m433736368P21CustomAttributesCache
kIf:__ZN31OpCodes_t126150456_StaticFields10set_Add_87E17OpCode_t123070264
h5m:__ZN22X509Stores_t137393623716set__storePath_0EP8String_t
N7a:__Z14PadImageBorderR14ImageReferenceii
CSo:__ZN15dense_hashtableINSt3__24pairIK10KeyWrapperINS1_IPK10MethodInfoP11Il2CppClassEEEjEES9_17ReflectionMapHashIS8_EN14dense_hash_mapIS9_jSD_NS9_14EqualsComparerINS0_8equal_toIS8_EEEENS0_9allocatorISB_EEE9SelectKeyESI_SK_E4findERSA_
sHo:__ZN6il2cpp2vm13MetadataCache28GetFieldDefaultValueForFieldEPK9FieldInfo
$se:__Z60GameObject_AddComponent_TisScrollRect_t4137855814_m507154143P22GameObject_t1113636619PK10MethodInfo
yik:_Array_IndexOf_TisUIVertex_t4057497605_m3336763564_gshared
eGm:__ZN21InterfaceFuncInvoker1I22OrderBlock_t1585977831iE6InvokeEjP11Il2CppClassP12Il2CppObjecti
gA:__ZN27AnimationLayerMixerPlayableD2Ev
upe:_ColorBlock_Equals_m518833916_AdjustorThunk
_km:_List_1_GetEnumerator_m2838255531_gshared
RJi:__ZN16VirtFuncInvoker2IbP26X509Certificate_t713131622P22Int32U5BU5D_t385246372E6InvokeEjP12Il2CppObjectS1_S3_
cym:_List_1_CheckCollection_m3678196246_gshared
Prg:_InternalEnumerator_1_System_Collections_IEnumerator_get_Current_m1514266661_AdjustorThunk
eY:__ZN12AudioManager39HandlePendingAudioConfigurationCallbackEv
VKi:__ZNK23CipherSuite_t341474457510get_name_2Ev
_4f:__ZN24ObjectReader_t194095739214set__context_1E28StreamingContext_t3711869237
lkn:__ZN25RepeatContext_t121486307611set_start_0Ei
Zg:_emscripten_glIsFramebuffer
nRk:_RSAManaged_EncryptValue_m799827583
xmc:__ZN12_GLOBAL__N_16qAtan2Eff
Doh:__ZNK18Slider_t390372890218get_m_FillImage_26Ev
H7k:__Z61RuntimeInvoker_UInt32_t2560061978_RuntimeObject_RuntimeObjectPFvvEPK10MethodInfoPvPS4_
$gi:__ZN35StrongName_t4093849377_StaticFields16set_lockObject_4EP12Il2CppObject
Sc:_JS_Sound_SetLoopPoints
Iyp:__ZN6il2cpp2vm26MetadataAllocGenericMethodEv
_ek:_Array_InternalArray__ICollection_Remove_TisUInt16_t2177724958_m1766181761_gshared
D6b:__ZN19ConstantBuffersGLES12RecordRenderEv
w7h:__ZN21MethodCall_t86107814022set__methodSignature_4EP22TypeU5BU5D_t3940880105
DHn:_UnityEvent_1__ctor_m3675246889_gshared
mBo:__ZNK15dense_hashtableI10KeyWrapperIPK17Il2CppGenericInstES4_N6il2cpp8metadata21Il2CppGenericInstHashEN14dense_hash_setIS4_S7_NS4_14EqualsComparerINS6_24Il2CppGenericInstCompareEEENSt3__29allocatorIS4_EEE8IdentityESB_SE_E4sizeEv
y8c:__ZN9JSONWrite8TransferI10RectOffsetEEvRT_PKc17TransferMetaFlags
Pdm:__ZN22Enumerator_t16668526157set_l_0EP18List_1_t4072576034
u7a:__ZN4crnd12symbol_codec11decode_bitsEj
rvl:__Z59RuntimeInvoker_Boolean_t97287965_KeyValuePair_2_t3842366416PFvvEPK10MethodInfoPvPS4_
WGi:_EncryptedPrivateKeyInfo__ctor_m3415744930
Nkd:__ZN15b2CircleContact8EvaluateEP10b2ManifoldRK11b2TransformS4_
snj:_AsnEncodedData__ctor_m3792312694
fpj:_OidEnumerator_Reset_m2503707245
fWn:_AesManaged_GenerateIV_m1368817386
KHc:__ZN21FixedBehaviourManagerD0Ev
Nyj:__Z37il2cpp_codegen_check_mul_overflow_i64xxxx
qX:__ZN4FMOD6System12createReverbEPPNS_6ReverbE
Ypp:__ZN6il2cpp2vm6String21InitializeEmptyStringEP11Il2CppClass
YYc:__Z51Register_UnityEngine_AnimationCurve_Internal_Createv
KRn:__ZN39U3CGetScoresU3Ec__Iterator3_t397722284013set_U24this_1EP30dreamloLeaderBoard_t2767863335
$Ke:__ZL48Queue_t3637523393_CustomAttributesCacheGeneratorP21CustomAttributesCache
Uz:__ZN7mecanim19ValueArrayBlendNodeILb1EEEvRKNS_10ValueArrayERKNS_14ValueArrayMaskERS1_RS4_RNS_16ValueArrayWeightEf
jdg:_CodeAccessPermission_GetHashCode_m880096813
_5n:__ZNK46AudioSpatializerExtensionDefinition_t59789618616get_definition_1Ev
Nho:__ZL25UnresolvedVirtualCall_284P12Il2CppObjecti19Vector2_t2156229523PK10MethodInfo
lyd:__ZN18StreamedBinaryRead21TransferSTLStyleArrayI13dynamic_arrayIcLj0EEEEvRT_17TransferMetaFlags
oLj:_AssemblyConfigurationAttribute__ctor_m3236176989
oip:__ZN6il2cpp2osL21IsSpecialZeroSizeFileEP4stat
YTf:_TypeDelegator_GetEvent_m3148520673
mvn:__ZNK34UriParser_t3890150400_StaticFields11get_table_1Ev
TKn:_ObjectPool_1_get_countInactive_m526975942_gshared
fdo:__ZL24UnresolvedVirtualCall_34P12Il2CppObjectPK10MethodInfo
YWh:_RemotingServices_DisposeIdentity_m2605848806
nwa:__ZNK9Transform11GetPositionEv
L6j:_WriteDelegate_EndInvoke_m952736984
epd:__ZNK29b2ClearContactIslandFlagsTask13GetRangeCountEv
Kno:__ZNK21HumanBone_t246533951811get_limit_2Ev
m1j:_GuidParser_Reset_m2640004655
S1l:__Z25Il2CppCodeGenWriteBarrierI30EqualityComparer_1_t3644565604EvPPT_S2_
kPb:__Z35Transfer_Blittable_FixedBufferFieldI19StreamedBinaryWritedEvRK29SerializationCommandArgumentsR31RuntimeSerializationCommandInfo
IBc:__ZN23SharedMeshRenderingData18UnloadVertexStreamEi
Y8o:__ZN6il2cpp2vm8Liveness10StartWorldEPFvvE
vol:__Z64RuntimeInvoker_Void_t1185182177_PlayableOutputHandle_t4208053793PFvvEPK10MethodInfoPvPS4_
VQd:__ZN31CanvasBatchIntermediateRenderer11AddSubBatchERK16DrawBuffersRangePK19ShaderPropertySheet
PNg:__ZN16VirtFuncInvoker2IiP12Il2CppObjectS1_E6InvokeEjS1_S1_S1_
IEc:__ZN19RenderEventsContextC2Ei
V6:__Z6simd4fRKf
Ucf:__ZL67SceneManager_t2787271929_CustomAttributesCacheGenerator_sceneLoadedP21CustomAttributesCache
w_j:_GregorianCalendar_GetEra_m2369958449
bcg:_RuntimeTypeHandle_GetObjectData_m1599302095_AdjustorThunk
eg:_emscripten_glEnable
W4d:__GLOBAL__sub_I_Runtime_VR_PluginInterface_0_cpp
svg:_InternalEnumerator_1_System_Collections_IEnumerator_get_Current_m2982675020_gshared
SLa:__ZN10TagManager23VirtualRedirectTransferER14SafeBinaryRead
Aqf:__ZL51RawImage_t3182918964_CustomAttributesCacheGeneratorP21CustomAttributesCache
Kxk:_String_System_IConvertible_ToType_m3431692856
qYh:_CADObjRef__ctor_m2673939978
oMi:_CipherSuiteCollection_System_Collections_IList_Contains_m1220133031
CMm:_Collection_1_System_Collections_IList_get_Item_m2931804586_gshared
N1o:__ZN6il2cpp2vm6Thread16RequestInterruptEP12Il2CppThread
rei:_ObjRef_get_EnvoyInfo_m1782007847
Mta:__ZN14PlayableOutput26ClearInvalidSourcePlayableEv
gjc:__Z15InitLightMeshesv
l3d:__Z60Register_UnityEngine_Networking_DownloadHandlerBuffer_Createv
h1o:_RaycastHit_get_collider_m1464180279
CJe:__ZL76MarshalAsAttribute_t3522571978_CustomAttributesCacheGenerator_MarshalTypeRefP21CustomAttributesCache
euo:__ZNK15dense_hashtableINSt3__24pairIK10KeyWrapperIPK22Il2CppGenericParameterEP11Il2CppClassEES6_N6il2cpp5utils11PointerHashIS4_EEN14dense_hash_mapIS6_S9_SE_NS6_14EqualsComparerINS0_8equal_toIS5_EEEENS0_9allocatorISA_EEE9SelectKeyESJ_SL_E10test_emptyEj
CWf:__ZN6il2cpp2vm3CCW11GetOrCreateEP12Il2CppObjectRK10Il2CppGuid
Kza:__ZL50__ManagedRegistrationHelperFunction_CoroutineProxyPv
ALh:__ZNK24PropertyName_t37498351898get_id_0Ev
pBk:__ZN16VirtFuncInvoker3IbDsDsiE6InvokeEjP12Il2CppObjectDsDsi
GUm:_ReadOnlyCollection_1_System_Collections_IList_Contains_m2904046095_gshared
$hf:__ZL56GUISkin_t1244372282_CustomAttributesCacheGenerator_m_boxP21CustomAttributesCache
t0j:_SortKey_GetHashCode_m3547067087
rTj:_Exception__ctor_m1406832249
j2h:_ContextCallbackObject_DoCallBack_m3942380501
mCd:_cf2_arrstack_init
tKl:_Array_InternalArray__get_Item_TisResourceCacheItem_t51292791_m1306056717_gshared
bvf:__ZL109dreamloLeaderBoard_t2767863335_CustomAttributesCacheGenerator_dreamloLeaderBoard_AddScoreWithPipe_m3861025962P21CustomAttributesCache
mrl:__Z157RuntimeInvoker_Void_t1185182177_RuntimeObject_RuntimeObject_RuntimeObject_RuntimeObject_RuntimeObject_RuntimeObject_RuntimeObject_RuntimeObject_RuntimeObjectPFvvEPK10MethodInfoPvPS4_
m9d:_EventSystem_get_pixelDragThreshold_m1103650852
p1e:__ZL60StaticAccessorType_t186341701_CustomAttributesCacheGeneratorP21CustomAttributesCache
$ea:__Z15CleanLogHandler7LogTypePKcz
hJj:_NumberFormatter_NumberToString_m2481532188
YEm:__ZN24Collection_1_t166750607514set_syncRoot_1EP12Il2CppObject
O0k:_Type_GetMethod_m1512604930
qai:_DictionaryEnumerator_MoveNext_m1462973125
NWg:_Enumerator_MoveNext_m76191888_gshared
g3:__ZN14AudioBehaviour15ThreadedCleanupEv
$Zj:__ZNK30DateTimeFormatInfo_t240585370127get_allShortDatePatterns_32Ev
bUb:__ZN6Camera17RemoveImageFilterERK11ImageFilter
IEb:__ZNSt3__218__insertion_sort_3IR25ValueParameterArraySorterPN20GpuProgramParameters14ValueParameterEEEvT0_S6_T_
Jqd:__ZN10ClipperLib7Clipper27ProcessEdgesAtTopOfScanbeamEx
sZd:__ZThn1172_N14UnityAnalyticsD0Ev
M_e:__ZL67EditorBrowsableAttribute_t1475454531_CustomAttributesCacheGeneratorP21CustomAttributesCache
zAi:_Comparer__cctor_m3311686689
H8n:_SampleFramesHandler__ctor_m3908528909
IVm:_ReadOnlyCollection_1_System_Collections_Generic_IListU3CTU3E_get_Item_m312201925_gshared
oke:_UIBehaviour_OnDidApplyAnimationProperties_m2143584361
xFe:__ZN30Image_t2670269651_StaticFields33set_m_TrackedTexturelessImages_46EP18List_1_t4142344393
Y4l:_RC2CryptoServiceProvider_GenerateKey_m468082592
Gvn:_Uri__ctor_m3040793867
nSg:_Enumerator_VerifyState_m1203790900_gshared
s$k:_TimeZone__ctor_m1831364098
T9o:___cxx_global_var_init_1_43022
mrp:__ZN6il2cpp2vm13ManagedObject7GetIidsEPjPP10Il2CppGuid
tug:_InternalEnumerator_1_get_Current_m3500427238_AdjustorThunk
ZRd:__ZN2UI26InitializeDeviceForOverlayEi
tJf:__ZN31OpCodes_t126150456_StaticFields17set_Ldelem_R8_150E17OpCode_t123070264
Gga:__Z27LogRepeatingStringWithFlagsRKN4core12basic_stringIcNS_20StringStorageDefaultIcEEEE15LogMessageFlagsi
c4k:_UInt64_System_IConvertible_ToSingle_m925613075
bej:_Enum_IsDefined_m1442314461
WXk:_Thread__cctor_m817723615
U5n:_AudioExtensionManager_RegisterBuiltinDefinitions_m2742744104
cx:__ZN17AnimationPlayable28ComputeNeedsBindingRebuildedEv
Y6k:__Z46RuntimeInvoker_SByte_t1669577662_RuntimeObjectPFvvEPK10MethodInfoPvPS4_
bw:__ZN17AnimationPlayable23RequestAllocateBindingsEv
K5d:__ZN9Scripting11UnityEngine12Experimental2XR18TrackingStateProxy9InitProxyEv
OTd:__Z53RectTransformUtility_CUSTOM_PixelAdjustPoint_InjectedRK8Vector2fP12Il2CppObjectS3_RS_
cwi:__ZNK21ArrayList_t271887474412get__items_2Ev
tBn:_Predicate_1_EndInvoke_m3884403745_gshared
zCk:_DecoderReplacementFallbackBuffer_Fallback_m1261056214
z9m:_TextEditor_HandleKeyEvent_m2539982240
s2m:__ZN31PKCS12_t4101533061_StaticFields29set_U3CU3Ef__switchU24map8_15EP24Dictionary_2_t2736202052
uim:_Enumerator_Dispose_m2367983719_gshared
Ubc:__ZNSt3__227__insertion_sort_incompleteIRPFbP10GUIElementS2_EPS2_EEbT0_S7_T_
qIc:__Z41Register_UnityEngine_Input_GetMouseButtonv
nHj:_Binder_get_DefaultBinder_m950908649
d9j:__ZN38SearchPattern_t3793128359_StaticFields18set_InvalidChars_1EP22CharU5BU5D_t3528271667
yRj:_StreamReader__ctor_m1616861391
RHd:_tt_cmap6_char_index
PVd:__ZN18UnityConnectClient33OnPlayerSessionStateChangedStaticEPS_jyy
pmd:__ZN19ProcessContactsDataD2Ev
vT:__ZN25RuntimeAnimatorController12CleanupClassEv
Q8l:__Z34KeyValuePair_2_set_Key_m2116817417P26KeyValuePair_2_t3842366416P12Il2CppObjectPK10MethodInfo
l6l:_RSA_ToXmlString_m2922661427
iWi:__ZNK21Enumerator_t66135868618get_currentValue_6Ev
naa:__ZNK11UnityEngine15CloudWebService23WebRequestUploadHandler11GetProgressEv
cak:__ZN24StreamWriter_t126637890420set_internalStream_3EP18Stream_t1273022909
V1b:__ZN7ApiGLES4LoadE16GfxDeviceLevelGL
Dhf:__ZL61GUIContent_t3050628031_CustomAttributesCacheGenerator_m_ImageP21CustomAttributesCache
e1i:_Convert_ToDecimal_m2233265097
kWn:__ZNK24AesTransform_t29571236119get_Nk_13Ev
_ep:__ZN15dense_hashtableI10KeyWrapperIP18Il2CppGenericClassES3_N6il2cpp8metadata22Il2CppGenericClassHashEN14dense_hash_setIS3_S6_NS3_14EqualsComparerINS5_25Il2CppGenericClassCompareEEENSt3__29allocatorIS3_EEE8IdentityESA_SD_E15insert_noresizeERKS3_
oGc:__ZZL31RegisterOtherRendererPropertiesR22GenericPropertyBindingEN30Wrapper_RendererReceiveShadows13GetFloatValueEPv
GNi:__ZN28HandshakeMessage_t369658316817set_contentType_7Eh
rdk:_Array_InternalArray__ICollection_Contains_TisSlot_t384495010_m688761886_gshared
Oo:FUNCTION_TABLE_viiffffi
X8a:__ZN17SharedTextureDataC2E10MemLabelIdii13TextureFormatjiibb
VWb:__ZN8Material11SetPassFastEPN9ShaderLab4PassER17ShaderPassContextP6Shaderib
NJm:_Collection_1_IsFixedSize_m3748602684_gshared
E6i:_DateTime_System_IConvertible_ToDouble_m2116720007
xEi:_BitConverterLE_GetUIntBytes_m795219058
vGa:__ZN9Scripting11UnityEngine17CullingGroupProxy12CleanupProxyEv
XZk:_WaitHandle_WaitOne_m2577152516
Ycg:_SByte_Parse_m2899090751
Eje:__ZN33StandaloneInputModule_t276046910123set_m_LastMoveVector_17E19Vector2_t2156229523
uQb:__Z18Transfer_BlittableI18StreamedBinaryReadLb0EN4math12int3_storageEEvRK29SerializationCommandArgumentsR31RuntimeSerializationCommandInfo
Ora:__Z18GetITerrainManagerv
Iih:__ZNK22ScrollRect_t413785581416get_m_Vertical_6Ev
gBj:_NumberFormatter_AppendExponent_m1258666517
rlg:_ArrayReadOnlyList_1_GetEnumerator_m1835926958_gshared
DAj:_NumberFormatter_AddOneToDecHex_m1662045257
qyc:__ZN19StreamedBinaryWrite21TransferSTLStyleArrayINSt3__26vectorIN9ShaderLab20SerializedSubProgram12UAVParameterENS1_9allocatorIS5_EEEEEEvRT_17TransferMetaFlags
Vpa:__ZN20GlobalCachingManager7DisposeEv
Xcc:__Z12SetupLODFadeR9GfxDeviceR17ShaderPassContextf
R2a:__ZNK14PlayableOutput7GetTypeEv
o9c:__ZN9JSONWrite8TransferI13dynamic_arrayI4AABBLj0EEEEvRT_PKc17TransferMetaFlags
jJe:__ZL69Type_t_CustomAttributesCacheGenerator_Type_GetConstructors_m576905011P21CustomAttributesCache
uBn:_Predicate_1__ctor_m4256519903_gshared
Vic:__ZL24CollectForwardObjectsJobP27CollectForwardObjectsHeader
Y0j:__ZN6Guid_t8set__c_2Es
PFo:__ZNK15dense_hashtableINSt3__24pairIK10KeyWrapperIPK11Il2CppClassEPKcEES6_N6il2cpp5utils11PointerHashIS3_EEN14dense_hash_mapIS6_S9_SE_NS6_14EqualsComparerINS0_8equal_toIS5_EEEENS0_9allocatorISA_EEE9SelectKeyESJ_SL_E12test_deletedERK24dense_hashtable_iteratorISA_S6_SE_SN_SJ_SL_E
IW:__ZL58__ManagedRegistrationHelperFunction_AudioClipPlayableProxyPv
obd:__ZN8JSONRead21TransferSTLStyleArrayI13dynamic_arrayIdLj0EEEEvRT_17TransferMetaFlags
olc:__Z13IsNodeVisibleRK9SceneNodeRK4AABBRK22SceneCullingParameters
ljk:_Array_InternalArray__IndexOf_TisLabelFixup_t858502054_m1491765395_gshared
Gal:__Z44RuntimeInvoker_RuntimeTypeHandle_t3027515415PFvvEPK10MethodInfoPvPS4_
YLg:__ZN21InterfaceFuncInvoker1IibE6InvokeEjP11Il2CppClassP12Il2CppObjectb
fNf:__ZN30GenericInterfaceActionInvoker1IP20Delegate_t1188392813E6InvokeEPK10MethodInfoP12Il2CppObjectS1_
DIk:_SortKeyBuffer_AppendCJKExtension_m2591091991
zDe:__ZN17Image_t267026965137set_m_AlphaHitTestMinimumThreshold_40Ef
S5m:__ZN19X509Crl_t114876738813set_entries_4EP21ArrayList_t2718874744
MUk:_UTF8Encoding_GetByteCount_m4153686982
m9l:__ZN26KeyValuePair_2_t24010569089set_key_0EP12Il2CppObject
aro:__ZN27ContactFilter2D_t380520344115set_layerMask_6E21LayerMask_t3493934918
yOp:_emscripten_glStencilMask__wrapper
Iog:__Z41InternalEnumerator_1_MoveNext_m2577879725P32InternalEnumerator_1_t4031039755PK10MethodInfo
WBo:__ZN15dense_hashtableI10KeyWrapperIPK19Il2CppGenericMethodES4_N6il2cpp8metadata23Il2CppGenericMethodHashEN14dense_hash_setIS4_S7_NS4_14EqualsComparerINS6_26Il2CppGenericMethodCompareEEENSt3__29allocatorIS4_EEE8IdentityESB_SE_EC2ERKSH_j
CEo:__ZN15dense_hashtableINSt3__24pairIK10KeyWrapperIN6il2cpp5utils13dynamic_arrayIPK10Il2CppTypeLj4EEEEPFvvEEESA_NS3_8metadata19Il2CppSignatureHashEN14dense_hash_mapISA_SD_SG_NSA_14EqualsComparerINSF_22Il2CppSignatureCompareEEENS0_9allocatorISE_EEE9SelectKeyESK_SM_EC2EjRKSG_RKSK_RKSO_
XKi:__ZNK23CipherSuite_t341474457518get_isExportable_6Ev
$xo:__ZNK15dense_hashtableINSt3__24pairIK10KeyWrapperIPK11Il2CppClassEPKcEES6_N6il2cpp5utils11PointerHashIS3_EEN14dense_hash_mapIS6_S9_SE_NS6_14EqualsComparerINS0_8equal_toIS5_EEEENS0_9allocatorISA_EEE9SelectKeyESJ_SL_E8min_sizeEjj
n2e:__ZL66RuntimePlatform_t4159857903_CustomAttributesCacheGenerator_XBOX360P21CustomAttributesCache
Xvb:__ZNK17ArchiveFileSystem8PositionERK13FileEntryData
Vvg:_InternalEnumerator_1_Dispose_m3577625655_gshared
ric:__Z17PrepareShadowMapsRK11CullResultsRK11ActiveLightRK10MinMaxAABB
_1m:_DeriveBytes_DeriveIV_m973925711
WBj:_Int32_System_IConvertible_ToSByte_m3133688512
YHn:_IndexedSet_1__ctor_m2250384602_gshared
Wdn:__Z25Il2CppCodeGenWriteBarrierI17List_1_t391719016EvPPT_S2_
Clm:_List_1_System_Collections_IList_Add_m1681258361_gshared
HUm:_ReadOnlyCollection_1_System_Collections_IList_IndexOf_m848971554_gshared
h8n:_AudioSampleProvider_get_id_m2692334523
Ric:__ZN9ShaderLab10GrabPassesD2Ev
wYo:__ZN10KeyWrapperINSt3__24pairIPK10MethodInfoP11Il2CppClassEEEC2ENS8_11KeyTypeEnumE
xcb:__ZN14Texture2DArray13UploadTextureEv
ieh:_MaskableGraphic_UpdateCull_m2805101913
KGk:__ZN26SimpleCollator_t287783472928get_address_of_cjkLv1Table_5Ev
gHd:_tt_cmap14_done
Aka:__ZN18AwakeFromLoadQueue25RegisterObjectInstanceIDsEv
xDa:__ZN9Scripting11UnityEngine9RectProxy12CleanupProxyEv
T1g:_InputField_UpdateLabel_m1837760870
$t:__ZN9Scripting11UnityEngine10Animations21LookAtConstraintProxy12CleanupProxyEv
oJj:__ZNK27NumberFormatter_t118292462115get__infinity_9Ev
Vzg:__ZNK32InternalEnumerator_1_t37800294199get_idx_1Ev
lA:__ZNK27AnimationLayerMixerPlayable11DerivesFromE17ScriptingClassPtr
rBo:__ZNK15dense_hashtableI10KeyWrapperIPK17Il2CppGenericInstES4_N6il2cpp8metadata21Il2CppGenericInstHashEN14dense_hash_setIS4_S7_NS4_14EqualsComparerINS6_24Il2CppGenericInstCompareEEENSt3__29allocatorIS4_EEE8IdentityESB_SE_E3endEv
Oyd:__ZN20TextRenderingPrivate19NativeTextGenerator15InsertCharacterEiPj
qDf:__Z25Il2CppCodeGenWriteBarrierI12MethodInfo_tEvPPT_S2_
o4o:__ZN10KeyWrapperINSt3__24pairIP11Il2CppClassjEEEC2ERKS4_
Wbl:__Z77RuntimeInvoker_Void_t1185182177_RuntimeObject_SByte_t1669577662_RuntimeObjectPFvvEPK10MethodInfoPvPS4_
TKg:__Z44InternalEnumerator_1_get_Current_m1477715453P31InternalEnumerator_1_t334410285PK10MethodInfo
SUg:_Enumerator_get_CurrentKey_m751894073_gshared
Rcp:__ZN10KeyWrapperINSt3__24pairIPKcS3_EEEC2ENS5_11KeyTypeEnumE
Hgd:__ZN11b2RopeJoint24SolveVelocityConstraintsERK12b2SolverData
xen:_GUIContent_ClearStaticCache_m1205116045
jsm:_List_1_System_Collections_IList_get_IsFixedSize_m203251153_gshared
_ff:__ZL107DownloadHandler_t2937767557_CustomAttributesCacheGenerator_DownloadHandler_InternalGetByteArray_m4277508027P21CustomAttributesCache
tPn:__ZNK23DragHandler_t418772403016get_coinSound_12Ev
cml:__Z87RuntimeInvoker_Color_t2555686324_Color_t2555686324_Color_t2555686324_Single_t1397266774PFvvEPK10MethodInfoPvPS4_
Auk:_WindowsIdentity_Dispose_m3466258450
Ny:__ZN17AnimationPlayableD0Ev
Exi:_ArrayListWrapper_Sort_m1587743350
Y9d:__Z22List_1_Add_m1435462754P18List_1_t2475741330P23EventSystem_t1003666588PK10MethodInfo
ZLn:__ZN30Board_t3688305287_StaticFields24set_tutorial_complete_17Eb
z1f:_BinaryCommon__cctor_m2978407547
Kfg:__ZNK24DESTransform_t408890549915get_byteBuff_17Ev
sca:__GLOBAL__sub_I_Runtime_Burst_0_cpp
Wgc:__Z19GetReflectionSampleRK23ReflectionProbesContextRK22ActiveReflectionProbesRK27PerObjectLightCullingOutputRK10RenderNodejP16ReflectionSample
qml:__Z77RuntimeInvoker_GraphicsFormat_t3787950389_Int32_t2950945753_SByte_t1669577662PFvvEPK10MethodInfoPvPS4_
Leo:__ZL25UnresolvedVirtualCall_120P12Il2CppObjectssiPK10MethodInfo
lKe:__ZL47ASN1_t2114160832_CustomAttributesCacheGeneratorP21CustomAttributesCache
J7o:__ZN6il2cpp6icalls8mscorlib6System2IO6MonoIO20GetFileSystemEntriesEP12Il2CppStringS6_iiPi
APh:__ZN23InterfaceActionInvoker1IP25RectTransform_t3704657025E6InvokeEjP11Il2CppClassP12Il2CppObjectS1_
HYj:__ZNK43DateTimeFormatInfo_t2405853701_StaticFields18get_MSG_READONLY_1Ev
C2k:_UInt16_TryParse_m4139137016
UWc:__Z41MonoBehaviour_Set_Custom_PropUseGUILayoutP12Il2CppObjecth
zlp:__ZN6il2cpp5utils13dynamic_arrayIPNS_2os6ThreadELj4EE9push_backEv
Vkp:__ZN6il2cpp2gc16GarbageCollector9FreeFixedEPv
WRk:__ZNK30SymmetricTransform_t380259184218get_FeedBackIter_8Ev
uDk:_Encoding__ctor_m2997749867
GDh:_ManagedStreamHelpers_ManagedStreamSeek_m3158782053
xjp:___cxx_global_var_init_43493
x_n:__Z28Dictionary_2_Add_m2942821800P24Dictionary_2_t2865362463P8String_tP12Il2CppObjectPK10MethodInfo
ttn:_ExpressionAssertion_Compile_m2166597834
LFb:__ZN16ScriptingManagerD0Ev
Kwk:_Single_System_IConvertible_ToSByte_m1208276900_AdjustorThunk
WT:__ZN7mecanim12statemachine20StateMachineConstant15InitializeClassEv
Hqp:__ZN6il2cpp6icalls8mscorlib6System7Convert24InternalFromBase64StringEP12Il2CppStringb
qfm:__Z65Enumerator_System_Collections_IEnumerator_get_Current_m1643543708P22Enumerator_t3436819725PK10MethodInfo
TZl:_EqualityComparer_1__ctor_m2241711498_gshared
Szl:__Z55RuntimeInvoker_TextEditOp_t1927482598_Int32_t2950945753PFvvEPK10MethodInfoPvPS4_
Abg:_RuntimeFieldHandle_GetObjectData_m95767031_AdjustorThunk
sQe:__ZL58ChannelServices_t3942013484_CustomAttributesCacheGeneratorP21CustomAttributesCache
Bcp:__ZN30dense_hashtable_const_iteratorINSt3__24pairIK10KeyWrapperINS1_IPKcS4_EEEiEES6_24NamespaceAndNamePairHashN14dense_hash_mapIS6_iS9_NS6_14EqualsComparerI26NamespaceAndNamePairEqualsEENS0_9allocatorIS8_EEE9SelectKeyESD_SF_EppEv
KYc:__Z44Register_UnityEngine_Component_get_transformv
_Uo:__ZNK24dense_hashtable_iteratorINSt3__24pairIK10KeyWrapperINS1_IPK9EventInfoP11Il2CppClassEEEjEES9_17ReflectionMapHashIS8_EN14dense_hash_mapIS9_jSD_NS9_14EqualsComparerINS0_8equal_toIS8_EEEENS0_9allocatorISB_EEE9SelectKeyESI_SK_EneERKSN_
qxl:__Z48RuntimeInvoker_Void_t1185182177_Link_t3209266973PFvvEPK10MethodInfoPvPS4_
YOb:__ZL26Transfer_SimpleNativeClassI19StreamedBinaryWrite8GradientLb1EEvRK29SerializationCommandArgumentsR31RuntimeSerializationCommandInfo
aM:__ZN12_GLOBAL__N_120ProcessPlayableGraphERN8Animator11AnimatorJobER35AnimationPlayableEvaluationConstantR32AnimationPlayableEvaluationInputR33AnimationPlayableEvaluationOutputPFvS4_R17AnimationPlayableEPFvS4_S6_S8_EPFvS8_S4_S6_S8_fESE_MS9_FvPS3_PS5_PS7_E
Sxe:__ZNK42FontUpdateTracker_t1839077620_StaticFields15get_m_Tracked_0Ev
Yko:_CanvasRenderer_get_absoluteDepth_m2703237819
P0j:_TextInfo_ToLower_m2744057472
Q7b:__ZN17ArchiveFileSystem12MountArchiveEPKcS1_
tzo:__ZN14dense_hash_mapI10KeyWrapperIP9FieldInfoEiN6il2cpp5utils11PointerHashIS1_EENS3_14EqualsComparerINSt3__28equal_toIS2_EEEENS9_9allocatorINS9_4pairIKS3_iEEEEE15set_deleted_keyERSF_
l1l:_EqualityComparer_1_System_Collections_IEqualityComparer_Equals_m3977314386_gshared
SGg:__ZNK32InternalEnumerator_1_t318664610611get_array_0Ev
B7c:__Z18Transfer_BlittableI9JSONWriteLb1E8Vector4fEvRK29SerializationCommandArgumentsR31RuntimeSerializationCommandInfo
Oja:__Z11RequireTypePKcS0_S0_
dUj:_CCGregorianCalendar_year_from_fixed_m463929682
UOd:__ZN2UI13CanvasManagerD0Ev
Xxi:_ReadOnlyArrayListWrapper_Sort_m2577012511
ash:_Debug_get_unityLogger_m2239795986
bOm:_ReadOnlyCollection_1_System_Collections_IEnumerable_GetEnumerator_m2123446296_gshared
JFi:_MD2Managed_Initialize_m2341076836
CRf:__ZN14MonoProperty_t12set_cached_3Ei
kwf:__ZNK23TypeBuilder_t107394815414get_pmodule_24Ev
EUm:_ReadOnlyCollection_1_System_Collections_IList_Add_m4240023232_gshared
U$j:__ZNK22RegionInfo_t109027022614get_iso2Name_3Ev
tBb:__ZN9GfxDevice15ImmediateVertexEfff
q7e:__ZL56PreLateUpdate_t3194249939_CustomAttributesCacheGeneratorP21CustomAttributesCache
Hcb:__ZNK16LightmapSettings22GetTypeVirtualInternalEv
hsd:__ZN17Physics2DSettings8TransferI19StreamedBinaryWriteEEvRT_
oTg:__Z34Enumerator_VerifyCurrent_m93918543P22Enumerator_t2086727927PK10MethodInfo
kVa:__ZN16GraphicsSettings13AwakeFromLoadE17AwakeFromLoadMode
pXo:__ZN30dense_hashtable_const_iteratorINSt3__24pairIK10KeyWrapperIPK14Il2CppAssemblyEPK22Il2CppMonoAssemblyNameEES6_N6il2cpp5utils11PointerHashIS4_EEN14dense_hash_mapIS6_SA_SF_NS6_14EqualsComparerINS0_8equal_toIS5_EEEENS0_9allocatorISB_EEE9SelectKeyESK_SM_EppEv
tBa:__ZL49__ManagedRegistrationHelperFunction_GPUFenceProxyPv
nq:__ZN6Object13AwakeFromLoadE17AwakeFromLoadMode
o_b:__ZN13GfxDeviceGLES15SetStencilStateEPK18DeviceStencilStatei
X6j:__ZN28GenericInterfaceFuncInvoker3IiP22ByteU5BU5D_t4116647657iiE6InvokeEPK10MethodInfoP12Il2CppObjectS1_ii
fhi:_Buffer_BlockCopyInternal_m418318694
gEp:_cycle
Jcf:__ZL138SupportedRenderingFeatures_t353898663_CustomAttributesCacheGenerator_SupportedRenderingFeatures_get_supportedLightmapBakeTypes_m1596512019P21CustomAttributesCache
xqp:__ZN6il2cpp2vm8Profiler7GCEventE13Il2CppGCEvent
Wal:__Z76RuntimeInvoker_Void_t1185182177_RuntimeObject_RuntimeFieldHandle_t1871169219PFvvEPK10MethodInfoPvPS4_
ple:__ZNK26BaseMeshEffect_t244017643915get_m_Graphic_4Ev
YJa:__ZN11SpriteAtlas23VirtualRedirectTransferER18StreamedBinaryRead
IAa:__ZL50__ManagedRegistrationHelperFunction_LayerMaskProxyPv
E_h:__ZNK25ConfigHandler_t419243721625get_currentProviderData_3Ev
pCo:__ZNSt3__218uninitialized_fillIP10KeyWrapperIPK19Il2CppGenericMethodES5_EEvT_S7_RKT0_
_so:__ZN35StaticAccessorAttribute_t243266390231set_U3CNameU3Ek__BackingField_0EP8String_t
Jh:_emscripten_glUniform1iv
bjf:__ZL97GUIStyle_t3956901511_CustomAttributesCacheGenerator_GUIStyle_t3956901511____fontSize_PropertyInfoP21CustomAttributesCache
RDb:__ZN13ComputeShader14SetBufferParamEjRKN9ShaderLab16FastPropertyNameE15ComputeBufferIDb
E1l:_EqualityComparer_1_get_Default_m1095255266_gshared
ajd:__ZN15b2DistanceProxy3SetEPK7b2Shapei
ttj:__ZN38X509Certificate2Enumerator_t331671381216set_enumerator_0EP12Il2CppObject
jyb:__ZN16MemoryFileSystemD2Ev
lbl:__Z150RuntimeInvoker_Int32_t2950945753_RuntimeObject_Int32_t2950945753_Int32_t2950945753_RuntimeObject_Int32_t2950945753_Int32_t2950945753_Int32_t2950945753PFvvEPK10MethodInfoPvPS4_
_2f:__ZNK27BaseFixupRecord_t318565345623get_NextSameContainer_2Ev
E0c:__ZN9Scripting11UnityEngine13GUIStyleProxy12CleanupProxyEv
DBo:__ZNSt3__218uninitialized_fillIP10KeyWrapperIPK17Il2CppGenericInstES5_EEvT_S7_RKT0_
aJo:__ZN6il2cpp2vmL15InitPollRequestER6pollfdP23Il2CppSocketAsyncResultRNS_2os19SocketHandleWrapperE
O7f:__Z25Il2CppCodeGenWriteBarrierI34SerializationCallbacks_t2570604627EvPPT_S2_
lqi:_Array_SetValue_m394135409
smg:_InternalEnumerator_1_System_Collections_IEnumerator_Reset_m81420524_AdjustorThunk
Vod:__ZN29b2InitializeContactSolverTask7TaskJobEPS_j
Mna:__ZN14FileCacherReadD2Ev
lAm:__Z34Enumerator_get_Current_m2282646120P22Enumerator_t1862690208PK10MethodInfo
DSh:_StackTraceUtility_ExtractStringFromExceptionInternal_m2686726792
cCl:__Z92RuntimeInvoker_RuntimeObject_SByte_t1669577662_SByte_t1669577662_RuntimeObject_RuntimeObjectPFvvEPK10MethodInfoPvPS4_
jT:__ZN13AnimationClip24SetDidModifyClipCallbackEPFvPS_R4ListI8ListNodeI14AnimationStateEEE
Xak:_StringReader_Read_m3322058819
gVh:_CrossAppDomainChannel_get_ChannelPriority_m3418073750
rYl:_EqualityComparer_1__ctor_m1860346363_gshared
k7g:_Selectable_StartColorTween_m3618813981
E3j:_BinaryWriter_Write_m973309864
Mle:__ZN44U3COnFinishSubmitU3Ec__Iterator0_t341343890013set_U24this_2EP18Button_t4055032469
DMf:_EventInfo__ctor_m3033129999
edo:__ZL24UnresolvedVirtualCall_33P12Il2CppObjectiS0_S0_PK10MethodInfo
sQm:_ReadOnlyCollection_1_System_Collections_Generic_ICollectionU3CTU3E_get_IsReadOnly_m2788045022_gshared
uKc:__ZN15ApplicationInfo16GetInstallerNameEv
Asc:__Z23ConvertIntegerToTypePtrItEbPvR14SafeBinaryRead
_aj:_Delegate_CombineImpl_m3572135514
pzj:_NumberFormatter_IntegerToString_m1679294587
mZf:__ZN22SafeHandle_t327338895112set_handle_0Ei
Snk:_SHA256Managed_AddLength_m1060552216
MRm:_ReadOnlyCollection_1_System_Collections_IList_RemoveAt_m422909114_gshared
NM:__ZN7mecanim5human29HumanGetGoalOrientationOffsetENS0_4GoalE
th:_emscripten_glStencilFunc
J6f:_CodeGenerator_EmitWrite_m1452031614
Fco:__ZL23UnresolvedVirtualCall_6P12Il2CppObjectiPK10MethodInfo
ydo:__ZL24UnresolvedVirtualCall_53P12Il2CppObjectPK10MethodInfo
WH:__ZN13dynamic_arrayI11KeyframeTplI8Vector3fELj0EE18resize_initializedEj12ResizePolicy
dPb:__Z18Transfer_BlittableI19StreamedBinaryWriteLb1EjEvRK29SerializationCommandArgumentsR31RuntimeSerializationCommandInfo
Phe:__Z46il2cpp_codegen_get_marshal_directive_exceptionPKc
BAn:__ZN22Nullable_1_t260372133115set_has_value_1Eb
pzc:__ZN9ShaderLab20SerializedSubProgram14AddMatrixParamEPKcii15ShaderParamTypei
qk:_glGetActiveUniformBlockName
xmf:__ZL90PointerEventData_t3807901092_CustomAttributesCacheGenerator_U3CpointerIdU3Ek__BackingFieldP21CustomAttributesCache
Q8k:__Z67RuntimeInvoker_Int32_t2950945753_RuntimeObject_Int32U26_t1369213839PFvvEPK10MethodInfoPvPS4_
Q0d:__GLOBAL__sub_I_UnityWebRequestScriptingClasses_cpp
iqn:_Parser_IsIgnoreCase_m2210120858
oyp:__ZN6il2cpp2vm13WeakReference14QueryInterfaceERK10Il2CppGuidPPv
Jpo:_Mesh_GetAllocArrayFromChannel_TisVector2_t2156229523_m1057679375_gshared
K8m:_GUI_HandleTextFieldEventForTouchscreen_m1092737262
J4d:__ZN9Scripting11UnityEngine5Video16VideoPlayerProxy9InitProxyEv
Kip:__ZN6il2cpp2os5posix13PosixAutoLockD2Ev
iHo:__ZN6il2cpp2vm13MetadataCache28GetGenericContainerFromIndexEi
dRa:__ZNK4PPtrI5FlareEcvPS0_Ev
uBj:__ZN27NumberFormatter_t118292462117set__specifier_13EDs
bZ:__ZN4FMOD7Channel20set3DConeOrientationEP11FMOD_VECTOR
Ln:FUNCTION_TABLE_iiifii
LRc:__Z22scripting_string_chars18ScriptingStringPtr
tie:_StandaloneInputModule_set_inputActionsPerSecond_m4057208843
vOj:_AssemblyBuilder_not_supported_m1735277432
rFg:_InternalEnumerator_1_MoveNext_m1344185775_AdjustorThunk
mJ:__ZN7mecanim5human9HumanPose8TransferI18StreamedBinaryReadEEvRT_
Shp:__ZN6il2cpp2vm12GenericClass11SetupEventsEP11Il2CppClass
jJd:_tt_delta_interpolate
NDf:__ZN24ModuleBuilder_t73188769116set_assemblyb_16EP26AssemblyBuilder_t359885250
FHd:_tt_cmap12_get_info
CLg:__ZN32InternalEnumerator_1_t20868900899set_idx_1Ei
aLm:_Collection_1_Contains_m1707523067_gshared
ogm:_Enumerator__ctor_m2029608698_AdjustorThunk
baj:_Decimal_ToString_m1815393864_AdjustorThunk
$te:__Z25Il2CppCodeGenWriteBarrierI26OptionDataList_t1438173104EvPPT_S2_
Y5h:_CADMethodCallMessage_GetArguments_m3041854375
Cvn:__ZN27Uri_t100236324_StaticFields30set_U3CU3Ef__switchU24map16_33EP24Dictionary_2_t2736202052
QQl:_Dictionary_2_OnDeserialization_m4209543208_gshared
qrp:__ZThn4_N6il2cpp2vm13CachedCCWBaseINS0_13ManagedObjectEE7ReleaseEv
Iaj:__ZN20Delegate_t118839281323get_address_of_method_3Ev
F9m:_GUIUtility_set_textFieldInput_m4036087722
S0i:__ZNK33DateTime_t3738529785_StaticFields31get_ParseYearMonthDayFormats_16Ev
qLo:__ZN6il2cpp6icalls8mscorlib6SystemL20GetMethodsByNameImplINS_5utils10functional6FilterINSt3__212basic_stringIcNS7_11char_traitsIcEENS7_9allocatorIcEEEENS4_13VmStringUtils23CaseInsensitiveComparerEEEEEP11Il2CppArrayPK10Il2CppTypejRKT_
qT:__ZN29AnimationStateNetworkProvider24GetNetworkAnimationStateER9AnimationP24AnimationStateForNetworki
kan:_TextEditor_ClearCursorPos_m1765024837
e6l:_RNGCryptoServiceProvider_GetNonZeroBytes_m1918423726
rFo:__ZL29ConvertPackingSizeEnumToValue11PackingSize
wll:__Z100RuntimeInvoker_Void_t1185182177_RuntimeObject_Int32_t2950945753_Int32_t2950945753_UInt16_t2177724958PFvvEPK10MethodInfoPvPS4_
qTp:_glCopyTexImage2D__wrapper
rud:__ZN16PhysicsManager2D11CreateWorldERK8Vector2f
rWe:__ZL62ArithmeticException_t4283546778_CustomAttributesCacheGeneratorP21CustomAttributesCache
Ovn:_Uri__ctor_m4293005803
hff:__ZL108TextGenerator_t3211863866_CustomAttributesCacheGenerator_TextGenerator_get_characterCountVisible_m3790045314P21CustomAttributesCache
eXb:__Z18ClearByDrawingQuad13GfxClearFlagsRK10ColorRGBAffjR17ShaderPassContext
Ywa:__ZN6prcoreL17RemapGenericFloatI14TexFormatRHalf15TexFormatRFloatEEvPKNS_9InnerInfoE
eBj:_NumberFormatter_FormatExponential_m2139559983
FNe:__ZL82Assembly_t_CustomAttributesCacheGenerator_Assembly_LoadWithPartialName_m3387477452P21CustomAttributesCache
Fta:__ZN15DirectorManager21RebuildStageCallbacksEv
wck:__ZNK33UnmanagedMemoryStream_t423411766922get_current_position_7Ev
dsh:_Application_Internal_ApplicationQuit_m2936209313
CNd:__ZN9Scripting11UnityEngine8Tilemaps22TileAnimationDataProxy9InitProxyEv
Z0b:__ZN7ApiGLES10DrawArraysE16GfxPrimitiveTypejjj
o9h:_MethodCall_get_TypeName_m3873929301
Y0:__ZN10SampleClip13LoadBaseSoundEv
Wmi:_SmallXmlParser_SkipWhitespaces_m4243606597
pBi:__ZNK21Hashtable_t185388976614get_hashKeys_7Ev
oBa:__ZL50__ManagedRegistrationHelperFunction_TransformProxyPv
i9n:__ZNK23WorkRequest_t135451861224get_m_DelagateCallback_0Ev
Uwi:_ArrayList_Sort_m4234055499
pJb:__ZN14SafeBinaryRead21TransferSTLStyleArrayI13dynamic_arrayI10Matrix4x4fLj0EEEEvRT_17TransferMetaFlags
mXg:__ZN25KeyCollection_t215849496616set_dictionary_0EP24Dictionary_2_t1968819495
Tti:_Byte_CompareTo_m4285128861
Wae:_TriggerEvent__ctor_m87299207
Z1m:_DeriveBytes_DeriveKey_m2933043667
N4:__Z57AudioSource_CUSTOM_INTERNAL_CALL_ClearExtensionPropertiesP12Il2CppObjectRK12PropertyName
Fhp:__ZN15dense_hashtableINSt3__24pairIK10KeyWrapperIP12Il2CppObjectEN6il2cpp2gc9CachedCCWEEES5_NS7_5utils11PointerHashIS3_EEN14dense_hash_mapIS5_S9_SD_NS5_14EqualsComparerINS0_8equal_toIS4_EEEENS0_9allocatorISA_EEE9SelectKeyESI_SK_E15insert_noresizeERKSA_
Ocn:_GUILayoutUtility_BeginWindow_m2240221150
YJi:_CertificateValidationCallback2__ctor_m1685875113
utg:__ZNK32InternalEnumerator_1_t150172948011get_array_0Ev
M2a:__ZN22DeviceMVPMatricesStateC2ER9GfxDevice
DVi:_SslClientStream_Finalize_m1251363641
rva:__ZN6Object16StaticInitializeEv
nKi:__ZN23CipherSuite_t341474457527set_exchangeAlgorithmType_5Ei
jxh:_Logger_set_logEnabled_m1180597166
QXn:__ZN24EventTrigger_t252745169518set_m_RepeatTime_7Ef
Fzi:_Comparer_Compare_m3984347512
kr:__ZN17CallbackArrayBaseIPFviR18AwakeFromLoadQueue16SceneLoadingModeEPFvPKviS1_S2_EE8RegisterES4_S8_S6_
mNk:__ZN26BlockProcessor_t185103122516set_blockCount_3Ei
NZo:__ZN6il2cpp2vm10Reflection12HasAttributeEP9FieldInfoP11Il2CppClass
$b:invoke_viiifi
TNn:__ZN16Cell_t220640442114set_reduced_10Eb
uzi:__Z25Il2CppCodeGenWriteBarrierI23CultureInfo_t4157843068EvPPT_S2_
XRf:_MonoProperty_GetCustomAttributes_m3619796755
vyg:_InternalEnumerator_1_MoveNext_m4132713223_AdjustorThunk
R9h:_MethodDictionary_System_Collections_IEnumerable_GetEnumerator_m4169036899
Pmi:__ZN23InterfaceActionInvoker2IP8String_tP12Il2CppObjectE6InvokeEjP11Il2CppClassS3_S1_S3_
cVm:_ReadOnlyCollection_1_System_Collections_Generic_IListU3CTU3E_get_Item_m3666607533_gshared
KQk:__Z25Il2CppCodeGenWriteBarrierI36KeyGeneratedEventHandler_t3064139577EvPPT_S2_
g$k:_TimeSpan_Subtract_m1264203589
z$d:__ZN19BaseConnectSettings13SetEnabledRawEb
E2h:_CrossContextChannel__ctor_m3755842292
kWl:_DefaultComparer_Equals_m3257444875_gshared
C4a:__ZN10Matrix4x4f8TransferI19StreamedBinaryWriteEEvRT_
Uc:_JS_Sound_SetPosition
y6d:__ZNK23EventSystem_t100366658826get_m_CurrentInputModule_5Ev
SGo:__ZL13GetSharedInstPK17Il2CppGenericInst
$mf:__ZL98PointerEventData_t3807901092_CustomAttributesCacheGenerator_PointerEventData_get_delta_m1062010255P21CustomAttributesCache
jzj:__ZN27NumberFormatter_t118292462113set__thread_6EP18Thread_t2300836069
AUa:__Z27ConvertSubMeshesToTrianglesIjEvR13dynamic_arrayI7SubMeshLj0EERS0_IhLj0EE
NPh:_RenderTexture_Internal_Create_m347030155
G$h:__ZNK29SoapTypeAttribute_t175093081716get__isElement_9Ev
bIf:__ZN31OpCodes_t126150456_StaticFields15set_Ldind_R8_78E17OpCode_t123070264
pkc:__Z17PrepareSceneNodesP11CullResults
Kpg:_InternalEnumerator_1_get_Current_m476140818_gshared
Xyc:__ZN9ShaderLab10SubProgram30CreateFromSerializedSubProgramERKNS_20SerializedSubProgramEP16PropertyNamesSetPK6Shader
Dzg:_InternalEnumerator_1_Dispose_m887344916_gshared
Irm:_List_1_Sort_m4240158523_gshared
w6l:__ZN36RSACryptoServiceProvider_t268351287415set_persisted_4Eb
MCf:__ZN25ParameterInfo_t186105659815set_ClassImpl_0EP6Type_t
XTl:__ZNK23Dictionary_2_t13254515212get_count_10Ev
woe:__ZN45CanvasUpdateRegistry_t2720824592_StaticFields26set_s_SortLayoutFunction_5EP24Comparison_1_t1896830045
uUc:__Z57Register_UnityEngine_RectTransform_set_sizeDelta_Injectedv
Ike:_AnimationTriggers_set_disabledTrigger_m933056574
tI:__ZNSt3__26vectorIN13AnimationClip15QuaternionCurveE13stl_allocatorIS2_L18MemLabelIdentifier26ELi16EEE7reserveEj
Vnm:_List_1_Add_m238442097_gshared
lSc:__ZN9TextAsset7SetTextERKN4core12basic_stringIcNS0_20StringStorageDefaultIcEEEE
sPa:__ZN6Camera8TransferI24GenerateTypeTreeTransferEEvRT_
i6:__Z18RegisterUnityClassI12AudioManagerEvPKc
JM:__ZN7mecanim9animation15EvaluateAvatarXEPKNS0_14AvatarConstantEPKNS0_11AvatarInputEPNS0_12AvatarOutputEPNS0_12AvatarMemoryEPNS0_15AvatarWorkspaceE
fb:invoke_iiiiiiii
iEl:_Array_InternalArray__set_Item_TisByte_t1134296376_m3104140039_gshared
trj:__ZN38X509ChainElementEnumerator_t301425345616set_enumerator_0EP12Il2CppObject
nXc:__Z56Register_UnityEngine_MonoBehaviour_IsObjectMonoBehaviourv
jOh:_Rect_ToString_m447614148
fza:__ZL83__ManagedRegistrationHelperFunction_NativeDisableUnsafePtrRestrictionAttributeProxyPv
j3m:_PKCS12_GetBytes_m415958948
TNi:_Context_get_HandshakeState_m2425796590
Aac:__ZN8Renderer17PendingAddToSceneEv
YKm:_Collection_1_System_Collections_IList_set_Item_m2625856224_gshared
$Sp:b122
gTp:b125
fTp:b124
oTp:b127
hTp:b126
HKo:__ZN6il2cpp5utils10functional6FilterINSt3__212basic_stringIcNS3_11char_traitsIcEENS3_9allocatorIcEEEENS0_13VmStringUtils21CaseSensitiveComparerEEC2ES9_SB_
xyk:_String_CompareOrdinalCaseInsensitiveUnchecked_m2925624579
eJm:_Collection_1_System_Collections_IList_Add_m3667497629_gshared
NFh:_Mesh_SetSizedArrayForChannel_m2565120436
yja:__Z21PostprocessStacktracePKcRN4core12basic_stringIcNS1_20StringStorageDefaultIcEEEE
zkf:__ZL73ContactFilter2D_t3805203441_CustomAttributesCacheGenerator_minNormalAngleP21CustomAttributesCache
rap:__ZN15dense_hashtableINSt3__24pairIK10KeyWrapperIP14Il2CppIUnknownEjEES5_N6il2cpp5utils11PointerHashIS3_EEN14dense_hash_mapIS5_jSB_NS5_14EqualsComparerINS0_8equal_toIS4_EEEENS0_9allocatorIS7_EEE9SelectKeyESG_SI_E12expand_arrayEjN21dense_hash_map_traits17integral_constantIbLb0EEE
HDh:_ManagedStreamHelpers_ManagedStreamLength_m2930872960
Dne:__ZN21InterfaceFuncInvoker0IbE6InvokeEjP11Il2CppClassP12Il2CppObject
lPj:__ZNK30ConstructorBuilder_t281352410810get_type_8Ev
g7j:_FileStreamAsyncResult_CBWrapper_m1670848754
UVi:__ZN21Enumerator_t66135868610set_mode_4Ei
LIh:__ZN28MessageEventArgs_t117057578414set_playerId_0Ei
Rne:___clang_call_terminate
EWd:__ZN22BaseUnityConnectClient20StartEventDispatcherEv
uOc:__ZNSt3__26vectorIj13stl_allocatorIjL18MemLabelIdentifier1ELi16EEE6assignIPKtEENS_9enable_ifIXaasr21__is_forward_iteratorIT_EE5valuesr16is_constructibleIjNS_15iterator_traitsIS9_E9referenceEEE5valueEvE4typeES9_S9_
rL:__ZN7mecanim9animation16EvaluateAvatarIKEPKNS0_14AvatarConstantEPKNS0_11AvatarInputEPNS0_12AvatarOutputEPNS0_12AvatarMemoryEPNS0_15AvatarWorkspaceEb
xB:__ZN26AnimatorControllerPlayable10GetIntegerEiRi
Trc:__Z29StdTemplateConversionFunctionIsiEbPvR14SafeBinaryRead
ucd:__ZN8JSONRead21TransferSTLStyleArrayI13dynamic_arrayI10ColorRGBAfLj0EEEEvRT_17TransferMetaFlags
I9b:__ZN12InputManager13InputEndFrameEv
hLo:__ZNSt3__26__treeIP11Il2CppClassNS_4lessIS2_EENS_9allocatorIS2_EEE25__emplace_unique_key_argsIS2_JRKS2_EEENS_4pairINS_15__tree_iteratorIS2_PNS_11__tree_nodeIS2_PvEEiEEbEERKT_DpOT0_
P8f:__ZNK24ObjectWriter_t296840623118get_arrayBuffer_11Ev
iwh:_Object_get_name_m4211327027
J1o:__ZN6il2cpp2vm6Thread5SetupEP12Il2CppThread
ERo:__ZN14dense_hash_mapI10KeyWrapperINSt3__24pairIPK10MethodInfoP11Il2CppClassEEEj17ReflectionMapHashIS8_ENS9_14EqualsComparerINS1_8equal_toIS8_EEEENS1_9allocatorINS2_IKS9_jEEEEE3endEv
oMp:_pthread_cond_wait__wrapper
wPm:_ReadOnlyCollection_1_System_Collections_IList_get_IsReadOnly_m1248651675_gshared
KTg:_Enumerator_System_Collections_IDictionaryEnumerator_get_Key_m2500634048_gshared
lbf:__ZL82NativeMatchesParallelForLengthAttribute_t1813325102_CustomAttributesCacheGeneratorP21CustomAttributesCache
l0j:_SortKey_Compare_m1705990888
hWm:_ReadOnlyCollection_1_System_Collections_Generic_ICollectionU3CTU3E_Add_m2054518774_gshared
Zio:_TextGenerator_t3211863866_marshal_pinvoke_back
sEp:___munmap
A5g:__ZNK16Text_t190188271418get_m_TextCache_32Ev
$l:_localtime_r
TYf:_InterfaceTypeAttribute__ctor_m3307583035
Cwg:_InternalEnumerator_1_System_Collections_IEnumerator_Reset_m3619766341_AdjustorThunk
H3a:__ZN14SafeBinaryRead21TransferSTLStyleArrayI13dynamic_arrayI12BoneWeights4Lj0EEEEvRT_17TransferMetaFlags
Phg:__ZNK16HMAC_t262110114415get__disposed_5Ev
Xda:__Z19free_alloc_internalPv10MemLabelId
tRe:__ZL56ReturnMessage_t1376985608_CustomAttributesCacheGeneratorP21CustomAttributesCache
UTk:_UTF32Decoder_GetChars_m1925558948
Bm:_strftime
DZa:__ZN7Texture33SetStoredColorSpaceNoDirtyNoApplyE17TextureColorSpace
$Wf:_ResourceSet__ctor_m3618395942
l9i:_Decimal_System_IConvertible_ToDouble_m3125524987_AdjustorThunk
ioa:__ZN12FileAccessorD2Ev
n7m:__ZN30Event_t2956885303_StaticFields15set_s_Current_1EP17Event_t2956885303
PUa:__ZN14VertexDataInfoC2Ev
Fkp:__ZN6il2cpp2gc16GarbageCollector14CollectALittleEv
bs:__ZN13dynamic_arrayI23TransformAccessReadOnlyLj0EE4growEv
Lfh:_PositionAsUV1__ctor_m3868540123
kMc:__ZNK9HPlayable15GetPlayableTypeEv
Ryl:__Z117RuntimeInvoker_Void_t1185182177_CustomAttributeTypedArgumentU5BU5DU26_t2503877664_Int32_t2950945753_Int32_t2950945753PFvvEPK10MethodInfoPvPS4_
yQb:__Z18Transfer_BlittableI18StreamedBinaryReadLb0EN4math12int2_storageEEvRK29SerializationCommandArgumentsR31RuntimeSerializationCommandInfo
Dgh:_RectMask2D_IsRaycastLocationValid_m1652308696
F9g:__ZN23LayoutGroup_t243613809026set_m_TotalFlexibleSize_10E19Vector2_t2156229523
Hga:__ZNSt3__26__treeINS_12__value_typeIPKciEENS_19__map_value_compareIS3_S4_15compare_tstringIS3_ELb1EEENS_9allocatorIS4_EEE21__emplace_unique_implIJNS_4pairIPciEEEEENSD_INS_15__tree_iteratorIS4_PNS_11__tree_nodeIS4_PvEEiEEbEEDpOT_
YLo:__ZN6il2cpp6icalls8mscorlib6SystemL9IsPrivateEPK12PropertyInfo
K3m:_X501_ToString_m1148552872
wE:__Z26AddScaleCurveToClipBuilderR17AnimationCurveTplI8Vector3fERKN4core12basic_stringIcNS3_20StringStorageDefaultIcEEEER18MecanimClipBuilderb
mol:__Z96RuntimeInvoker_RuntimeObject_PlayableGraph_t3515989261_RuntimeObject_RuntimeObject_RuntimeObjectPFvvEPK10MethodInfoPvPS4_
LOh:_RectTransform_add_reapplyDrivenProperties_m1374850920
pxh:_DebugLogHandler_Internal_LogException_m4213045108
Mia:__ZN9shadertag10InitializeEv
_ig:__ZN36MD5CryptoServiceProvider_t300558604211set_count_6Ey
urp:__ZThn8_N6il2cpp2vm13CachedCCWBaseINS0_13ManagedObjectEE7DestroyEv
$7f:__ZNK28SerializationInfo_t95087717918get_assemblyName_2Ev
qwd:__GLOBAL__sub_I_Modules_Terrain_Public_1_cpp
l0o:_il2cpp_field_has_attribute
cab:__ZN15QualitySettings14QualitySetting8TransferI24GenerateTypeTreeTransferEEvRT_
YJh:__ZN26PlayableHandle_t109585380315set_m_Version_1Ej
tzp:__ZN6il2cpp5utils6Memory11AlignedFreeEPv
u4n:_UnityWebRequest_get_isHttpError_m797082501
a1m:__ZN29KeyUsageExtension_t179561591212set_kubits_3Ei
tLi:_Context_get_ClientWriteKey_m3174706656
$lf:__ZL77ExecuteEvents_t3484638744_CustomAttributesCacheGenerator_U3CU3Ef__mgU24cache7P21CustomAttributesCache
m3g:_InputField_get_textComponent_m948764648
w$c:__Z44Register_UnityEngine_Object_DestroyImmediatev
ofd:__ZL34CleanupModule_PerformanceReportingv
M3i:_Convert_ToSingle_m835189399
CHn:__ZNK24UnityEvent_1_t343734582819get_m_InvokeArray_4Ev
M6o:__ZN6il2cpp6icalls8mscorlib6System10Reflection19ResourceNameMatcherC2ERKNSt3__212basic_stringIcNS5_11char_traitsIcEENS5_9allocatorIcEEEE
tJc:__ZN22BlockMemoryCacheWriter14LockCacheBlockEjPPhS1_
uKo:__ZN6il2cpp6icalls8mscorlib6System8MonoType24GetConstructors_internalEP20Il2CppReflectionTypeiS5_
X1c:__ZNSt3__218__insertion_sort_3IRPFbPKN5IMGUI9GUIWindowES4_EPPS2_EEvT0_SA_T_
eeg:_CryptographicUnexpectedOperationException__ctor_m69881930
STe:__ZL73TripleDESCryptoServiceProvider_t3595206342_CustomAttributesCacheGeneratorP21CustomAttributesCache
oDm:_Collection_1_SetItem_m1218178236_gshared
nbd:__Z22TransferField_NonArrayI8JSONRead27Converter_SimpleNativeClassI8GUIStyleEEvRK23StaticTransferFieldInfoR31RuntimeSerializationCommandInfoRT0_
qZn:__Z25Il2CppCodeGenWriteBarrierI29TrackableProperty_t3943537984EvPPT_S2_
Rl:_llvm_eh_typeid_for
WUf:__ZN26ResourceReader_t330049263916set_readerLock_1EP12Il2CppObject
ove:__Z28List_1_get_Count_m1106558045P17List_1_t487303889PK10MethodInfo
mAi:_CollectionBase_OnClear_m883003723
kMp:_glGetUniformLocation__wrapper
r9h:_RemotingServices_FindInterfaceMethod_m2125212568
nDg:__Z40InternalEnumerator_1_Dispose_m1121538879P32InternalEnumerator_1_t3467126095PK10MethodInfo
KC:__ZNK23AnimationPlayableOutput7GetTypeEv
mak:_StreamWriter__cctor_m1229272693
Cvf:__ZL118U3CGetScoresU3Ec__Iterator3_t3977222840_CustomAttributesCacheGenerator_U3CGetScoresU3Ec__Iterator3_Dispose_m1881923159P21CustomAttributesCache
Gdj:_Enum_System_IConvertible_ToSByte_m779472798
F8f:__ZN18VirtActionInvoker1IP22CharU5BU5D_t3528271667E6InvokeEjP12Il2CppObjectS1_
_do:__ZL24UnresolvedVirtualCall_81P12Il2CppObjectPK10MethodInfo
a0k:_Type_get_IsInterface_m3284996719
wpg:_InternalEnumerator_1_MoveNext_m1543390728_gshared
FBo:__ZN10KeyWrapperIPK17Il2CppGenericInstEC2ERKS2_
m9n:_UnitySynchronizationContext_ExecuteTasks_m1310741010
zpn:_RegularExpression__ctor_m119502265
jIb:__ZNSt3__26vectorI17ScriptingFieldPtr13stl_allocatorIS1_L18MemLabelIdentifier1ELi16EEE21__push_back_slow_pathIRKS1_EEvOT_
m0j:_SortKey_get_OriginalString_m1428586816
gmh:_Scrollbar_get_numberOfSteps_m1256457796
kvl:__Z51RuntimeInvoker_Void_t1185182177_Vector4_t3319028937PFvvEPK10MethodInfoPvPS4_
Amo:_AnimationOffsetPlayable_GetHandle_m449079993
Nxd:__ZN14SafeBinaryRead21TransferSTLStyleArrayI13dynamic_arrayIN4core17string_with_labelILi35EEELj0EEEEvRT_17TransferMetaFlags
_al:__Z67RuntimeInvoker_Void_t1185182177_SByte_t1669577662_SByte_t1669577662PFvvEPK10MethodInfoPvPS4_
t8f:__ZN18VirtActionInvoker1IDsE6InvokeEjP12Il2CppObjectDs
KUl:_Dictionary_2_U3CCopyToU3Em__0_m2023886030_gshared
tF:__ZN9BlobWrite8TransferIN7mecanim5human9HumanGoalEEEvRT_PKc17TransferMetaFlags
zTg:__Z28Enumerator_Reset_m1473454555P22Enumerator_t2086727927PK10MethodInfo
_Np:_glBindVertexArray__wrapper
VG:__ZN13dynamic_arrayIN11UnityEngine9Animation14GenericBindingELj0EE18resize_initializedEj12ResizePolicy
h4f:_SerializationInfo__ctor_m2923079689
mYd:__ZN11UnityEngine9Analytics16LimitEventConfig8TransferI8JSONReadEEvRT_
c1a:__ZN8Material8TransferI14SafeBinaryReadEEvRT_
y5a:__ZN12CubemapArray17UploadToGfxDeviceEv
Rnj:__ZNK38AsnEncodedData_t382354011_StaticFields28get_U3CU3Ef__switchU24mapA_2Ev
pcl:__Z68RuntimeInvoker_Void_t1185182177_Int32_t2950945753_Single_t1397266774PFvvEPK10MethodInfoPvPS4_
yZg:__ZN26ShimEnumerator_t327160967921set_host_enumerator_0E21Enumerator_t934104361
Hyj:_Int32_JumpOverWhite_m208298144
xmg:__ZNK32InternalEnumerator_1_t42399320099get_idx_1Ev
xKk:__ZN35BigInteger_t2902905089_StaticFields17set_smallPrimes_2EP24UInt32U5BU5D_t2770800703
Czo:__ZN15dense_hashtableINSt3__24pairIK10KeyWrapperIP9FieldInfoEiEES5_N6il2cpp5utils11PointerHashIS3_EEN14dense_hash_mapIS5_iSB_NS5_14EqualsComparerINS0_8equal_toIS4_EEEENS0_9allocatorIS7_EEE9SelectKeyESG_SI_E4swapERSL_
RKm:_Collection_1_System_Collections_ICollection_get_IsSynchronized_m2228426193_gshared
noj:__ZNK33X509KeyUsageExtension_t204210159113get__status_8Ev
iRp:_emscripten_glGetUniformiv__wrapper
jrp:__ZN6il2cpp2vm13ManagedObject14QueryInterfaceERK10Il2CppGuidPPv
jI:__ZNSt3__26vectorI24CompressedAnimationCurve13stl_allocatorIS1_L18MemLabelIdentifier26ELi16EEE6assignINS_11__wrap_iterIPS1_EEEENS_9enable_ifIXaasr21__is_forward_iteratorIT_EE5valuesr16is_constructibleIS1_NS_15iterator_traitsISB_E9referenceEEE5valueEvE4typeESB_SB_
Z5j:__ZN28StreamAsyncResult_t7802485129set_exc_3EP11Exception_t
LZ:__ZN11AudioSource4StopEb
Mro:__Z25Il2CppCodeGenWriteBarrierI18List_1_t2411569343EvPPT_S2_
Yni:_AppDomain_LoadAssembly_m1557889794
K3j:_BinaryWriter_Write_m340679106
D5n:__ZN24SingleU5BU5D_t144491125121GetAddressAtUncheckedEj
Irp:__ZN6il2cpp2os14WindowsRuntime13DeleteHStringEP15Il2CppHString__
hFb:__ZN18GlslGpuProgramGLESD2Ev
opc:__ZN13RenderTexture14SetVolumeDepthEi
SDi:__ZN23GenericVirtFuncInvoker1IbiE6InvokeEPK10MethodInfoP12Il2CppObjecti
f0:__ZN11AudioSource23VirtualRedirectTransferER19StreamedBinaryWrite
EMf:_EventInfo_get_EventHandlerType_m420690865
Okl:__Z86RuntimeInvoker_Void_t1185182177_UInt16_t2177724958_SByte_t1669577662_SByte_t1669577662PFvvEPK10MethodInfoPvPS4_
nCn:_Predicate_1_EndInvoke_m2572100896_gshared
czc:__Z22LoadGpuProgramFromDataPKhS0_Rj
Tbd:__ZN10Matrix4x4f8TransferI8JSONReadEEvRT_
P_b:__ZN13GfxDeviceGLES22AllocateBufferInternalERK13GfxBufferDesc
z9f:__ZN38CodeGenerator_t1096194562_StaticFields13set__module_1EP24ModuleBuilder_t731887691
_ai:_MethodResponse_GetArg_m4250300354
Mfh:_PositionAsUV1_ModifyMesh_m4231919476
eBi:_Hashtable__ctor_m1941859523
rMm:__ZN18VirtActionInvoker2Ii19Vector4_t3319028937E6InvokeEjP12Il2CppObjectiS0_
uOg:_Comparer_1_get_Default_m1947376189_gshared
Bjh:_ScrollRect_set_horizontalScrollbarSpacing_m2209919081
c5b:__ZN25TransformFeedbackSkinning31CleanupTransformFeedbackShadersEv
z0k:_Type_GetTypeCodeInternal_m1968182887
bJn:_TweenRunner_1_Init_m3026112660_gshared
$Pa:__Z22scripting_object_unbox18ScriptingObjectPtr
bYf:_CriticalFinalizerObject__ctor_m3245424448
D5h:_AsyncResult_get_NextSink_m1844209137
Qyd:__ZNK20TextRenderingPrivate8FontImpl19GetCharacterAdvanceEjijfPj
xlk:_Array_InternalArray__ICollection_Add_TisUriScheme_t722425697_m3142345403_gshared
uDp:_fmt_u
Bqk:__ZN29ToBase64Transform_t255155705716set_m_disposed_0Eb
lIl:_Dictionary_2_Do_CopyTo_TisDictionaryEntry_t3123975638_TisDictionaryEntry_t3123975638_m1126292988_gshared
Pro:_RaycastHit2D_get_point_m1586138107_AdjustorThunk
dCp:__ZN6il2cpp8metadata25Il2CppGenericClassCompare7CompareEPK18Il2CppGenericClassS4_
aPd:__ZN2UI11CanvasGroup23VirtualRedirectTransferER19StreamedBinaryWrite
PQd:__ZN2UI29ResetVRScreenSpaceWarningFlagEv
OEf:__ZN24ModuleBuilder_t73188769118set_global_type_21EP23TypeBuilder_t1073948154
WHj:_MonoType_get_Assembly_m4290914179
Mzc:__ZN9ShaderLab7ProgramC2E10MemLabelIdi10ShaderType
xpc:__ZN14PreloadManager16UpdatePreloadingEv
ZNa:__ZN12BaseRendererD2Ev
FAg:_InternalEnumerator_1_System_Collections_IEnumerator_Reset_m3545912565_gshared
jSc:__ZNSt3__26vectorI4PPtrI10MonoScriptE13stl_allocatorIS3_L18MemLabelIdentifier79ELi16EEE6insertENS_11__wrap_iterIPKS3_EERS9_
Ryk:_String_LastIndexOf_m95398196
_r:__ZN13ConstraintJob23ConstraintComponentDataC2ERK16LookAtConstraint
eZn:__ZN42U3CTimedTriggerU3Ec__Iterator0_t381343549418set_U24disposing_2Eb
oEg:_InternalEnumerator_1_System_Collections_IEnumerator_Reset_m3355902602_AdjustorThunk
Xij:__ZN26HttpWebRequest_t166943651513set_method_18EP8String_t
bIa:__ZN9Scripting5Unity11Collections39DeallocateOnJobCompletionAttributeProxy12CleanupProxyEv
ZJh:_PlayableAsset__ctor_m2395156306
znf:__ZL79StandaloneInputModule_t2760469101_CustomAttributesCacheGenerator_m_SubmitButtonP21CustomAttributesCache
_No:__ZN6il2cpp2os4File4ReadEPNS0_10FileHandleEPciPi
Fpb:__ZN19RenderBufferManager7Buffers14GarbageCollectEi
uga:__ZN13RuntimeStaticI13dynamic_arrayI22RenderingExtPluginDescLj0EELb0EE13StaticDestroyEPv
ytc:__ZNK21UnityDefaultAllocatorI17LowLevelAllocatorE8ContainsEPKv
gJo:__ZNSt3__213__vector_baseI6pollfdNS_9allocatorIS1_EEED2Ev
ccg:_RuntimeTypeHandle_Equals_m2857439487
_e:_emscripten_get_main_loop_timing
lPo:__ZNK30dense_hashtable_const_iteratorINSt3__24pairIK10KeyWrapperINS1_IPK14Il2CppAssemblyP11Il2CppClassEEEjEES9_17ReflectionMapHashIS8_EN14dense_hash_mapIS9_jSD_NS9_14EqualsComparerINS0_8equal_toIS8_EEEENS0_9allocatorISB_EEE9SelectKeyESI_SK_EptEv
V8i:__ZN32Decimal_t2948259380_StaticFields14set_MinValue_0E19Decimal_t2948259380
Sqg:_InternalEnumerator_1_System_Collections_IEnumerator_Reset_m2270178034_AdjustorThunk
ida:__GLOBAL__sub_I_Runtime_PreloadManager_0_cpp
uZf:_SafeHandle_Finalize_m3866180675
gcp:__ZNK10KeyWrapperINSt3__24pairIPKcS3_EEEcvRKS4_Ev
bab:__ZN24GenerateTypeTreeTransfer21TransferSTLStyleArrayINSt3__26vectorIN15QualitySettings14QualitySettingENS1_9allocatorIS4_EEEEEEvRT_17TransferMetaFlags
OVm:_ReadOnlyCollection_1_System_Collections_IList_Add_m2445024939_gshared
$7j:_MemoryStream_ToArray_m3911744835
CSg:_Enumerator_System_Collections_IDictionaryEnumerator_get_Entry_m859540448_AdjustorThunk
Vok:__ZN25SHA512Managed_t17873363399set_H5_12Ey
xze:__Z34IndexedSet_1_AddUnique_m3811577403P24IndexedSet_1_t3109723551P19Graphic_t1660335611PK10MethodInfo
Boc:__ZN23ManagedAttributeManager52CallManagedGetParentTypeDisallowingMultipleInclusionE17ScriptingClassPtr
xkb:__Z10AddGUIAxesR13dynamic_arrayI9InputAxisLj0EE
QBp:__ZN6il2cpp2os5Event4WaitEjb
J0k:_Type_GetHashCode_m1947148725
ZAk:__Z25Il2CppCodeGenWriteBarrierI26StringComparer_t3301955079EvPPT_S2_
Wcc:__ZN13BatchRendererC2ER15RenderLoopStatsRK15RenderNodeQueuebbb
jci:__ZN25ReturnMessage_t137698560818set__returnValue_4EP12Il2CppObject
Vfl:__Z91RuntimeInvoker_Void_t1185182177_RuntimeObject_RuntimeObject_RuntimeObject_SByte_t1669577662PFvvEPK10MethodInfoPvPS4_
Hca:__GLOBAL__sub_I_Runtime_Graphics_0_cpp
N0n:_ToggleGroup_U3CActiveTogglesU3Em__1_m1947537119
Prb:__ZNK2UI13RectTransform22GetTypeVirtualInternalEv
d$g:__ZN28GenericInterfaceFuncInvoker2IP12Il2CppObjectS1_bE6InvokeEPK10MethodInfoS1_S1_b
Ap:getTempRet0
o5e:__ZL59LayerMask_t3493934918_CustomAttributesCacheGenerator_m_MaskP21CustomAttributesCache
zpl:__Z64RuntimeInvoker_UnityWebRequestError_t359680823_Int32_t2950945753PFvvEPK10MethodInfoPvPS4_
aBo:__ZNK14dense_hash_setI10KeyWrapperIPK17Il2CppGenericInstEN6il2cpp8metadata21Il2CppGenericInstHashENS4_14EqualsComparerINS6_24Il2CppGenericInstCompareEEENSt3__29allocatorIS4_EEE8IdentityclERKS4_
ixg:_InternalEnumerator_1_MoveNext_m2234422530_gshared
dNi:__Z25Il2CppCodeGenWriteBarrierI29TlsClientSettings_t2486039503EvPPT_S2_
GOj:__ZNK26AssemblyBuilder_t35988525016get_resources_16Ev
nOo:__ZN6il2cpp2gc19AppendOnlyGCHashMapINSt3__24pairIPK14Il2CppAssemblyP11Il2CppClassEEP24Il2CppReflectionAssembly17ReflectionMapHashIS9_ENS2_8equal_toIS9_EEE10CopyValuesEPv
O8d:_BaseRaycaster_OnEnable_m2678466030
Uzh:_UnityEventBase__ctor_m1851535676
OGl:_Array_Sort_TisVector4_t3319028937_m2797285308_gshared
W3d:__GLOBAL__sub_I_Runtime_Vehicles_0_cpp
mck:_UnexceptionalStreamWriter_Write_m1834931241
m8e:__ZL58ProfilerEndFrame_t852348665_CustomAttributesCacheGeneratorP21CustomAttributesCache
UHf:__ZN31OpCodes_t126150456_StaticFields15set_Ldind_I1_69E17OpCode_t123070264
e7o:__ZN6il2cpp6icalls8mscorlib6System9ThreadingL21lookup_cached_cultureEP12Il2CppThreadi
Fwp:__ZN6il2cpp2os11EventHandleD2Ev
oAj:__ZNK27NumberFormatter_t118292462112get__val4_22Ev
kWh:__ZNK26MethodResponse_t214751120119get__callContext_11Ev
Vjc:__ZN18DeferredRenderLoopD2Ev
lmo:_AnimationLayerMixerPlayable__cctor_m4086299972
yIa:__ZNK16TypeTreeIterator4NameEv
T4e:__ZL121GraphicsFormatUtility_t3491748452_CustomAttributesCacheGenerator_GraphicsFormatUtility_GetRenderTextureFormat_m2347522639P21CustomAttributesCache
UHl:_Array_swap_TisUICharInfo_t75501106_m3934244159_gshared
ZAh:_GraphicsFormatUtility_GetRenderTextureFormat_m2347522639
qHe:__ZL40UIntPtr_t_CustomAttributesCacheGeneratorP21CustomAttributesCache
Ina:__ZN15FileSystemEntry3SetEPKc
o4c:__Z42GUIStyle_CUSTOM_get_contentOffset_InjectedP12Il2CppObjectR8Vector2f
xPj:_ConstructorBuilder_Invoke_m3010446651
Nke:_AspectRatioFitter_get_aspectMode_m3735191157
NKk:_BigInteger_ToString_m570257729
Alj:_IPv6Address_set_ScopeId_m3907190992
zOm:_ReadOnlyCollection_1_System_Collections_Generic_IListU3CTU3E_Insert_m568455025_gshared
Ohf:__ZL121GUILayoutUtility_t66395690_CustomAttributesCacheGenerator_GUILayoutUtility_CreateGUILayoutGroupInstanceOfType_m1053115040P21CustomAttributesCache
LY:__ZN20SoundChannelInstance15ParameterBuffer5ApplyEPN4FMOD7ChannelE
Xzl:__Z50RuntimeInvoker_Score_t1179825972_Int32_t2950945753PFvvEPK10MethodInfoPvPS4_
nlj:_IPv6Address__ctor_m4117281080
Bso:__ZN33NativeMethodAttribute_t418742819342set_U3CHasExplicitThisU3Ek__BackingField_4Eb
OFk:__ZNK45MSCompatUnicodeTable_t1453885583_StaticFields12get_level1_3Ev
g3i:_Convert_ToInt64_m2075293963
Nyd:__ZN20TextRenderingPrivate19NativeTextGenerator9InsertTabEv
xIp:_sbrk
Eth:_Bounds_GetHashCode_m1844059663
PFm:_Collection_1_System_Collections_Generic_ICollectionU3CTU3E_get_IsReadOnly_m1032650589_gshared
FQb:__Z18Transfer_BlittableI18StreamedBinaryReadLb1E4AABBEvRK29SerializationCommandArgumentsR31RuntimeSerializationCommandInfo
U_h:__ZN25ConfigHandler_t419243721622set_currentClientUrl_4EP8String_t
aYd:__ZN11UnityEngine15PlatformWrapper24GetRuntimePlatformStringEv
Pk:_glIsEnabled
brb:__ZN15CacheWriterBaseD2Ev
vNl:__Z31Enumerator_MoveNext_m3045873697P21Enumerator_t572278398PK10MethodInfo
UOj:_DerivedType__ctor_m1853298054
gIb:__Z25scripting_class_get_image17ScriptingClassPtr
Czi:_CaseInsensitiveComparer_Compare_m1224120810
jmm:_List_1_RemoveAt_m2730968292_gshared
Wmb:__ZNSt3__26vectorIN4core12basic_stringIcNS1_20StringStorageDefaultIcEEEE13stl_allocatorIS5_L18MemLabelIdentifier13ELi16EEEC2INS_11__wrap_iterIPS5_EEEET_SE_RKS8_PNS_9enable_ifIXaasr21__is_forward_iteratorISE_EE5valuesr16is_constructibleIS5_NS_15iterator_traitsISE_E9referenceEEE5valueEvE4typeE
cg:_emscripten_glDrawElementsInstanced
tB:__ZN26AnimatorControllerPlayable27SetupStateMachineBehavioursEv
Pgk:_Array_InternalArray__IEnumerable_GetEnumerator_TisSlot_t3975888750_m1869932007_gshared
jij:__ZN25FtpWebRequest_t157781830513set_binary_10Eb
w5e:__ZL48Mathf_t3464937446_CustomAttributesCacheGeneratorP21CustomAttributesCache
J2e:__ZL79Camera_t4157153871_CustomAttributesCacheGenerator_Camera_RaycastTry_m3913529496P21CustomAttributesCache
dah:_LayoutGroup_get_preferredWidth_m3816902260
AYa:__ZN18JobBatchDispatcherD2Ev
jkn:__ZN25RepeatContext_t121486307610set_lazy_3Eb
Krb:__ZN9Transform17MainThreadCleanupEv
Sup:_GC_clear_hdr_marks
ULp:_emscripten_glCreateShader__wrapper
iao:__ZN32Vector2_t2156229523_StaticFields28set_negativeInfinityVector_9E19Vector2_t2156229523
cpi:__ZNK31ApplicationIdentity_t191773535615get__fullName_0Ev
e0n:__ZNK22ToggleGroup_t12383799022get_m_AllowSwitchOff_4Ev
LBd:_cff_fd_select_get
blg:__ZNK43U3CGetEnumeratorU3Ec__Iterator0_t375079332416get_U3CiU3E__0_0Ev
BRp:_emscripten_glTexParameteri__wrapper
Eqh:_Text_set_resizeTextForBestFit_m4095249125
Yzk:__ZN33Encoding_t1523322056_StaticFields18set_i18nAssembly_5EP10Assembly_t
epj:_OidEnumerator_MoveNext_m3138911739
$Em:__ZNK24Collection_1_t166750607510get_list_0Ev
Qvl:__Z53RuntimeInvoker_Boolean_t97287965_Keyframe_t4206410242PFvvEPK10MethodInfoPvPS4_
Mg:_emscripten_glGetShaderiv
y$k:__ZNK33TimeZone_t2038656743_StaticFields20get_timezone_check_2Ev
RDn:_InvokableCall_1_add_Delegate_m1011133128_gshared
e_:__ZN4FMOD6System10getVersionEPj
OYg:__ZN26ShimEnumerator_t196554029232get_address_of_host_enumerator_0Ev
J7a:__Z26GetDecompressTextureFormat13TextureFormat
lV:__ZN9Scripting11UnityEngine2XR5Tango13PoseDataProxy12CleanupProxyEv
dsi:__ZNK34AttributeUsageAttribute_t29087731815get_inherited_2Ev
Bnh:_Selectable_set_animationTriggers_m2970345687
Xgn:__ZN26GUIScrollGroup_t152332902120set_calcMaxHeight_30Ef
Ioh:__ZNK18Slider_t390372890219get_m_HandleRect_19Ev
v9c:__ZN9JSONWrite8TransferIN4math12int2_storageEEEvRT_PKc17TransferMetaFlags
zxd:__ZN13TextRendering4Font13AwakeFromLoadE17AwakeFromLoadMode
GXj:_CompareInfo_LastIndexOf_m2688553706
sdj:_Enum__ctor_m3602080049
oAb:__ZN9GfxDevice21ReleaseSharedMeshDataEP14SharedMeshData
fQb:__Z29Transfer_Blittable_ArrayFieldI19StreamedBinaryWritehEvRT_R9ArrayInfoRK23StaticTransferFieldInfo
Y9m:_GUISettings_Internal_GetCursorFlashSpeed_m2762316906
wge:_MouseState__ctor_m1467839005
odh:__ZN20MatEntry_t295710709215set_writeMask_7Ei
yvn:_Uri_IsDomainAddress_m2867513594
dVg:__Z32KeyValuePair_2__ctor_m2797317909P26KeyValuePair_2_t1377593753P12Il2CppObjectiPK10MethodInfo
Zlb:__ZNSt3__27__sort5IRNS_6__lessINS_4pairIPKN5Unity4TypeE7Hash128EES8_EEPS8_EEjT0_SC_SC_SC_SC_T_
SWe:__ZL79Convert_t2465617642_CustomAttributesCacheGenerator_Convert_ToDouble_m2949593046P21CustomAttributesCache
g$f:__Z25Il2CppCodeGenWriteBarrierI24ObjectU5BU5D_t2843939325EvPPT_S2_
xqm:_List_1_Insert_m1987928029_gshared
pwe:_Dropdown_CreateItem_m2954407740
wBe:__ZNK34ReflectionMethodsCache_t210321106215get_raycast3D_0Ev
vRo:__ZNK30dense_hashtable_const_iteratorINSt3__24pairIK10KeyWrapperIPK10Il2CppTypeEjEES6_N6il2cpp8metadata14Il2CppTypeHashEN14dense_hash_mapIS6_jSB_NS6_14EqualsComparerINSA_26Il2CppTypeEqualityComparerEEENS0_9allocatorIS8_EEE9SelectKeyESF_SH_EptEv
u9e:__ZL50Cubemap_t1972384409_CustomAttributesCacheGeneratorP21CustomAttributesCache
bsj:_X509Chain_ProcessCrlExtensions_m236234529
Tho:__ZL25UnresolvedVirtualCall_290P12Il2CppObjecti19Vector4_t3319028937PK10MethodInfo
nIk:__ZNK19Context_t174453113017get_PrevSortKey_6Ev
kko:__ZNK31Canvas_t3310196443_StaticFields24get_willRenderCanvases_4Ev
WSj:__ZNK31MonoIO_t2601436415_StaticFields27get_InvalidFileAttributes_0Ev
Swo:__ZN6il2cpp2vm5Class40GetInterfaceInvokeDataFromVTableSlowPathEPK12Il2CppObjectPK11Il2CppClassj
crf:__ZL85ScrollRect_t4137855814_CustomAttributesCacheGenerator_m_HorizontalScrollbarVisibilityP21CustomAttributesCache
XIg:_InternalEnumerator_1_Dispose_m3790132913_gshared
gCe:_GridLayoutGroup_set_startAxis_m837106447
iyi:__ZNK40SynchronizedArrayListWrapper_t228375709516get_m_SyncRoot_6Ev
Jtg:_InternalEnumerator_1_System_Collections_IEnumerator_Reset_m521819017_gshared
PFh:__Z64Mesh_GetAllocArrayFromChannel_TisVector3_t3722313464_m4289135201P16Mesh_t3648964284iPK10MethodInfo
c0h:_RemotingConfiguration_RegisterChannelTemplate_m3105688054
cyc:__ZN6Shader8TransferI19StreamedBinaryWriteEEvRT_
wSa:__ZN8Material28UpdateHashesOnPropertyChangeEN9ShaderLab16FastPropertyNameE
N7h:__ZNK21MethodCall_t86107814024get_ExternalProperties_9Ev
Gkj:__ZNK26HttpWebRequest_t166943651514get_timeout_25Ev
ZBi:_Locale_GetText_m3520169047
SYc:__Z53Register_UnityEngine_SortingLayer_GetLayerValueFromIDv
qEi:_ASN1_GetBytes_m1968380955
$Gb:__Z18Transfer_BlittableI14SafeBinaryReadLb1E8Vector4fEvRK29SerializationCommandArgumentsR31RuntimeSerializationCommandInfo
m0:__ZN11AudioSource12AddToManagerEv
sOi:__ZNK26RecordProtocol_t375904970117get_innerStream_1Ev
rLo:__ZN6il2cpp6icalls8mscorlib6SystemL20GetMethodsByNameImplINS_5utils10functional6FilterINSt3__212basic_stringIcNS7_11char_traitsIcEENS7_9allocatorIcEEEENS4_13VmStringUtils21CaseSensitiveComparerEEEEEP11Il2CppArrayPK10Il2CppTypejRKT_
pcm:__Z64Enumerator_System_Collections_IEnumerator_get_Current_m472556657P22Enumerator_t3649184329PK10MethodInfo
Fcp:__ZN6il2cpp2vm5Image13ClassFromNameEPK11Il2CppImagePKcS6_
SJp:dynCall_vdddddd
pxc:__ZN24GenerateTypeTreeTransfer21TransferSTLStyleArrayINSt3__26vectorIN9ShaderLab14SerializedPassENS1_9allocatorIS4_EEEEEEvRT_17TransferMetaFlags
HFj:__Z25Il2CppCodeGenWriteBarrierI34AttributeUsageAttribute_t290877318EvPPT_S2_
mja:__ZL32MarkLevelGameManagerDependenciesR27GarbageCollectorThreadState
zeo:__ZL25UnresolvedVirtualCall_108P12Il2CppObjectS0_S0_28StreamingContext_t3711869237PK10MethodInfo
f0b:__ZNK13GfxDeviceGLES26HasActiveRandomWriteTargetEv
Rym:_List_1_GrowIfNeeded_m204049769_gshared
Sjp:__ZN15dense_hashtableINSt3__24pairIK10KeyWrapperIPcES3_EES4_N6il2cpp5utils15PassThroughHashIS3_EEN14dense_hash_mapIS4_S3_SA_NS4_14EqualsComparerINS0_8equal_toIS3_EEEENS0_9allocatorIS6_EEE9SelectKeyESF_SH_E9copy_fromERKSK_j
hBo:__ZN15dense_hashtableI10KeyWrapperIPK17Il2CppGenericInstES4_N6il2cpp8metadata21Il2CppGenericInstHashEN14dense_hash_setIS4_S7_NS4_14EqualsComparerINS6_24Il2CppGenericInstCompareEEENSt3__29allocatorIS4_EEE8IdentityESB_SE_E4swapERSH_
VHi:__ZNK22RSAManaged_t17570938207get_q_8Ev
nJe:__ZL54_MemberInfo_t3922476713_CustomAttributesCacheGeneratorP21CustomAttributesCache
rQl:__ZN24Dictionary_2_t196881949518set_touchedSlots_8Ei
RSp:_glGetActiveUniformsiv__wrapper
GNn:_ButtonTutorial_descriptionViewNone_m2951206272
Bwl:__Z54RuntimeInvoker_Int32_t2950945753_LabelFixup_t858502054PFvvEPK10MethodInfoPvPS4_
lGh:_Mesh_GetIndices_m2873123901
Cid:__ZN17Physics2DSettings21SetAutoSyncTransformsEbb
IJo:__ZNSt3__214__split_bufferIP12Il2CppThreadRNS_9allocatorIS2_EEED2Ev
sZi:__ZNK17Stack_t232966228014get_capacity_3Ev
vM:__Z20AnimationEventToMonoRK14AnimationEventR18MonoAnimationEvent
iPb:__Z18Transfer_BlittableI19StreamedBinaryWriteLb0EdEvRK29SerializationCommandArgumentsR31RuntimeSerializationCommandInfo
Yro:_RaycastHit2D_get_collider_m1549426026_AdjustorThunk
wtl:__Z106RuntimeInvoker_Void_t1185182177_Single_t1397266774_Single_t1397266774_Single_t1397266774_Int32_t2950945753PFvvEPK10MethodInfoPvPS4_
ore:_FloatTween_set_targetValue_m3604919944_AdjustorThunk
eqo:__ZN6il2cpp6icalls8mscorlib6System7Decimal14decimalCompareEP19il2cpp_decimal_reprS5_
H3g:__ZNK22InputField_t376291743118get_m_OnEndEdit_30Ev
P$m:__ZN21TlsStream_t236545396510set_temp_4EP22ByteU5BU5D_t4116647657
sce:__ZN38ExecuteEvents_t3484638744_StaticFields27set_U3CU3Ef__mgU24cache5_24EP27EventFunction_1_t3587542510
bge:_PointerEventData_get_dragging_m746831934
$jp:__ZNK30dense_hashtable_const_iteratorINSt3__24pairIK10KeyWrapperIPcES3_EES4_N6il2cpp5utils15PassThroughHashIS3_EEN14dense_hash_mapIS4_S3_SA_NS4_14EqualsComparerINS0_8equal_toIS3_EEEENS0_9allocatorIS6_EEE9SelectKeyESF_SH_EdeEv
r0k:_Type_get_TypeHandle_m160082026
DUm:_ReadOnlyCollection_1_System_Collections_IEnumerable_GetEnumerator_m2781605075_gshared
pta:__ZZN15DirectorManager15InitializeClassEvEN52PreLateUpdateDirectorUpdateAnimationBeginRegistrator7ForwardEv
Rck:_Array_get_swapper_TisCustomAttributeNamedArgument_t287865710_m4254011335_gshared
WAe:_Graphic_RegisterDirtyMaterialCallback_m106898453
Cfn:_GUILayoutEntry_get_margin_m3174861737
sKa:__ZN4PPtrI6SpriteE8TransferI14SafeBinaryReadEEvRT_
ZYl:_EqualityComparer_1_System_Collections_IEqualityComparer_Equals_m1672604045_gshared
aOn:__ZNK16Cell_t220640442117get_deathSound_12Ev
dyh:__ZNK25ArgumentCache_t218795839938get_m_ObjectArgumentAssemblyTypeName_1Ev
L4o:__ZNK24dense_hashtable_iteratorINSt3__24pairIK10KeyWrapperIP11Il2CppClassES4_EES5_N6il2cpp8metadata16SZArrayClassHashEN14dense_hash_mapIS5_S4_SA_NS5_14EqualsComparerINS9_19SZArrayClassCompareEEENS0_9allocatorIS7_EEE9SelectKeyESE_SG_EdeEv
z1n:__Z27List_1_get_Count_m361000296P17List_1_t128053199PK10MethodInfo
Zhj:__ZNK25FileWebRequest_t59185888521get_connectionGroup_8Ev
Fwc:__ZNSt3__26vectorIN9ShaderLab14SerializedPassENS_9allocatorIS2_EEE8__appendEj
TBl:__Z37RuntimeInvoker_Enumerator_t3436819725PFvvEPK10MethodInfoPvPS4_
SKh:_PlayableOutputHandle_op_Equality_m388301694
Uzk:_Encoding_get_ISOLatin1_m2107621369
zid:__ZNK16PhysicsManager2D21GetAutoSyncTransformsEv
rlp:___cxx_global_var_init_43597
yDi:_BigInteger_op_Inequality_m2697143438
$eg:__ZN24DESTransform_t408890549918set_keySchedule_16EP22ByteU5BU5D_t4116647657
x5e:__ZL89Mathf_t3464937446_CustomAttributesCacheGenerator_Mathf_SmoothDamp_m394423605____maxSpeed4P21CustomAttributesCache
ihd:__ZN12b2WheelJoint24SolveVelocityConstraintsERK12b2SolverData
u_n:__ZNK45StandardEventPayload_t1629891255_StaticFields17get_m_EventData_4Ev
Uqo:__ZNK27ContactFilter2D_t380520344121get_maxNormalAngle_10Ev
MFf:_ModuleBuilderTokenGenerator_GetToken_m1396347424
kHe:__ZL72IntPtr_t_CustomAttributesCacheGenerator_IntPtr_op_Inequality_m3063970704P21CustomAttributesCache
sVb:__ZNK25PathNamePersistentManager30PathIDToFileIdentifierInternalEi
TUc:__Z33Camera_CUSTOM_RaycastTry_InjectedP12Il2CppObjectRK3Rayfi
Drd:__ZN10Collider2D8TransferI24GenerateTypeTreeTransferEEvRT_
iv:__ZN7mecanim8skeleton18CreateSkeletonPoseIN4math7affineXEEEPNS0_13SkeletonPoseTIT_EEPKNS0_8SkeletonER20RuntimeBaseAllocator
XMk:_BitConverterLE_GetBytes_m2590852453
t_b:__ZN13GfxDeviceGLES12SetWireframeEb
dzi:_BitArrayEnumerator__ctor_m2359341397
Fdm:_Enumerator_MoveNext_m1177880931_gshared
Zbg:__ZNK29RuntimeTypeHandle_t302751541511get_value_0Ev
aMg:_DefaultComparer__ctor_m3288720761_gshared
jwl:__Z102RuntimeInvoker_Int32_t2950945753_RuntimeObject_Vector2_t2156229523_Int32_t2950945753_Int32_t2950945753PFvvEPK10MethodInfoPvPS4_
azo:__ZN30dense_hashtable_const_iteratorINSt3__24pairIK10KeyWrapperIPKcEP11Il2CppClassEES5_N6il2cpp5utils11StringUtils12StringHasherIS4_EEN14dense_hash_mapIS5_S8_SE_NS5_14EqualsComparerINSB_13VmStringUtils21CaseSensitiveComparerEEENS0_9allocatorIS9_EEE9SelectKeyESJ_SL_E30advance_past_empty_and_deletedEv
eff:__ZL73g_UnityEngine_TextRenderingModule_Assembly_CustomAttributesCacheGeneratorP21CustomAttributesCache
VWj:__ZN27NumberFormatInfo_t43587713829set_numberDecimalSeparator_17EP8String_t
ima:__ZN16ScriptingManager27NativeTypeForScriptingClassE17ScriptingClassPtr
Q3k:_UInt64_System_IConvertible_ToDateTime_m3434604642
l0k:_Type_get_IsSerializable_m1040556850
crj:_X509ChainElementEnumerator_MoveNext_m3940594045
qGd:_get_sfnt_table
IFl:_Array_Resize_TisUIVertex_t4057497605_m1219201596_gshared
zDn:_CachedInvokableCall_1_Invoke_m812947504_gshared
vMe:__ZL55StreamWriter_t1266378904_CustomAttributesCacheGeneratorP21CustomAttributesCache
Qxp:__ZN6il2cpp5utilsL9ReadFloatEPKc
_Go:__ZL19GetEncodedIndexTypej_41831
geb:__ZN8Renderer20RendererAddedToSceneEv
aPa:__ZN6Camera23VirtualRedirectTransferER18StreamedBinaryRead
g2o:___cxx_global_var_init_42533
xlc:__ZL22ScheduleSceneNodesJobsP25ScheduleSceneNodesJobDataj
qi:_emscripten_set_canvas_size
Uye:_Graphic_SetVerticesDirty_m2124914069
WUj:_CultureInfo__ctor_m3285927757
heh:_MaskableGraphic_get_rootCanvasRect_m3492154629
c2m:__ZNK23DeriveBytes_t149291513611get__salt_6Ev
s9c:__ZN9JSONWrite8TransferI13dynamic_arrayI11QuaternionfLj0EEEEvRT_PKc17TransferMetaFlags
Fcf:__ZL120SupportedRenderingFeatures_t353898663_CustomAttributesCacheGenerator_U3CrendererSupportsReceiveShadowsU3Ek__BackingFieldP21CustomAttributesCache
DFl:_Array_Resize_TisRaycastResult_t3360306849_m1811054291_gshared
wEc:__ZN12MeshRenderer27PrepareSingleRendererUpdateER13RendererSceneRS_10MemLabelId
a5i:__ZN30CultureAwareComparer_t3064613917set__ignoreCase_4Eb
Dxg:__Z39InternalEnumerator_1_Dispose_m130608859P32InternalEnumerator_1_t3232839231PK10MethodInfo
mwc:__ZNSt3__26vectorIN9ShaderLab20SerializedSubProgramENS_9allocatorIS2_EEE8__appendEj
iea:__ZN20DynamicHeapAllocatorI17LowLevelAllocatorE8AllocateEji
BZd:__ZN11UnityEngine9Analytics15UserCustomEvent12ToJsonStringER9JSONWrite
Wng:__ZN31InternalEnumerator_1_t2465572919set_idx_1Ei
pVg:_Enumerator_VerifyCurrent_m220886300_AdjustorThunk
Edc:__ZN20DynamicPropertySheet15SetVectorQueuedERKN9ShaderLab16FastPropertyNameERK8Vector4fN19ShaderPropertySheet8SetFlagsE
_tm:_List_1_get_Item_m2254585396_gshared
Jmo:_AnimatorControllerPlayable_SetHandle_m2260644454
Fdh:__Z69Component_GetComponentsInParent_TisRectMask2D_t3474889437_m3154118616P21Component_t1923634451bP17List_1_t651996883PK10MethodInfo
KK:__ZN7mecanim9animation22EvaluateAvatarRetargetEPKNS0_14AvatarConstantEPKNS0_11AvatarInputEPNS0_12AvatarOutputEPNS0_12AvatarMemoryEPNS0_15AvatarWorkspaceEb
KEg:_InternalEnumerator_1_System_Collections_IEnumerator_Reset_m996811230_AdjustorThunk
rxl:__Z56RuntimeInvoker_Void_t1185182177_KeyValuePair_2_t71524366PFvvEPK10MethodInfoPvPS4_
fif:__ZL59GUISkin_t1244372282_CustomAttributesCacheGenerator_m_windowP21CustomAttributesCache
S7c:__ZL26Transfer_SimpleNativeClassI9JSONWrite10RectOffsetLb0EEvRK29SerializationCommandArgumentsR31RuntimeSerializationCommandInfo
mup:_GC_push_conditional
aF:__ZN7mecanim9animation4Clip8TransferI8BlobSizeEEvRT_
Wfb:__ZN17GenericDynamicVBO10AllocateVBEjR21DynamicVBOChunkHandle
HNm:_Collection_1_RemoveItem_m4010262980_gshared
Dkf:__ZL63RaycastHit2D_t2279581989_CustomAttributesCacheGenerator_m_PointP21CustomAttributesCache
_5i:_DBNull_ToString_m3638608738
Eep:__ZN30dense_hashtable_const_iteratorI10KeyWrapperIP18Il2CppGenericClassES3_N6il2cpp8metadata22Il2CppGenericClassHashEN14dense_hash_setIS3_S6_NS3_14EqualsComparerINS5_25Il2CppGenericClassCompareEEENSt3__29allocatorIS3_EEE8IdentityESA_SD_EppEv
azi:_BitArray_Clone_m3537018332
DOb:__Z35Transfer_Blittable_FixedBufferFieldI19StreamedBinaryWritexEvRK29SerializationCommandArgumentsR31RuntimeSerializationCommandInfo
Y2f:_ObjectRecord_UnchainFixup_m3191243952
ipk:__ZNK25SHA512Managed_t178733633916get_byteCount1_6Ev
Ute:__ZN20Dropdown_t227439122523set_m_OnValueChanged_25EP25DropdownEvent_t4040729994
F$m:_TlsStream_get_CanWrite_m16389328
vQd:__Z15GetUIModuleSpecv
T5b:__Z22TextureIdMapGLES_Alias9TextureIDS_
YHc:__Z31Input_CUSTOM_GetMouseButtonDowni
kmh:_Scrollbar_get_stepSize_m1389308760
bbm:__Z58Enumerator_System_Collections_IEnumerator_Reset_m502339360P22Enumerator_t2017297076PK10MethodInfo
CPb:__Z29Transfer_Blittable_ArrayFieldI19StreamedBinaryWritejEvRT_R9ArrayInfoRK23StaticTransferFieldInfo
vsb:__ZNK9Transform16GetLocalPositionEv
sho:__ZL25UnresolvedVirtualCall_263P12Il2CppObjectPK10MethodInfo
KCk:_EncoderExceptionFallbackBuffer_get_Remaining_m1573636148
ZHj:_MonoType_get_BaseType_m1098640416
Unb:__ZN13LoadOperation19IntegrateTimeSlicedEi
a0m:_TlsStream_Read_m3392972801
S6a:__ZN18AsyncUploadManager16QueueUploadAssetEPKcjjjRK18AsyncUploadHandler
O0l:__ZNK43EqualityComparer_1_t3827726111_StaticFields14get__default_0Ev
HTh:_TouchScreenKeyboard_get_status_m3936201565
gAk:__ZNK33Encoding_t1523322056_StaticFields30get_utf8EncodingWithMarkers_20Ev
AEn:_InvokableCall_1_Find_m1741895083_gshared
p0b:__ZN13GfxDeviceGLES22DispatchComputeProgramE12ObjectHandleI18ComputeProgram_TagPvE15ComputeBufferIDj
roo:__Z33KeyValuePair_2_get_Key_m256823211P25KeyValuePair_2_t968067334PK10MethodInfo
oPh:_Transform_get_localToWorldMatrix_m4155710351
D7b:__ZN20DefaultGfxDeviceImpl32InitStereoGlobalsBuffersPlatformEiijPKv
IWe:__ZL77Convert_t2465617642_CustomAttributesCacheGenerator_Convert_ToChar_m1604365259P21CustomAttributesCache
CSk:_Latin1Encoding_GetString_m254210343
Bpb:__Z17TransformAABBSlowRK4AABBRK10Matrix4x4fRS_
Yfk:_SetPropertyUtility_SetStruct_TisChar_t3634460470_m4284602558_gshared
Sqi:_Array_combsort_m4052486289
b$:__ZN24AudioScriptBufferManager27InitialCompleteDomainReloadEv
eKg:__ZNK32InternalEnumerator_1_t226158272911get_array_0Ev
Quc:__ZN9ShaderLab21SerializedShaderState8TransferI14SafeBinaryReadEEvRT_
qRj:_Environment_GetWindowsFolderPath_m1738399646
XAm:_Queue_1_System_Collections_Generic_IEnumerableU3CTU3E_GetEnumerator_m2263220760_gshared
$vm:_List_1_Sort_m378918663_gshared
etn:_CapturingGroup_IsComplex_m4061114763
Vzi:__ZNK43CaseInsensitiveHashCodeProvider_t196262911912get_m_text_2Ev
LCd:_cf2_stack_pushInt
$Ad:__ZNSt3__26__treeINS_12__value_typeIN20TextRenderingPrivate7FontRefEP11FT_FaceRec_EENS_19__map_value_compareIS3_S6_NS_4lessIS3_EELb1EEENS_9allocatorIS6_EEE7destroyEPNS_11__tree_nodeIS6_PvEE
CK:__ZN8Animator19FireAnimationEventsERNS_11AnimatorJobE
PPk:__ZN30PKCS1_t1505584676_StaticFields15set_emptySHA1_0EP22ByteU5BU5D_t4116647657
eEn:_InvokableCall_1_Invoke_m891112188_gshared
mee:__ZN25RaycastResult_t336030684918set_m_GameObject_0EP22GameObject_t1113636619
Ydg:_CryptoConfig_EncodeOID_m2635914623
U1a:__ZN15SerializeTraitsINSt3__24pairIN4core12basic_stringIcNS2_20StringStorageDefaultIcEEEES6_EEE8TransferI24GenerateTypeTreeTransferEEvRS7_RT_
UOp:b89
TOp:b88
DOp:b81
Cqo:__ZL6add192yyyyyyPyS_S_
F5b:__ZN7ApiGLES19CreateSparseTextureEjj14GraphicsFormatiiiiRiS1_S1_
Yma:__ZN18ResourceImageGroup7CleanupEv
k8o:__ZN6il2cpp6icalls8mscorlib6SystemL12AssignSignedIxEEvNS2_17WidenedValueUnionEPv14Il2CppTypeEnumjj
KOp:b84
SOp:b87
QAk:_String_CharCopy_m3838781968
Lq:__ZN11Quaternionf8TransferI24GenerateTypeTreeTransferEEvRT_
dci:_RemotingSurrogateSelector_GetSurrogate_m3900875713
Lkl:__Z69RuntimeInvoker_Boolean_t97287965_UInt16_t2177724958_Int16_t2552820387PFvvEPK10MethodInfoPvPS4_
GFk:__ZNK45MSCompatUnicodeTable_t1453885583_StaticFields15get_cjkJAlv1_12Ev
QRm:_ReadOnlyCollection_1_System_Collections_IList_get_IsReadOnly_m3626439112_gshared
kji:__ZN26X509Certificate_t48924302416set_signature_11EP22ByteU5BU5D_t4116647657
gZa:__ZN8Playable19SetOutputConnectionEPS_i
jAc:__Z61RenderTexture_CUSTOM_INTERNAL_CALL_SetRenderTextureDescriptorP12Il2CppObjectRK17RenderTextureDesc
jMn:__ZNK35U3CRepeatU3Ec__Iterator1_t73464693618get_U24disposing_6Ev
gTa:__Z20RenderMultipleMeshesRK15RenderNodeQueueRK18RenderMultipleData16VertexInputMasks
Gj:_glDeleteShader
yBa:__ZL57__ManagedRegistrationHelperFunction_ShaderKeywordSetProxyPv
oCa:__ZN9Scripting11UnityEngine32UnitySynchronizationContextProxy9InitProxyEv
exa:__ZN6prcoreL17RemapGenericFloatI15TexFormatRGHalf16TexFormatRGFloatEEvPKNS_9InnerInfoE
zGl:_Array_Sort_TisUICharInfo_t75501106_m128665067_gshared
XEd:_otv_GSUB_validate
_6l:_RSAPKCS1SignatureDeformatter_SetHashAlgorithm_m1602190713
ydj:_Enum_System_IConvertible_ToByte_m1219166845
Sbn:__ZNK22TextEditor_t275985536635get_m_MouseDragSelectsWholeWords_15Ev
BIg:_InternalEnumerator_1_Dispose_m28687982_gshared
M0c:__ZN9Scripting11UnityEngine19GUILayoutEntryProxy12CleanupProxyEv
i4d:__ZL61__ManagedRegistrationHelperFunction_VideoAudioOutputModeProxyPv
mtm:_List_1_System_Collections_ICollection_get_IsSynchronized_m3630704857_gshared
aqg:_InternalEnumerator_1_System_Collections_IEnumerator_Reset_m4239728915_AdjustorThunk
Oj:_glDisable
xag:__ZN47SerializationCallbacks_t2570604627_StaticFields16set_cache_lock_5EP12Il2CppObject
_5j:__ZN28StreamAsyncResult_t78024851215set_completed_1Eb
Uzc:__Z27scripting_add_internal_callPKcPKv
Kdn:__ZN26GUILayoutGroup_t215778969528set_m_UserSpecifiedHeight_21Eb
YJm:__ZN21InterfaceFuncInvoker1Ib20UIVertex_t4057497605E6InvokeEjP11Il2CppClassP12Il2CppObjectS0_
D0g:__ZN22InputField_t376291743128set_m_CaretSelectPosition_41Ei
dTg:_Enumerator_Dispose_m1360775770_gshared
PSa:__Z17GetPlayerSettingsv
ywc:__ZNSt3__26vectorIN9ShaderLab20SerializedSubProgram16SamplerParameterENS_9allocatorIS3_EEE6assignIPS3_EENS_9enable_ifIXaasr21__is_forward_iteratorIT_EE5valuesr16is_constructibleIS3_NS_15iterator_traitsISA_E9referenceEEE5valueEvE4typeESA_SA_
fL:__ZN34BlobWriteTransferSTLStyleArrayImplI22OffsetPtrArrayTransferIiEEclERS1_17TransferMetaFlagsR9BlobWrite
YHf:__ZN31OpCodes_t126150456_StaticFields15set_Ldind_I4_73E17OpCode_t123070264
R3n:_UnityWebRequest_get_disposeCertificateHandlerOnDispose_m4051074453
dQf:_MonoField_get_FieldHandle_m3729647377
Aih:_ScrollRect_get_content_m2477524320
jzl:__Z93RuntimeInvoker_Void_t1185182177_ScoreU5BU5DU26_t446250379_Int32_t2950945753_Int32_t2950945753PFvvEPK10MethodInfoPvPS4_
VSg:_Enumerator_MoveNext_m1556953412_AdjustorThunk
gw:__ZN26AnimatorControllerPlayable18SetLayerAutoWeightEv
uUd:__Z44Register_UnityEngine_Canvas_get_pixelPerfectv
CRg:__Z71Enumerator_System_Collections_IDictionaryEnumerator_get_Key_m2502357460P22Enumerator_t3398877024PK10MethodInfo
Zsp:_GC_alloc_large
PRd:__ZN2UI14CanvasRenderer12SyncMaterialENS0_8SyncFlagE
uEg:__ZNK32InternalEnumerator_1_t249304194811get_array_0Ev
Kak:_StreamWriter_Write_m1660535366
Zxl:__Z66RuntimeInvoker_Void_t1185182177_Int32_t2950945753_Link_t3209266973PFvvEPK10MethodInfoPvPS4_
Bzp:__ZN6il2cpp2vm9Parameter30GetDefaultParameterValueObjectEPK10MethodInfoPK13ParameterInfoPb
Kqo:__ZNK27ContactFilter2D_t380520344117get_useTriggers_0Ev
LUk:_UTF8Encoding_GetByteCount_m4152118078
Rjj:_ServicePoint_set_UseNagleAlgorithm_m1374731041
fPk:_KeyPairPersistence__CanSecure_m3516574278
gb:invoke_iiiiiiiii
Goi:__ZNK21Hashtable_t185388976611get_table_4Ev
pdl:__Z95RuntimeInvoker_Void_t1185182177_RuntimeObject_RuntimeObject_Int32_t2950945753_SByte_t1669577662PFvvEPK10MethodInfoPvPS4_
lTn:__ZNK39U3CGetScoresU3Ec__Iterator3_t397722284013get_U24this_1Ev
ejg:_MD5CryptoServiceProvider_Dispose_m3502499818
nQo:__ZN15dense_hashtableINSt3__24pairIK10KeyWrapperINS1_IPK9FieldInfoP11Il2CppClassEEEjEES9_17ReflectionMapHashIS8_EN14dense_hash_mapIS9_jSD_NS9_14EqualsComparerINS0_8equal_toIS8_EEEENS0_9allocatorISB_EEE9SelectKeyESI_SK_E21fill_range_with_emptyEPSB_SO_
pZl:_EqualityComparer_1_get_Default_m2359341649_gshared
bFl:_Array_InternalArray__set_Item_TisRaycastHit2D_t2279581989_m3076882241_gshared
ynl:__Z87RuntimeInvoker_Void_t1185182177_RuntimeObject_StringU26_t181565287_StringU26_t181565287PFvvEPK10MethodInfoPvPS4_
AYf:__ZN20GCHandle_t335143818712set_handle_0Ei
iYa:__ZN12LightManager28IsLightTransformDataUpToDateEPK5Light
ipg:__Z38InternalEnumerator_1__ctor_m1424655733P31InternalEnumerator_1_t978588483P11Il2CppArrayPK10MethodInfo
PGg:__Z44InternalEnumerator_1_get_Current_m1655128652P32InternalEnumerator_1_t3186646106PK10MethodInfo
LI:__ZN7mecanim9animation9DenseClip8TransferI24GenerateTypeTreeTransferEEvRT_
iIe:__ZL74RuntimeArray_CustomAttributesCacheGenerator_Array_BinarySearch_m3171087170P21CustomAttributesCache
JHe:__ZL72Enum_t4135868527_CustomAttributesCacheGenerator_Enum_ToObject_m122225012P21CustomAttributesCache
cHd:_UNITY_tt_face_done_kern
fdh:__ZNK20MatEntry_t295710709214get_readMask_6Ev
zei:_ObjRef_GetObjectData_m270012899
Ilf:__ZL68g_UnityEngine_StandardEvents_Assembly_CustomAttributesCacheGeneratorP21CustomAttributesCache
xlg:_ArrayReadOnlyList_1_RemoveAt_m2104218585_gshared
Nrk:__Z25Il2CppCodeGenWriteBarrierI26X509Certificate_t489243024EvPPT_S2_
VFf:__Z37il2cpp_codegen_marshal_allocate_arrayIhEPT_j
fhk:_Array_InternalArray__IEnumerable_GetEnumerator_TisParameterModifier_t1461694466_m3675077728_gshared
Ood:__ZN35b2InitializeVelocityConstraintsTaskD2Ev
WRp:_glStencilFuncSeparate__wrapper
Cqf:__ZL60RawImage_t3182918964_CustomAttributesCacheGenerator_m_UVRectP21CustomAttributesCache
NLm:__ZN21InterfaceFuncInvoker1I19Vector3_t3722313464iE6InvokeEjP11Il2CppClassP12Il2CppObjecti
bWb:__Z19scripting_gc_enablev
_Fg:_InternalEnumerator_1_get_Current_m2907722321_gshared
x8b:__ZZ23InitPlayerLoopCallbacksvEN41InitializationPlayerUpdateTimeRegistrator7ForwardEv
HRc:__ZN11UTF16StringC2ERKS_10MemLabelId
P_k:_TimeSpan_Equals_m3956248018_AdjustorThunk
wrc:__Z29StdTemplateConversionFunctionIihEbPvR14SafeBinaryRead
bJg:_InternalEnumerator_1_get_Current_m3792939945_AdjustorThunk
ETd:__Z55Register_UnityEngine_CanvasRenderer_DisableRectClippingv
h$k:_TimeSpan_Subtract_m1264203589_AdjustorThunk
Qld:__ZN19OverlapPointQuery2D14InitializeAABBER6b2AABB
m6m:__ZNK19X509Crl_t114876738816get_nextUpdate_3Ev
oOb:__Z18Transfer_BlittableI19StreamedBinaryWriteLb0EN4math12int2_storageEEvRK29SerializationCommandArgumentsR31RuntimeSerializationCommandInfo
sCf:_MethodBase__ctor_m1907868998
gqf:__ZL118U3CCaretBlinkU3Ec__Iterator0_t2589889038_CustomAttributesCacheGenerator_U3CCaretBlinkU3Ec__Iterator0_Reset_m1547565867P21CustomAttributesCache
cBb:__ZN9GfxDevice22UploadTextureCubeArrayE9TextureIDPKhjii14GraphicsFormati18TextureUploadFlags
djm:_Enumerator_MoveNext_m1619775188_gshared
Mtg:_InternalEnumerator_1_System_Collections_IEnumerator_get_Current_m888718134_gshared
Gbl:__Z175RuntimeInvoker_Void_t1185182177_SByte_t1669577662_SByte_t1669577662_SByte_t1669577662_SByte_t1669577662_SByte_t1669577662_SByte_t1669577662_SByte_t1669577662_SByte_t1669577662PFvvEPK10MethodInfoPvPS4_
jkk:_Array_compare_TisRaycastResult_t3360306849_m822404090_gshared
mJh:_Object_Destroy_m3118546832
ZNm:_ReadOnlyCollection_1_System_Collections_Generic_IListU3CTU3E_set_Item_m519295790_gshared
Tyk:_String_IsNullOrEmpty_m2969720369
HNn:_Cell__ctor_m1371810838
k7i:_DateTime_FromTicks_m4059645178_AdjustorThunk
tUj:__ZNK20Calendar_t166112156916get_M_EraNames_3Ev
w5i:__ZN46CurrentSystemTimeZone_t3998352255_StaticFields20set_this_year_dlt_10EP24DaylightTime_t2582425773
k0h:_ConfigHandler_ParseTime_m1787834288
bK:__ZN15PackedIntVector8TransferI19StreamedBinaryWriteEEvRT_
O4d:__ZN9Scripting11UnityEngine5Video25VideoAudioOutputModeProxy12CleanupProxyEv
aLj:_Assembly_Load_m3487507613
XV:__ZNSt3__27__sort4IRNS_6__lessIN4core12basic_stringIcNS2_20StringStorageDefaultIcEEEES6_EEPS6_EEjT0_SA_SA_SA_T_
IKp:dynCall_viiiifii
EYo:__ZN6il2cpp2gc19AppendOnlyGCHashMapINSt3__24pairIPK11Il2CppImageP11Il2CppClassEEP22Il2CppReflectionModule17ReflectionMapHashIS9_ENS2_8equal_toIS9_EEEC2Ev
Yxf:__ZNK24FieldBuilder_t262704999311get_attrs_0Ev
rka:__Z20GetPersistentManagerv
nKd:_UNITY_TT_Set_Var_Design
SEo:__ZNK24dense_hashtable_iteratorINSt3__24pairIK10KeyWrapperIPK19Il2CppGenericMethodEPK26Il2CppGenericMethodIndicesEES6_N6il2cpp8metadata23Il2CppGenericMethodHashEN14dense_hash_mapIS6_SA_SE_NS6_14EqualsComparerINSD_26Il2CppGenericMethodCompareEEENS0_9allocatorISB_EEE9SelectKeyESI_SK_EdeEv
Hfa:__ZN21SystemInfoStringCache16StaticInitializeEPv
QWe:__ZL80Convert_t2465617642_CustomAttributesCacheGenerator_Convert_ToDecimal_m1695757674P21CustomAttributesCache
Lgj:_NameObjectCollectionBase_FindFirstMatchedItem_m840305173
AOm:_ReadOnlyCollection_1_System_Collections_Generic_ICollectionU3CTU3E_Remove_m1100818788_gshared
Agp:__ZNK10KeyWrapperIP12Il2CppObjectE14EqualsComparerINSt3__28equal_toIS1_EEEclERKS2_S9_
Rvc:__ZNSt3__26vectorIN9ShaderLab20SerializedSubProgram15StructParameterENS_9allocatorIS3_EEE6assignIPS3_EENS_9enable_ifIXaasr21__is_forward_iteratorIT_EE5valuesr16is_constructibleIS3_NS_15iterator_traitsISA_E9referenceEEE5valueEvE4typeESA_SA_
Q4h:__ZN23GenericVirtFuncInvoker0I19TimeSpan_t881159249E6InvokeEPK10MethodInfoP12Il2CppObject
LTb:__ZNK13MonoBehaviour7GetNameEv
zak:__ZNK24StreamWriter_t126637890420get_preamble_done_10Ev
C3h:_SynchronizedClientContextSink_AsyncProcessMessage_m3574843998
Fbm:__Z58Enumerator_System_Collections_IEnumerator_Reset_m959124362P22Enumerator_t2146457487PK10MethodInfo
kY:__Z15_CheckFMODError11FMOD_RESULTPKciS1_
$7o:__ZN6il2cpp6icalls8mscorlib6SystemL16ThrowInvalidCastEPK11Il2CppClassS5_
$Bo:__ZNK15dense_hashtableI10KeyWrapperIPK19Il2CppGenericMethodES4_N6il2cpp8metadata23Il2CppGenericMethodHashEN14dense_hash_setIS4_S7_NS4_14EqualsComparerINS6_26Il2CppGenericMethodCompareEEENSt3__29allocatorIS4_EEE8IdentityESB_SE_E4sizeEv
B$l:_EqualityComparer_1_get_Default_m79107703_gshared
Nhg:_HMAC_KeySetup_m661741544
uYe:__ZL61MonoEnumInfo_t3694469084_CustomAttributesCacheGenerator_cacheP21CustomAttributesCache
Jdp:__ZN6il2cpp2vm5Field11SetValueRawEPK10Il2CppTypePvS5_b
qSk:_Latin1Encoding__ctor_m498920120
AMf:__ZNK27UnmanagedMarshal_t98401568715get_param_num_7Ev
yQn:__Z23List_1__ctor_m543375097P18List_1_t2651900714PK10MethodInfo
iBm:__ZNK19Stack_1_t392349561914get__version_2Ev
Wde:__ZNK34ReflectionMethodsCache_t210321106235get_getRayIntersectionAllNonAlloc_4Ev
K9j:_StreamReader_Peek_m2272511193
g6n:__ZN46AudioExtensionManager_t3220897493_StaticFields32set_m_SpatializerExtensionName_7E24PropertyName_t3749835189
WZj:_DateTimeFormatInfo_FillAllDateTimePatterns_m2683124783
YSd:__Z51Register_UnityEngine_CanvasGroup_get_blocksRaycastsv
Jrg:__Z69InternalEnumerator_1_System_Collections_IEnumerator_Reset_m1256724261P31InternalEnumerator_1_t587985571PK10MethodInfo
cBj:_NumberFormatter_get_IsFloatingSource_m3714711779
UFm:__ZN18VirtActionInvoker2Ii22OrderBlock_t1585977831E6InvokeEjP12Il2CppObjectiS0_
uEn:__ZNK27InvokableCall_1_t151443101214get_Delegate_0Ev
pIm:_Collection_1_System_Collections_IList_Add_m1403891193_gshared
h6f:__ZN29MetadataReference_t407787366014set_Metadata_0EP24TypeMetadata_t2187352167
Usg:_InternalEnumerator_1_System_Collections_IEnumerator_Reset_m169899350_AdjustorThunk
b1k:_Type_GetConstructor_m1195697116
Ui:_glBeginQuery
gsn:__ZN22AnchorInfo_t338701115110set_expr_0EP22Expression_t2722445759
Hch:__Z70Component_GetComponentsInChildren_TisComponent_t1923634451_m1156099783P21Component_t1923634451P18List_1_t3395709193PK10MethodInfo
kyn:_Comparison_1_Invoke_m568154215_gshared
skk:__ZN21InterfaceFuncInvoker2Ii19Vector2_t2156229523S0_E6InvokeEjP11Il2CppClassP12Il2CppObjectS0_S0_
FR:__ZN18AnimatorController19TransferRuntimeDataI24GenerateTypeTreeTransferEEvRT_
aIk:__ZNK25SortKeyBuffer_t294527527011get_l4wb_14Ev
Cud:__ZN10Effector2D25CheckEffectorColliderMaskEP10Collider2DS1_
tac:__ZN6Camera12RenderStereoENS_10RenderFlagE8CullFlagPNS_24PerformEyeRenderFunctionE
Mub:__ZN20LocalFileSystemPosix10ToAbsoluteEPKc
FRp:b111
Irn:__ZN30Regex_t3657309853_StaticFields11set_cache_0EP24FactoryCache_t2327118887
Kpb:__Z23CollectSceneGameObjectsR13dynamic_arrayIiLj0EE
Ipp:__ZN6il2cpp2vm13ComObjectBase16DisconnectObjectEj
i2l:_GenericComparer_1__ctor_m3652072706_gshared
LO:__ZN14AnimationState19SetupUnstoppedStateEv
JJa:__ZN9BehaviourD0Ev
bFp:_getcwd
tjd:__ZN16b2CapsuleContact6CreateEP9b2FixtureiS1_iP16b2BlockAllocator
sGo:__ZNSt3__26__treeINS_12__value_typeIP11Il2CppClassS3_EENS_19__map_value_compareIS3_S4_NS_4lessIS3_EELb1EEENS_9allocatorIS4_EEE13__lower_boundIS3_EENS_15__tree_iteratorIS4_PNS_11__tree_nodeIS4_PvEEiEERKT_SH_PNS_15__tree_end_nodeIPNS_16__tree_node_baseISF_EEEE
oLa:__ZN25ThreadsafeLinearAllocatorD2Ev
aBf:_ILGenerator_Emit_m3083135129
ARc:__ZL50GetAndClearChangedTransformsForMultilpleSystemsJobP45GetChangedTransformsForMultipleSystemsJobDatajPK23TransformAccessReadOnlyPKyj
Lob:__Z21SendMessageToEveryoneRK17MessageIdentifier11MessageData
Oqa:__ZN21BillboardBatchManager16StaticInitializeEPv
E0i:_DateTime_AbsoluteDays_m4235097773
_ha:__ZN12_GLOBAL__N_138ArchiveRedirectFileSystemStaticDestroyEPv
_Ie:__ZL126U3CGetEnumeratorU3Ec__Iterator0_t1202911786_CustomAttributesCacheGenerator_U3CGetEnumeratorU3Ec__Iterator0_Dispose_m2078994225P21CustomAttributesCache
P6k:__Z74RuntimeInvoker_RuntimeObject_RuntimeObject_RuntimeObject_SByte_t1669577662PFvvEPK10MethodInfoPvPS4_
iJe:__ZL69Type_t_CustomAttributesCacheGenerator_Type_GetConstructor_m1195697116P21CustomAttributesCache
Fte:_DefaultControls_CreateScrollView_m3842770629
fNp:_emscripten_glLoadIdentity__wrapper
rJg:_InternalEnumerator_1_Dispose_m2788308318_gshared
MRl:__ZN24Dictionary_2_t144469424911set_table_4EP22Int32U5BU5D_t385246372
uro:_Physics2D_Raycast_m1407159225
vfo:__ZL25UnresolvedVirtualCall_158P12Il2CppObjectPK10MethodInfo
LMe:__ZL94EnumBuilder_t2400448213_CustomAttributesCacheGenerator_EnumBuilder_GetConstructors_m3294436155P21CustomAttributesCache
kzl:__Z55RuntimeInvoker_TableRange_t3332867892_Int32_t2950945753PFvvEPK10MethodInfoPvPS4_
wAg:_InternalEnumerator_1_MoveNext_m1020308708_gshared
EQh:_Scene_GetNameInternal_m992487900
E5b:__Z23CreateSparseTextureGLES9TextureIDii14GraphicsFormati
DFd:_otv_Anchor_validate
djh:__ZNK22ScrollRect_t413785581413get_m_Rect_35Ev
fah:__ZN23LayoutGroup_t243613809037get_address_of_m_TotalPreferredSize_9Ev
J1:__ZN13dynamic_arrayI12SoundChannelLj0EE9push_backERKS0_
bvp:_GC_continue_reclaim
smd:__Z18AddCollisionReportP11Collision2DR13dynamic_arrayINS_15CollisionReportELj0EE
$Tj:_CCMath_mod_m3631663509
HCh:_Input_GetKeyDownString_m3760773871
f$k:_TimeSpan_Negate_m1889505500_AdjustorThunk
hSm:_ReadOnlyCollection_1_System_Collections_ICollection_CopyTo_m2715087453_gshared
KOk:__ZNK24CspParameters_t23985263918get_ProviderName_3Ev
Gp:__GLOBAL__sub_I_AIScriptingClasses_cpp
QZg:_Transform_1__ctor_m2810088858_gshared
qSn:__ZN46U3CAddScoreWithPipeU3Ec__Iterator0_t311897822118set_U3CwwwU3E__0_2EP15WWW_t3688466362
kyb:__ZN16MemoryFileSystemD0Ev
EYn:_AnalyticsEventTracker_Awake_m2780522130
yLi:__ZN23CipherSuite_t341474457517set_serverHMAC_20EP29KeyedHashAlgorithm_t112861511
xdd:__ZN5Unity9rapidjson12PrettyWriterI16TempBufferWriterNS0_4UTF8IcEES4_13JSONAllocatorE11WriteIndentEv
tgd:__ZNK12b2MotorJoint16GetReactionForceEf
uHo:__ZN6il2cpp2vm13MetadataCache37GetParameterDefaultValueDataFromIndexEi
RXn:__ZN24EventTrigger_t252745169519set_m_Repetitions_8Ei
$$o:_il2cpp_class_get_assemblyname
R5d:__ZN9Scripting11UnityEngine12Experimental2XR19ReferencePointProxy12CleanupProxyEv
Ahl:__Z50RuntimeInvoker_SByte_t1669577662_SByte_t1669577662PFvvEPK10MethodInfoPvPS4_
tAe:_Graphic_OnFillVBO_m1026749972
Yuo:__ZN6il2cpp2vm5Class15GetEnumBaseTypeEP11Il2CppClass
IOi:_Context_set_WriteSequenceNumber_m942577065
Jl:_glVertexAttrib4fv
Ytj:_X509CertificateEnumerator_Reset_m4026698923
Gqp:__ZNK6il2cpp5utils13VmStringUtils23CaseInsensitiveComparerclERKNSt3__212basic_stringIcNS3_11char_traitsIcEENS3_9allocatorIcEEEEPKc
$me:_CanvasScaler_SetScaleFactor_m3006968999
BBl:__Z78RuntimeInvoker_Boolean_t97287965_Navigation_t3049316579_Navigation_t3049316579PFvvEPK10MethodInfoPvPS4_
Nun:__ZNK27Uri_t100236324_StaticFields22get_UriSchemeMailto_23Ev
p8a:__ZNK9Texture2D16GetNpotTexelSizeEv
cJj:_NumberFormatter_Init_m3576155222
Ivb:__ZL33FileEntryInfoListToFolderContentsRKN4core12basic_stringIcNS_20StringStorageDefaultIcEEEERK19dynamic_block_arrayI13FileEntryInfoLj32EERNSt3__23setIS3_NSB_4lessIS3_EENSB_9allocatorIS3_EEEE
Obh:_LayoutUtility_GetLayoutProperty_m714717302
gfl:__Z71RuntimeInvoker_RuntimeObject_RuntimeObject_StreamingContext_t3711869237PFvvEPK10MethodInfoPvPS4_
j5k:__ZN23InterfaceActionInvoker1IP39UnhandledExceptionEventArgs_t2886101344E6InvokeEjP11Il2CppClassP12Il2CppObjectS1_
l9d:_EventSystem_set_sendNavigationEvents_m983981895
qFo:__ZL30GetImageForTypeDefinitionIndexi
LMi:__ZNK26SslCipherSuite_t198164574711get_pad1_21Ev
nGk:__ZN45MSCompatUnicodeTable_t1453885583_StaticFields20set_cjkCHScategory_6EPh
bAb:__ZN9GfxDevice22GetDefaultVertexBufferE26GfxDefaultVertexBufferTypej
xdk:_Array_InternalArray__ICollection_Contains_TisInt64_t3736567304_m2911357929_gshared
gpg:__ZN31InternalEnumerator_1_t9785884839set_idx_1Ei
gXb:__Z17BeginSplashScreenb
ygp:__ZN15dense_hashtableINSt3__24pairIK10KeyWrapperIP12Il2CppObjectEN6il2cpp2gc9CachedCCWEEES5_NS7_5utils11PointerHashIS3_EEN14dense_hash_mapIS5_S9_SD_NS5_14EqualsComparerINS0_8equal_toIS4_EEEENS0_9allocatorISA_EEE9SelectKeyESI_SK_E15set_deleted_keyERKSA_
gHm:_Collection_1_Remove_m3022471627_gshared
yFp:___fseeko_unlocked
q7a:__ZN4crnd12crn_unpacker22decode_alpha_endpointsEv
Ltk:__ZNK27SecurityElement_t10460760919get_tag_1Ev
EJj:_Object_ToString_m1740002499
oFp:_sscanf
Alp:__ZNK6il2cpp5utils13dynamic_arrayIPNS_2os6ThreadELj4EE8capacityEv
Nne:__Z30IndexedSet_1_Clear_m4167420338P24IndexedSet_1_t3571286806PK10MethodInfo
qib:__ZN14SafeBinaryRead21TransferSTLStyleArrayINSt3__26vectorI17BlendShapeChannelNS1_9allocatorIS3_EEEEEEvRT_17TransferMetaFlags
yec:__ZN29RenderNodeQueuePrepareContextD2Ev
HFl:_Array_Resize_TisUILineInfo_t4195266810_m3763058392_gshared
$cg:_SByte_ToString_m3584531119_AdjustorThunk
c0l:__Z25Il2CppCodeGenWriteBarrierI30EqualityComparer_1_t1219088915EvPPT_S2_
$3a:__ZN10SpriteBone8TransferI24GenerateTypeTreeTransferEEvRT_
kmd:__ZNK4PPtrI7Joint2DEcvPS0_Ev
Loo:_SessionStateChanged_BeginInvoke_m1132835327
QMl:__Z28Enumerator__ctor_m1558933899P22Enumerator_t2013587906P24Dictionary_2_t1444694249PK10MethodInfo
M2i:_Convert_ToInt32_m1876369743
MCi:_ModulusRing__ctor_m2420310199
W0i:_Convert_ToDateTime_m626620011
rdb:__ZN18StreamedBinaryRead21TransferSTLStyleArrayI13dynamic_arrayI26EnlightenSystemInformationLj0EEEEvRT_17TransferMetaFlags
NTg:_Enumerator_System_Collections_IDictionaryEnumerator_get_Key_m2500634048_AdjustorThunk
kUa:__ZN12SharedObjectI19ShaderPropertySheetLb1E27SharedObjectDeleteReleaseOpIS0_EE5ResetEv
I8m:__ZN22TextEditor_t275985536615set_controlID_1Ei
ML:__ZN7mecanim8skeleton16SkeletonPoseCopyIN4math4trsXENS2_7affineXEEEvPKNS0_13SkeletonPoseTIT_EEPNS5_IT0_EE
bio:__ZL25UnresolvedVirtualCall_300P12Il2CppObject17Scene_t2348375561S1_PK10MethodInfo
RJp:dynCall_vdd
elm:_List_1_Remove_m3037048099_gshared
e3b:__ZN18GfxFramebufferGLES18GetFramebufferNameERK20GfxRenderTargetSetup
Jup:_GC_print_block_list
j_o:__ZN6il2cpp2vm14TypeNameParser12ParseVersionERKNSt3__212basic_stringIcNS2_11char_traitsIcEENS2_9allocatorIcEEEERtSB_SB_SB_
Acp:__ZNK30dense_hashtable_const_iteratorINSt3__24pairIK10KeyWrapperINS1_IPKcS4_EEEiEES6_24NamespaceAndNamePairHashN14dense_hash_mapIS6_iS9_NS6_14EqualsComparerI26NamespaceAndNamePairEqualsEENS0_9allocatorIS8_EEE9SelectKeyESD_SF_EneERKSI_
j6g:_InputField_MoveDown_m1455948167
A3c:__Z30Event_Get_Custom_PropCharacterP12Il2CppObject
Bta:__ZN13PlayableGraph27SchedulePlayableDestructionERK9HPlayable
OEd:_cff_get_mm_var
ORp:_glGetFramebufferAttachmentParameteriv__wrapper
e$f:_ChannelServices_GetCurrentChannelInfo_m3041604116
wLf:__Z29il2cpp_codegen_marshal_stringP8String_t
JGg:_InternalEnumerator_1__ctor_m2635640285_AdjustorThunk
dIb:__Z22scripting_array_length17ScriptingArrayPtr
xtk:_Hash__ctor_m2891763106
bbk:_SynchronizedReader_Peek_m148942882
zal:__Z95RuntimeInvoker_Void_t1185182177_RuntimeObject_Int32_t2950945753_Int32_t2950945753_RuntimeObjectPFvvEPK10MethodInfoPvPS4_
zeh:__Z28HashSet_1_Remove_m1860968099P21HashSet_1_t4099546121P12Il2CppObjectPK10MethodInfo
dBn:_Predicate_1_Invoke_m2308795536_gshared
P3a:__ZN14SafeBinaryRead20TransferTypelessDataEjPvi
vGh:_MeshRenderer_DontStripMeshRenderer_m3387425681
Igb:__ZN14SpriteRenderer18UpdateCachedSpriteEb
Zbh:__ZN38LayoutUtility_t2745813735_StaticFields26set_U3CU3Ef__amU24cache6_6EP17Func_2_t235587086
dMp:b34
Bkp:__ZN15dense_hashtableINSt3__24pairIK10KeyWrapperIPcES3_EES4_N6il2cpp5utils15PassThroughHashIS3_EEN14dense_hash_mapIS4_S3_SA_NS4_14EqualsComparerINS0_8equal_toIS3_EEEENS0_9allocatorIS6_EEE9SelectKeyESF_SH_E3endEv
Z1o:__ZNK6il2cpp2gc9AllocatorIP12Il2CppThreadE8max_sizeEv
FLd:_Horizontal_Sweep_Init
_dd:__ZN9Scripting11UnityEngine19ParticleSystemProxy9InitProxyEv
ESa:__Z19GetActiveColorSpacev
gvk:__ZNK28SecurityException_t97554447322get_permissionState_11Ev
Oza:__ZL54__ManagedRegistrationHelperFunction_RenderTextureProxyPv
xPf:_MonoMethodInfo_GetDeclaringType_m2924452727
Xbi:_RemotingSurrogate_SetObjectData_m2713731796
RIp:dynCall_fii
Fga:__Z6StrCmpPKcS0_
jBj:_NumberFormatter_AppendIntegerString_m2257376141
axo:_WWW_WaitUntilDoneIfPossible_m2855479680
Lzc:__Z21CheckGpuProgramUsable20ShaderGpuProgramType
bDc:__ZN13ProduceHelperI14Texture2DArrayLb0EE7ProduceE10MemLabelId18ObjectCreationMode
Mql:__Z69RuntimeInvoker_Void_t1185182177_Vector2_t2156229523_SByte_t1669577662PFvvEPK10MethodInfoPvPS4_
Xmp:__ZN6il2cpp2os9Directory20GetFileSystemEntriesERKNSt3__212basic_stringIcNS2_11char_traitsIcEENS2_9allocatorIcEEEESA_iiPi
Fpi:_Array_System_Collections_IList_Add_m1063688101
rwn:__ZNK27Uri_t100236324_StaticFields14get_schemes_28Ev
Jhi:__ZN18PKCS12_t410153306012set__certs_4EP37X509CertificateCollection_t1542168549
Fyd:__ZN20TextRenderingPrivate19NativeTextGenerator5SetupEv
FKo:__ZN6il2cpp6icalls8mscorlib6SystemL12GetFieldImplINS_5utils10functional6FilterINSt3__212basic_stringIcNS7_11char_traitsIcEENS7_9allocatorIcEEEENS4_13VmStringUtils23CaseInsensitiveComparerEEEEEP21Il2CppReflectionFieldP11Il2CppClassiRKT_
uic:__ZNK15SharedLightData24GetFinalShadowResolutionEv
won:_PatternCompiler_EmitAlternationEnd_m2444359097
Y3e:__ZL91GameObject_t1113636619_CustomAttributesCacheGenerator_GameObject_get_activeSelf_m1767405923P21CustomAttributesCache
pS:__ZN7mecanim12statemachine18TransitionConstant8TransferI18StreamedBinaryReadEEvRT_
rNm:_Collection_1_System_Collections_IList_get_IsReadOnly_m895165208_gshared
Z8g:_LayoutElement_get_minHeight_m4160507569
NJc:__ZN10GameObject14CopyPropertiesERS_
_4c:__Z44Register_UnityEngine_GUIStyle_get_fixedWidthv
yek:_Array_InternalArray__ICollection_Remove_TisLink_t544317964_m1280781374_gshared
Cmp:__ZNSt3__214__split_bufferIN6il2cpp2os10ThreadImpl10APCRequestERNS_9allocatorIS4_EEEC2EjjS7_
JRj:__ZN24StreamReader_t400993589913set_decoder_8EP19Decoder_t2204182725
gsi:_BitConverter_DoubleWordsAreSwapped_m1474345095
Uql:__Z114RuntimeInvoker_Int32_t2950945753_Vector2_t2156229523_Vector2_t2156229523_ContactFilter2D_t3805203441_RuntimeObjectPFvvEPK10MethodInfoPvPS4_
Kxi:_FixedSizeArrayListWrapper_set_Capacity_m4221053039
WFp:_rand
qSp:_emscripten_glFramebufferRenderbuffer__wrapper
POc:__ZN13MeshScripting10CreateMeshE21ScriptingObjectOfTypeI4MeshE
f2f:__ZNK27BinaryFormatter_t319775320218get_filter_level_5Ev
gMp:b37
nnl:__Z56RuntimeInvoker_Void_t1185182177_PropertyName_t3749835189PFvvEPK10MethodInfoPvPS4_
Ry:__ZN17AnimationPlayable22PrepareAnimationEventsEfR13dynamic_arrayI22AnimationClipEventInfoLj0EE
Rol:__Z51RuntimeInvoker_Void_t1185182177_Vector2_t2156229523PFvvEPK10MethodInfoPvPS4_
mbe:__ZN23InterfaceActionInvoker1IP25BaseEventData_t3903027533E6InvokeEjP11Il2CppClassP12Il2CppObjectS1_
$Ib:__ZN14SafeBinaryRead21TransferSTLStyleArrayINSt3__26vectorI17AnimationCurveTplIfE13stl_allocatorIS4_L18MemLabelIdentifier1ELi16EEEEEEvRT_17TransferMetaFlags
tyi:_SynchronizedArrayListWrapper_Contains_m3809499313
ZRi:_HandshakeMessage_Compare_m2214647946
Lek:_Array_InternalArray__ICollection_Remove_TisLabelData_t360167391_m3556246844_gshared
Sxo:__ZN15dense_hashtableINSt3__24pairIK10KeyWrapperIPK11Il2CppClassEPKcEES6_N6il2cpp5utils11PointerHashIS3_EEN14dense_hash_mapIS6_S9_SE_NS6_14EqualsComparerINS0_8equal_toIS5_EEEENS0_9allocatorISA_EEE9SelectKeyESJ_SL_E9set_valueEPSA_RKSA_
PDe:__ZNK17Image_t267026965119get_m_FillMethod_36Ev
ATo:__ZN15dense_hashtableINSt3__24pairIK10KeyWrapperINS1_IPK11Il2CppImageP11Il2CppClassEEEjEES9_17ReflectionMapHashIS8_EN14dense_hash_mapIS9_jSD_NS9_14EqualsComparerINS0_8equal_toIS8_EEEENS0_9allocatorISB_EEE9SelectKeyESI_SK_E12expand_arrayEjN21dense_hash_map_traits17integral_constantIbLb0EEE
xCb:__ZN9GfxDevice30ResolveComputeProgramResourcesE12ObjectHandleI18ComputeProgram_TagPvER19ComputeShaderKernelR13dynamic_arrayI15ComputeShaderCBLj0EERS6_I18ComputeShaderParamLj0EEb
fig:_HMACSHA256__ctor_m346174875
pvh:_Color_op_Multiply_m2887457390
Eon:__ZN23QuickSearch_t258809011012set_ignore_2Eb
Skc:__Z22PrepareOptimizedPlanesPK5PlaneiPKN4math7_float4E
itg:_InternalEnumerator_1__ctor_m1559487635_gshared
TGm:_Collection_1_System_Collections_IList_get_IsFixedSize_m1405161344_gshared
vNm:_Collection_1_Add_m994297629_gshared
$ba:__ZN11UnityEngine15CloudWebService17WebFileDownloaderINS0_20WebRequestRestClientENS0_23WebRequestRestHeaderMapEE10InitializeERKN4core12basic_stringIcNS5_20StringStorageDefaultIcEEEE
Mqa:__ZN17UniqueIDGenerator15CreatePureIndexEv
Och:__ZNK40StencilMaterial_t3850132571_StaticFields12get_m_List_0Ev
REh:__ZN21Matrix4x4_t181790184310set_m32_11Ef
v5c:__Z59Register_UnityEngine_GUIStyle_Internal_GetCursorFlashOffsetv
Tii:__ZN26X509Certificate_t48924302413set_decoder_0EP16ASN1_t2114160832
Hqg:__Z40InternalEnumerator_1_Dispose_m2342933386P32InternalEnumerator_1_t3437281436PK10MethodInfo
A5d:__ZL54__ManagedRegistrationHelperFunction_TrackingStateProxyPv
xXi:__ZNK17Queue_t363752339317get__growFactor_4Ev
uCc:__Z48InitializeRectTransformAnimationBindingInterfacev
jAm:__Z59Enumerator_System_Collections_IEnumerator_Reset_m2261065994P22Enumerator_t1862690208PK10MethodInfo
XR:__ZN15SerializeTraitsI9OffsetPtrIN7mecanim8skeleton12SkeletonMaskEEE8TransferI24GenerateTypeTreeTransferEEvRS4_RT_
B8k:__Z114RuntimeInvoker_Int32_t2950945753_RuntimeObject_Int32_t2950945753_RuntimeObject_Int32_t2950945753_Int32_t2950945753PFvvEPK10MethodInfoPvPS4_
Nto:__ZN15dense_hashtableINSt3__24pairIK10KeyWrapperIPK22Il2CppGenericParameterEP11Il2CppClassEES6_N6il2cpp5utils11PointerHashIS4_EEN14dense_hash_mapIS6_S9_SE_NS6_14EqualsComparerINS0_8equal_toIS5_EEEENS0_9allocatorISA_EEE9SelectKeyESJ_SL_E14squash_deletedEv
i0a:__ZN9ShaderLabL27GetDesiredRenderTextureDescEPK6Camera
xTe:__ZL131RSACryptoServiceProvider_t2683512874_CustomAttributesCacheGenerator_RSACryptoServiceProvider_t2683512874____PublicOnly_PropertyInfoP21CustomAttributesCache
Phd:__ZNK12b2MouseJoint17GetReactionTorqueEf
HDl:_Array_InternalArray__Insert_TisMark_t3471605523_m2854535880_gshared
kOc:__ZN4Mesh24UpdateSubMeshVertexRangeEi
E1c:__Z14GUIClipTextureP9Texture2DPhiiii
Ngf:__ZL52HumanBone_t2465339518_CustomAttributesCacheGeneratorP21CustomAttributesCache
OZa:__ZN13RenderTexture21FixInvalidDescOptionsER17RenderTextureDesc
WYg:__ZN26ShimEnumerator_t144141504621set_host_enumerator_0E22Enumerator_t3398877024
KGm:__ZN18VirtActionInvoker2Ii19Color32_t2600501292E6InvokeEjP12Il2CppObjectiS0_
Scf:__ZL81Scene_t2348375561_CustomAttributesCacheGenerator_Scene_GetNameInternal_m992487900P21CustomAttributesCache
bbi:_MethodReturnDictionary__cctor_m278392388
mdh:__ZN20MatEntry_t295710709221set_compareFunction_5Ei
vcc:__ZNK9Transform18TransformDirectionERK8Vector3f
iZm:_SslStreamBase_get_CanWrite_m1622082918
uwb:__ZNK17ArchiveFileSystem12GetAssetGUIDERK13FileEntryData
h4g:__Z65SetPropertyUtility_SetStruct_TisInputType_t1770400679_m3206488413P12Il2CppObjectPiiPK10MethodInfo
bsf:__ZL80CanvasScaler_t2767979955_CustomAttributesCacheGenerator_m_ReferencePixelsPerUnitP21CustomAttributesCache
oFd:_otv_MarkLigPos_validate
MLk:_PrimalityTests_RabinMillerTest_m1471415870
ucm:_Enumerator_MoveNext_m2114485647_gshared
Zyf:_GenericTypeParameterBuilder_GetCustomAttributes_m580748276
tuk:__ZN27WindowsIdentity_t294824240611set__type_1EP8String_t
wZn:_AnalyticsTracker_get_TP_m2800669040
ffn:__ZNK19GUISkin_t124437228213get_m_label_8Ev
d4f:__ZNK24ObjectReader_t194095739218get__filterLevel_3Ev
xjl:__Z75RuntimeInvoker_TimeSpan_t881159249_DateTime_t3738529785_TimeSpan_t881159249PFvvEPK10MethodInfoPvPS4_
Ell:__Z81RuntimeInvoker_Void_t1185182177_RuntimeObject_SByte_t1669577662_Int32_t2950945753PFvvEPK10MethodInfoPvPS4_
FXk:__ZN18VirtActionInvoker2IP12Il2CppObjectbE6InvokeEjS1_S1_b
Zge:__ZNK21MouseState_t38420393222get_m_TrackedButtons_0Ev
tOd:__GLOBAL__sub_I_External_Yoga_Yoga_0_cpp
WCi:_Kernel_LeftShift_m4140742987
KKj:_Assembly_GetManifestResourceInternal_m1224391897
pTa:__Z30AddDefaultStreamsToMeshBuffersR9GfxDeviceR11MeshBuffersj17ShaderChannelMaskS3_
vha:__ZL16GetInterfaceImpl18UnityInterfaceGUID
vI:__ZNSt3__26vectorIN13AnimationClip15QuaternionCurveE13stl_allocatorIS2_L18MemLabelIdentifier26ELi16EEE10deallocateEv
p8:__ZNSt3__27__sort4IR14SortByHashPredI13FileEntryInfoN11UnityEngine15CloudWebService14DataDispatcher6HasherEEPS2_EEjT0_SA_SA_SA_T_
qqp:__ZN6il2cpp6icalls8mscorlib6System15MonoCustomAttrs27GetCustomAttributesInternalEP12Il2CppObjectP20Il2CppReflectionTypeb
Vb:invoke_viifi
KKd:_UNITY_TT_Set_MM_Blend
PEf:__Z25Il2CppCodeGenWriteBarrierI21Hashtable_t1853889766EvPPT_S2_
$bm:__ZN22Enumerator_t36491843299set_ver_2Ei
Ejj:__Z25Il2CppCodeGenWriteBarrierI24ServicePoint_t2786966844EvPPT_S2_
vXm:_InternalAsyncResult_get_FromWrite_m4228047810
lel:__Z53RuntimeInvoker_MonoEventInfo_t346866618_RuntimeObjectPFvvEPK10MethodInfoPvPS4_
lKm:_Collection_1_CopyTo_m955200729_gshared
NXb:__ZN14PreloadManager35WaitForAllAsyncOperationsToCompleteEv
G7l:__ZN28RijndaelTransform_t6312222419set_Nr_15Ei
Jia:__ZNSt3__26__treeINS_12__value_typeIPKc11ShaderTagIDEENS_19__map_value_compareIS3_S5_27compare_tstring_insensitiveIS3_ELb1EEENS_9allocatorIS5_EEE7destroyEPNS_11__tree_nodeIS5_PvEE
f$l:_EqualityComparer_1__ctor_m1138336971_gshared
y3o:__ZNK15dense_hashtableINSt3__24pairIK10KeyWrapperIP11Il2CppClassES4_EES5_N6il2cpp8metadata16SZArrayClassHashEN14dense_hash_mapIS5_S4_SA_NS5_14EqualsComparerINS9_19SZArrayClassCompareEEENS0_9allocatorIS7_EEE9SelectKeyESE_SG_E12bucket_countEv
Cja:__ZNK18ScriptingObjectPtr17ToScriptingStringEv
rBk:__ZNK20Encoding_t152332205622get_encoder_fallback_4Ev
gY:__ZL31InitializeAudioScriptingClassesv
lhj:__ZN34TypeConverterAttribute_t327158442920set_converter_type_1EP8String_t
Qbc:__Z14SortGUIByDepthP10GUIElementS0_
u7g:__ZNK23SpriteState_t136298647921get_m_PressedSprite_1Ev
DSb:__Z19TransferField_ArrayI18StreamedBinaryRead16Converter_StringEvRK23StaticTransferFieldInfoR31RuntimeSerializationCommandInfoRT0_
rWn:__ZNK37AesTransform_t2957123611_StaticFields10get_iT1_23Ev
Djl:__Z69RuntimeInvoker_UInt32_t2560061978_Int32_t2950945753_SByte_t1669577662PFvvEPK10MethodInfoPvPS4_
p4c:__Z42GUIStyle_CUSTOM_set_contentOffset_InjectedP12Il2CppObjectRK8Vector2f
axn:_UriParser__cctor_m3655686731
__f:__ZN23ChannelData_t33536299728set_Id_2EP8String_t
Bbh:_LayoutRebuilder_U3Cs_RebuildersU3Em__0_m589488547
$Ip:dynCall_ii
_Al:__Z53RuntimeInvoker_KeyValuePair_2_t71524366_RuntimeObjectPFvvEPK10MethodInfoPvPS4_
hIk:__ZNK25SortKeyBuffer_t294527527013get_source_16Ev
mvb:__ZNK20LocalFileSystemPosix21GetAvailableDiskSpaceEPKcRy
SV:__ZNSt3__26__treeIiNS_4lessIiEENS_9allocatorIiEEE7destroyEPNS_11__tree_nodeIiPvEE
mHf:__ZN31OpCodes_t126150456_StaticFields13set_Ldc_R8_35E17OpCode_t123070264
Ozb:__ZNK9GfxDevice14GetWorldMatrixEv
lTa:__Z30ExtractMeshBuffersAndDrawRangeR11MeshBuffersR16DrawBuffersRangeRK9GfxDeviceRK17MeshRenderingData16VertexInputMasksib
Lim:__Z25Il2CppCodeGenWriteBarrierI18List_1_t2651900714EvPPT_S2_
apo:_RemoteConfigSettings_t1247263429_marshal_pinvoke
Aqc:__ZNSt3__227__insertion_sort_incompleteIRPFbPK35RegisterRuntimeInitializeAndCleanupS3_EPPS1_EEbT0_S9_T_
oUh:_Transform_set_parent_m786917804
i8n:_AudioSampleProvider_InternalSetScriptingPtr_m3742743270
pph:_Slider_get_value_m739683640
aCa:__Z19scripting_array_new17ScriptingClassPtrjj
U2i:_Convert_ToInt32_m2128774575
C1:__ZN11SoundHandle13CreateChannelEb
hni:__ZNK25SmallXmlParser_t97378783918get_resetColumn_11Ev
Osb:__Z30CreateBoxedObjectFromPrimitivei
sXk:_WaitCallback_BeginInvoke_m3012509827
cbk:__ZNK30SynchronizedReader_t116311577512get_reader_1Ev
uwc:__ZNSt3__26vectorIN9ShaderLab20SerializedSubProgram16TextureParameterENS_9allocatorIS3_EEE6assignIPS3_EENS_9enable_ifIXaasr21__is_forward_iteratorIT_EE5valuesr16is_constructibleIS3_NS_15iterator_traitsISA_E9referenceEEE5valueEvE4typeESA_SA_
gra:__Z30CreateBoxedObjectFromPrimitiveb
tOc:__ZNSt3__26vectorIj13stl_allocatorIjL18MemLabelIdentifier1ELi16EEE6assignIPKjEENS_9enable_ifIXaasr21__is_forward_iteratorIT_EE5valuesr16is_constructibleIjNS_15iterator_traitsIS9_E9referenceEEE5valueEvE4typeES9_S9_
mkf:__ZL104Physics2D_t1528932956_CustomAttributesCacheGenerator_Physics2D_GetRayIntersectionAll_Internal_m643548862P21CustomAttributesCache
$al:__Z122RuntimeInvoker_Void_t1185182177_RuntimeObject_RuntimeObject_ContractionU5BU5DU26_t2277527001_Level2MapU5BU5DU26_t359320357PFvvEPK10MethodInfoPvPS4_
GXo:__ZN15dense_hashtableINSt3__24pairIK10KeyWrapperIPK22Il2CppGenericParameterEPK24MonoGenericParameterInfoEES6_N6il2cpp5utils11PointerHashIS4_EEN14dense_hash_mapIS6_SA_SF_NS6_14EqualsComparerINS0_8equal_toIS5_EEEENS0_9allocatorISB_EEE9SelectKeyESK_SM_E15set_deleted_keyERKSB_
Zcg:_SByte_TryParse_m2431806379
nYk:_Thread_set_IsBackground_m3868016371
Izo:__ZNK15dense_hashtableINSt3__24pairIK10KeyWrapperIP9FieldInfoEiEES5_N6il2cpp5utils11PointerHashIS3_EEN14dense_hash_mapIS5_iSB_NS5_14EqualsComparerINS0_8equal_toIS4_EEEENS0_9allocatorIS7_EEE9SelectKeyESG_SI_E8min_sizeEjj
cZe:__ZL64ObjectDisposedException_t21392786_CustomAttributesCacheGeneratorP21CustomAttributesCache
PYa:__ZN6prcoreL11inner_clearILj2EEEvPhjjj
eon:_PatternCompiler_EmitSub_m193323684
Dgg:_DSACryptoServiceProvider_get_KeySize_m786836990
jhd:__ZN12b2WheelJoint24SolvePositionConstraintsERK12b2SolverData
Zyp:___cxx_global_var_init_1_44623
We:_emscripten_exit_fullscreen
SGl:_Array_qsort_TisBoolean_t97287965_TisBoolean_t97287965_m214793583_gshared
qam:_Enumerator_System_Collections_IEnumerator_Reset_m1564381721_gshared
ACc:__ZZL31RegisterRectTransformPropertiesR22GenericPropertyBindingEN39Wrapper_RectTransformAnchoredPositiony113GetFloatValueEPv
sJj:_Object_MemberwiseClone_m1474068832
XLh:__ZN22Quaternion_t23019283317set_w_3Ef
klp:__ZN6il2cpp6icalls8mscorlib6System6String19InternalAllocateStrEi
K2c:__ZN18MultiFrameGUIState18SetKeyboardControlEi
Vub:__ZN20LocalFileSystemPosix8SetFlagsER13FileEntryDatajj
ghe:__ZN22ButtonState_t85713993617set_m_EventData_1EP32MouseButtonEventData_t3190347560
hVc:__Z45Register_UnityEngine_Camera_get_targetDisplayv
IGc:__ZNK24RendererAnimationBinding15GenerateBindingERKN4core12basic_stringIcNS0_20StringStorageDefaultIcEEEEbRN11UnityEngine9Animation14GenericBindingE
klj:_IPv6Address__ctor_m3704187391
zbm:__Z34Enumerator_VerifyState_m2933667029P22Enumerator_t2146457487PK10MethodInfo
gYa:__Z15GetFlareManagerv
sKc:__ZN15ApplicationInfo24GetApplicationIdentifierEv
Pl:_llvm_ceil_f32
Qjj:__ZNK43ServicePointManager_t170559685_StaticFields14get_useNagle_8Ev
Yu:__ZN8Animator13GetAvatarRootEv
uZi:__ZNK17Stack_t232966228014get_contents_0Ev
j6c:__GLOBAL__sub_I_InputScriptingClasses_cpp
mlk:_Array_InternalArray__ICollection_Add_TisResourceCacheItem_t51292791_m3851804827_gshared
aDp:___toread
wVb:__ZNSt3__26vectorI10vector_mapIiiNS_4lessIiEE13stl_allocatorINS_4pairIiiEEL18MemLabelIdentifier38ELi16EEES4_IS9_LS7_38ELi16EEE26__swap_out_circular_bufferERNS_14__split_bufferIS9_RSA_EE
kCi:_BigInteger_get_Rng_m3283260184
EPl:_ValueCollection_System_Collections_IEnumerable_GetEnumerator_m1831587876_gshared
GU:__ZN8Animator22ScriptingStringToCRC32ERK11ICallString
NZe:__ZL55EventHandler_t1348719766_CustomAttributesCacheGeneratorP21CustomAttributesCache
FM:__ZN7mecanim9animation16EvaluateAvatarDXEPKNS0_14AvatarConstantEPKNS0_11AvatarInputEPNS0_12AvatarMemoryEPNS0_15AvatarWorkspaceEPNS0_12AvatarOutputE
Yhe:_RaycastResult_ToString_m2678663776_AdjustorThunk
ZJl:_Array_InternalArray__get_Item_TisKeyValuePair_2_t2530217319_m2886833132_gshared
Awp:__ZN6il2cpp2os11EventHandle3GetEv
_kh:_ScrollRect_OnEndDrag_m3202230060
DLf:__ZNK23TypeBuilder_t107394815422get_underlying_type_33Ev
Q_c:__Z34Transform_CUSTOM_SetAsFirstSiblingP12Il2CppObject
POo:__ZNK15dense_hashtableINSt3__24pairIK10KeyWrapperINS1_IPK14Il2CppAssemblyP11Il2CppClassEEEjEES9_17ReflectionMapHashIS8_EN14dense_hash_mapIS9_jSD_NS9_14EqualsComparerINS0_8equal_toIS8_EEEENS0_9allocatorISB_EEE9SelectKeyESI_SK_E10test_emptyEj
f$n:__ZN27FieldWithTarget_t305875029317set_m_FieldPath_2EP8String_t
VZh:__ZNK28SinkProviderData_t415137297416get_properties_2Ev
k3e:__ZL57SetupCoroutine_t2062820429_CustomAttributesCacheGeneratorP21CustomAttributesCache
f6g:_InputField_Delete_m3471899192
dYe:__ZL79Convert_t2465617642_CustomAttributesCacheGenerator_Convert_ToUInt64_m1627266664P21CustomAttributesCache
Y9o:__ZN10KeyWrapperIP14Il2CppIUnknownE14EqualsComparerINSt3__28equal_toIS1_EEEC2ES6_
rQe:__ZL91UrlAttribute_t221584584_CustomAttributesCacheGenerator_UrlAttribute_IsContextOK_m1228378186P21CustomAttributesCache
lVh:_RemotingConfiguration_get_ProcessId_m2180277012
x8:__ZN11UnityEngine15CloudWebService17SessionEventQueue14ParseEventDataERKN4core12basic_stringIcNS2_20StringStorageDefaultIcEEEE
ivf:__ZL186U3CAddScoreWithPipeU3Ec__Iterator0_t3118978221_CustomAttributesCacheGenerator_U3CAddScoreWithPipeU3Ec__Iterator0_System_Collections_Generic_IEnumeratorU3CobjectU3E_get_Current_m947005041P21CustomAttributesCache
bkm:_List_1_Remove_m2605758101_gshared
Ogb:__ZThn356_N14SpriteRendererD1Ev
X1b:__ZN13TranslateGLES4InitERK12GraphicsCaps16GfxDeviceLevelGL
Oso:_NativeTypeAttribute_set_CodegenOptions_m3839252515
gZl:_EqualityComparer_1_get_Default_m180770000_gshared
bDj:_Int64_System_IConvertible_ToUInt16_m848637338_AdjustorThunk
W_d:__Z32CustomEventData_CUSTOM_AddUInt32P12Il2CppObjectP12Il2CppStringj
Dwn:_Uri_get_PathAndQuery_m2396197970
Bij:__ZN38FtpWebRequest_t1577818305_StaticFields24set_supportedCommands_14EP24StringU5BU5D_t1281789340
Zik:_Array_InternalArray__IndexOf_TisLink_t544317964_m455584088_gshared
eep:__ZN10KeyWrapperIP18Il2CppGenericClassEC2ENS2_11KeyTypeEnumE
VW:__ZN9Scripting11UnityEngine14AudioClipProxy9InitProxyEv
WRm:_ReadOnlyCollection_1_IndexOf_m2539022912_gshared
uRk:_KeyGeneratedEventHandler__ctor_m1990062371
gBd:__ZN20TextRenderingPrivate7GUIText23VirtualRedirectTransferER17RemapPPtrTransfer
Zqn:_ExpressionAssertion_set_Reverse_m4141031406
jrf:__ZL66Selectable_t3250028441_CustomAttributesCacheGenerator_m_TransitionP21CustomAttributesCache
kAp:__ZN6il2cpp2os6Memory12AlignedAllocEjj
IYl:_EqualityComparer_1_get_Default_m3783840260_gshared
Zlj:__ZN43ServicePointManager_t170559685_StaticFields29set_maxServicePointIdleTime_3Ei
rsd:__ZN20SpriteTilingProperty8TransferI19StreamedBinaryWriteEEvRT_
x9c:__ZN9JSONWrite8TransferI13dynamic_arrayIN4math12int3_storageELj0EEEEvRT_PKc17TransferMetaFlags
Mqh:_Text_set_alignByGeometry_m3828822280
l3o:__ZNK14dense_hash_mapI10KeyWrapperIP11Il2CppClassES2_N6il2cpp8metadata16SZArrayClassHashENS3_14EqualsComparerINS5_19SZArrayClassCompareEEENSt3__29allocatorINSA_4pairIKS3_S2_EEEEE9SelectKeyclERKSE_
UKb:__Z18Transfer_BlittableI17RemapPPtrTransferLb0E11ColorRGBA32EvRK29SerializationCommandArgumentsR31RuntimeSerializationCommandInfo
eQo:__ZN15dense_hashtableINSt3__24pairIK10KeyWrapperINS1_IPK9FieldInfoP11Il2CppClassEEEjEES9_17ReflectionMapHashIS8_EN14dense_hash_mapIS9_jSD_NS9_14EqualsComparerINS0_8equal_toIS8_EEEENS0_9allocatorISB_EEE9SelectKeyESI_SK_E9copy_fromERKSN_j
Aej:_HybridDictionary__ctor_m1681134385
qNk:__ZNK26BlockProcessor_t185103122515get_transform_0Ev
OOa:__ZN21ScalableBufferManager11GetInstanceEv
qKc:__ZN18BackgroundJobQueue19ScheduleJobInternalEPFvPvES0_RKNS_8JobFenceEN8JobQueue16JobQueuePriorityE
i1n:__ZNK24VertexHelper_t245330418912get_m_Uv1S_3Ev
ahp:__ZNSt3__218uninitialized_fillIPNS_4pairIK10KeyWrapperIP12Il2CppObjectEN6il2cpp2gc9CachedCCWEEESA_EEvT_SC_RKT0_
n5a:__ZN12CubemapArray23VirtualRedirectTransferER17RemapPPtrTransfer
p$k:_TimeSpan_op_LessThan_m1594498345
tSc:__ZL27GetComponentsImplementationILb0ELi0EEbR10GameObjectbRK17CompareParametersRK39GetComponentsImplementation_ReturnValue
Mho:__ZL25UnresolvedVirtualCall_283P12Il2CppObject20UIVertex_t4057497605PK10MethodInfo
GQh:__ZNK17Scene_t234837556114get_m_Handle_0Ev
y7m:_Event_GetHashCode_m3559153592
xUb:__ZN9Scripting36IsSystemCollectionsGenericDictionaryE17ScriptingClassPtr
gHn:_UnityEvent_1_FindMethod_Impl_m322741469_gshared
iFp:___ofl_unlock
qIh:__Z31Enumerator_MoveNext_m1050804954P22Enumerator_t2017297076PK10MethodInfo
$Qe:__ZL92ConstructionCallDictionary_t686578562_CustomAttributesCacheGenerator_U3CU3Ef__switchU24map24P21CustomAttributesCache
r9m:_TextEditor_SelectCurrentWord_m2393978600
E3d:__Z54Register_UnityEngine_Networking_UnityWebRequest_Createv
Frf:__ZL64Slider_t3903728902_CustomAttributesCacheGenerator_m_WholeNumbersP21CustomAttributesCache
v9f:__ZNK44MethodCallDictionary_t605791082_StaticFields18get_InternalKeys_6Ev
$Ug:__ZNK24Dictionary_2_t327488888215get_linkSlots_5Ev
Cna:__ZL16ReadTypeTreeImplILb0EEbR8TypeTreeRK16TypeTreeIteratorRPKhS6_i
tln:_Interval_Contains_m110351300_AdjustorThunk
N2i:_Convert_ToInt32_m3048308591
nv:__ZN25RuntimeAnimatorControllerD2Ev
ubn:__ZNK22TextEditor_t275985536615get_multiline_3Ev
jtf:__ZL77LayoutUtility_t2745813735_CustomAttributesCacheGenerator_U3CU3Ef__amU24cache6P21CustomAttributesCache
Qgh:_RectMask2D_OnCanvasHierarchyChanged_m3195492255
A8i:_DateTimeOffset_Equals_m3030958070
JXa:__ZNK22BuiltinResourceManager21GetResourceInstanceIDEPKN5Unity4TypeERKN4core12basic_stringIcNS4_20StringStorageDefaultIcEEEE
yZc:__Z42Register_UnityEngine_RectOffset_set_bottomv
CZn:_AnalyticsTracker_BuildParameters_m43920649
h4c:__Z28GUIStyleState_CUSTOM_CleanupP12Il2CppObject
jZj:_DateTimeFormatInfo_GetMonthName_m2034512315
Udc:__ZN28LightProbeProxyVolumeContext8CopyFromERKS_
oto:_RequiredByNativeCodeAttribute_set_Optional_m1276771824
HSm:_ReadOnlyCollection_1_System_Collections_Generic_IListU3CTU3E_Insert_m2489506856_gshared
NNa:__ZN23TransformChangeDispatch32QueueTransformChangeIfHasChangedER18TransformHierarchy
IFg:__Z75InternalEnumerator_1_System_Collections_IEnumerator_get_Current_m2102877703P32InternalEnumerator_1_t1012836222PK10MethodInfo
FUg:__Z26Enumerator_Reset_m54102781P21Enumerator_t934104361PK10MethodInfo
qFh:_Matrix4x4_MultiplyPoint_m1575665487
brl:__Z105RuntimeInvoker_RuntimeObject_Vector3_t3722313464_Vector3_t3722313464_Single_t1397266774_Int32_t2950945753PFvvEPK10MethodInfoPvPS4_
E4b:__ZN7ApiGLES18DeleteRenderbufferERj
Q3b:__ZL23ProgramUniformMatrix4fvPK7ApiGLESjiihPKv
mhg:__ZNK16HMAC_t262110114421get__blockSizeValue_9Ev
OZb:__ZN7ApiGLES13CreateTextureEjj14GraphicsFormatiiiii
GXl:_DefaultComparer__ctor_m3829525137_gshared
yih:__Z25Il2CppCodeGenWriteBarrierI26ScrollRectEvent_t343079324EvPPT_S2_
kOl:__Z34Enumerator_get_Current_m1054301626P22Enumerator_t3843782539PK10MethodInfo
w$o:_il2cpp_array_length
bwc:__ZN9ShaderLab20SerializedSubProgram15MatrixParameter8TransferI14SafeBinaryReadEEvRT_
mRp:_emscripten_glUniform2i__wrapper
h$j:__ZNK27NumberFormatInfo_t43587713830get_percentDecimalSeparator_22Ev
vSc:__ZL27GetComponentsImplementationILb0ELi1EEbR10GameObjectbRK17CompareParametersRK39GetComponentsImplementation_ReturnValue
osj:_X509Store__ctor_m275383717
NJk:_SimpleCollator_LastIndexOfOrdinalIgnoreCase_m2984667899
TJd:_Round_Down_To_Grid
Dhi:__ZNK31PKCS12_t4101533060_StaticFields31get_recommendedIterationCount_0Ev
jQa:__ZN13RenderTexture7ReleaseEv
TEa:__ZN9Scripting11UnityEngine12Hash128Proxy12CleanupProxyEv
S9c:__Z18Transfer_BlittableI8JSONReadLb1EN4math12int3_storageEEvRK29SerializationCommandArgumentsR31RuntimeSerializationCommandInfo
hgb:__ZN10MeshFilter23VirtualRedirectTransferER14SafeBinaryRead
Ksf:__ZL64LayoutGroup_t2436138090_CustomAttributesCacheGenerator_m_PaddingP21CustomAttributesCache
LE:__ZN7mecanim9animation18ClipMuscleConstant8TransferI8BlobSizeEEvRT_
Zji:_X509CertificateEnumerator_MoveNext_m2269241175
Ejb:__ZN12MeshRenderer17MainThreadCleanupEv
Wxg:__Z74InternalEnumerator_1_System_Collections_IEnumerator_get_Current_m782232053P31InternalEnumerator_1_t715526830PK10MethodInfo
kEb:__ZN22CreateGpuProgramOutput12CreateParamsEv
pZ:__ZN10ObjectPoolIN4FMOD7ChannelENS0_8ChannelIEE7GetFreeEi
TQj:_DynamicMethod_IsDefined_m2556354904
sCl:__Z96RuntimeInvoker_RuntimeObject_CustomAttributeNamedArgument_t287865710_RuntimeObject_RuntimeObjectPFvvEPK10MethodInfoPvPS4_
dxe:_FontData_get_font_m2720086288
Yug:_InternalEnumerator_1_System_Collections_IEnumerator_get_Current_m548105685_gshared
N1b:__ZNK14GfxContextGLES13GetDefaultFBOEv
drn:__ZN31ExpressionAssertion_t186121081112set_negate_2Eb
$yl:__Z99RuntimeInvoker_Void_t1185182177_UILineInfoU5BU5DU26_t2468919161_Int32_t2950945753_Int32_t2950945753PFvvEPK10MethodInfoPvPS4_
pti:_Byte_System_IConvertible_ToType_m2251112646
Dql:__Z106RuntimeInvoker_Void_t1185182177_RectU26_t1284589061_RuntimeObject_Int32_t2950945753_Vector2U26_t2376273893PFvvEPK10MethodInfoPvPS4_
qXc:__Z55Register_UnityEngine_MonoBehaviour_StopCoroutineManagedv
Vli:__ZN25SmallXmlParser_t97378783916set_attributes_8EP23AttrListImpl_t567962447
o7i:_DateTime_get_Hour_m4153505178_AdjustorThunk
P6n:_AudioExtensionManager_WriteExtensionProperties_m3028464154
htk:_Evidence_Equals_m1478353107
Xln:_CostDelegate__ctor_m4027655829
rNc:__Z13GetImagePixelI10ColorRGBAfET_PKhii13TextureFormat15TextureWrapModeS5_ii
hrm:_List_1_System_Collections_IList_set_Item_m1842844683_gshared
Pdc:__ZN19SharedRendererSceneC2E10MemLabelId
kDn:_EventFunction_1__ctor_m4292798223_gshared
ifi:__ZN46RemotingConfiguration_t4113740665_StaticFields29set_activatedServiceEntries_9EP21Hashtable_t1853889766
lbk:__ZNK30SynchronizedWriter_t172285322016get_neverClose_3Ev
CYj:_CultureInfo_construct_datetime_format_m1928121315
ABk:__ZNK20Encoding_t152332205622get_decoder_fallback_3Ev
PZb:__ZNK13TranslateGLES25GetTextureTargetDimensionEj
vKj:_RankException__ctor_m3453633632
Jxn:_Comparison_1__ctor_m533218197_gshared
Aai:_MethodResponse_System_Runtime_Remoting_Messaging_IInternalMessage_get_TargetIdentity_m3291545427
fzl:__Z96RuntimeInvoker_Void_t1185182177_Vector3U5BU5DU26_t3038522815_Int32_t2950945753_Int32_t2950945753PFvvEPK10MethodInfoPvPS4_
tAo:__ZN10KeyWrapperIPK19Il2CppGenericMethodEC2Ev
XPm:_ReadOnlyCollection_1_System_Collections_IList_Remove_m1842121503_gshared
yKh:_PlayableHandle_Equals_m2546735654
Rga:__ZN9profiling27GetBuiltinCategoryRgbaColorEt
vhb:__Z16SnapToPixelSpaceRK8Vector3f
CRj:_File_OpenRead_m2936789020
tja:__ZN9Scripting12LogExceptionE21ScriptingExceptionPtriPKcb
kol:__Z94RuntimeInvoker_Void_t1185182177_RuntimeObject_PlayableGraph_t3515989261_RuntimeObject_IntPtr_tPFvvEPK10MethodInfoPvPS4_
fi:_emscripten_glVertexAttrib4f
TJb:__ZN14SafeBinaryRead21TransferSTLStyleArrayI13dynamic_arrayIN4math12int3_storageELj0EEEEvRT_17TransferMetaFlags
apm:__ZN18List_1_t305805257314set__version_3Ei
ERb:__Z19TransferField_ArrayI18StreamedBinaryRead27Converter_UnityEngineObjectEvRK23StaticTransferFieldInfoR31RuntimeSerializationCommandInfoRT0_
EJg:_InternalEnumerator_1_System_Collections_IEnumerator_Reset_m4072625129_AdjustorThunk
Ltj:_X509CertificateCollection_AddRange_m3683116910
f3c:__ZN10GUIUtility22Internal_GetHotControlEv
x9m:_TextEditor_SelectToPosition_m2765508349
g6f:__ZNK24ObjectWriter_t296840623120get__assemblyCache_3Ev
Qoo:_CustomEventData_t317522481_marshal_pinvoke_cleanup
NWo:__ZN10KeyWrapperIPK14Il2CppAssemblyEC2ENS3_11KeyTypeEnumE
OZh:_SinkProviderData__ctor_m1624738837
lfc:__ZN11HaloManager21ReleaseGeometryJobMemEP25DynamicVBOGeometryJobData
J4j:_DirectoryNotFoundException__ctor_m1689636868
Ajl:__Z88RuntimeInvoker_RuntimeObject_RuntimeObject_SByte_t1669577662_RuntimeObject_RuntimeObjectPFvvEPK10MethodInfoPvPS4_
hng:_InternalEnumerator_1_System_Collections_IEnumerator_Reset_m903423974_gshared
qQm:_ReadOnlyCollection_1_System_Collections_Generic_IListU3CTU3E_get_Item_m978644313_gshared
vKm:_Collection_1_get_Item_m2253972692_gshared
BLf:_RefEmitPermissionSet_t484390987_marshal_pinvoke_cleanup
ENj:_CustomAttributeTypedArgument_Equals_m2261980307
O2a:__ZN19ShaderPropertySheet24SetTextureScaleAndOffsetERK23FastTexturePropertyName8Vector2fS3_
_Kj:__ZNK10Assembly_t18get_assemblyName_9Ev
$Jl:_Array_InternalArray__get_Item_TisLink_t544317964_m1669566993_gshared
KBb:__ZN9GfxDevice18SetGlobalDepthBiasEff
jKo:__ZN6il2cpp6icalls8mscorlib6System8MonoType12get_AssemblyEP20Il2CppReflectionType
s7j:_IsolatedStorageException__ctor_m3386787868
bMf:_TypeBuilder_MakeGenericType_m2799607032
Afi:__ZNK41RemotingServices_t1401195504_StaticFields29get__serializationFormatter_1Ev
RUa:__ZN14SharedMeshData22ClearCachedBoneWeightsEv
aql:__Z106RuntimeInvoker_Void_t1185182177_Rect_t2360479859_Vector2_t2156229523_Vector2_t2156229523_SByte_t1669577662PFvvEPK10MethodInfoPvPS4_
yVm:_ReadOnlyCollection_1_IndexOf_m3669095250_gshared
Fg:_emscripten_glGetPointerv
x_m:__ZN26X509Certificate_t48924302528set_m_signaturealgoparams_13EP22ByteU5BU5D_t4116647657
Vqm:_List_1_System_Collections_Generic_IEnumerableU3CTU3E_GetEnumerator_m3687886202_gshared
BIl:_Dictionary_2_Do_CopyTo_TisKeyValuePair_2_t3842366416_TisRuntimeObject_m1564656153_gshared
mM:__ZN8Animator22ApplyBuiltinRootMotionEv
tep:__ZN15dense_hashtableI10KeyWrapperIP18Il2CppGenericClassES3_N6il2cpp8metadata22Il2CppGenericClassHashEN14dense_hash_setIS3_S6_NS3_14EqualsComparerINS5_25Il2CppGenericClassCompareEEENSt3__29allocatorIS3_EEE8IdentityESA_SD_E5clearEv
WWb:__Z26ApplyMaterialPassWithCacheRK18SharedMaterialDataR17ShaderPassContextP6ShaderPN9ShaderLab4PassEibPKNS6_10GrabPassesEPNS6_11SubProgramsEPK22DeviceRenderStateBlock
fil:__Z55RuntimeInvoker_DateTime_t3738529785_TimeSpan_t881159249PFvvEPK10MethodInfoPvPS4_
K2e:__ZL81Camera_t4157153871_CustomAttributesCacheGenerator_Camera_RaycastTry2D_m2460696262P21CustomAttributesCache
i_l:__ZNK42EqualityComparer_1_t770273628_StaticFields14get__default_0Ev
vSh:_StackTraceUtility_SetProjectFolder_m830524047
DIj:_MulticastDelegate_KPM_m22863605
$Yn:__ZNK24EventTrigger_t252745169516get_m_InitTime_6Ev
rDg:_InternalEnumerator_1_get_Current_m1897120917_AdjustorThunk
SHj:_MonoType_ReorderParamArrayArguments_m2458683451
o1f:_FormatterConverter_ToInt16_m4282804414
Hfl:__Z81RuntimeInvoker_Void_t1185182177_Int64_t3736567304_RuntimeObject_Int64_t3736567304PFvvEPK10MethodInfoPvPS4_
qje:_StandaloneInputModule_ProcessTouchPress_m4019232747
RRj:_FileStream__ctor_m3151488352
Wqi:_Array_swap_m547389985
_db:__ZN8Renderer23VirtualRedirectTransferER14SafeBinaryRead
H3k:_UInt32_ToString_m2420423038
Jnm:_List_1_System_Collections_IList_Add_m634558835_gshared
rVm:_ReadOnlyCollection_1_System_Collections_IList_get_IsFixedSize_m1923250479_gshared
jfn:__ZNK19GUISkin_t124437228214get_m_button_6Ev
u5j:_FileStream_get_Length_m426703983
$wo:_WWW_get_text_m898164367
g8g:__ZN50U3CMouseDragOutsideRectU3Ec__Iterator1_t390924187819set_U3CrectU3E__1_2E16Rect_t2360479859
PMl:_Enumerator__ctor_m1558933899_AdjustorThunk
WGn:__ZN24UnityEvent_1_t383260525719set_m_InvokeArray_4EP24ObjectU5BU5D_t2843939325
ZZe:__ZL88BigInteger_t2902905090_CustomAttributesCacheGenerator_BigInteger_op_Implicit_m3414367033P21CustomAttributesCache
ovo:__ZN6il2cpp2vmL15GetBitmapNoInitEP11Il2CppClassPjRjj
ijm:__Z31Enumerator_MoveNext_m1619775188P21Enumerator_t246177295PK10MethodInfo
Xsc:__ZL13MotionHandleriPK27EmscriptenDeviceMotionEventPv
dzg:__ZNK32InternalEnumerator_1_t23687585839get_idx_1Ev
YMi:__ZN19Context_t397123470720set_serverSettings_3EP29TlsServerSettings_t4144396432
NX:__ZN12AudioManager5ResetEv
X7k:__Z67RuntimeInvoker_Boolean_t97287965_RuntimeObject_SByteU26_t3619038962PFvvEPK10MethodInfoPvPS4_
_ne:__ZN27ClipperRegistry_t242868040916set_m_Clippers_1EP24IndexedSet_1_t2673511092
c2e:__ZL68DisallowMultipleComponent_t1422053217_CustomAttributesCacheGeneratorP21CustomAttributesCache
hQm:_ReadOnlyCollection_1_get_Count_m1336304542_gshared
rtf:__ZL111LayoutUtility_t2745813735_CustomAttributesCacheGenerator_LayoutUtility_U3CGetPreferredHeightU3Em__6_m3049688934P21CustomAttributesCache
rNg:__ZN16VirtFuncInvoker2Ii26DateTimeOffset_t3229287507S0_E6InvokeEjP12Il2CppObjectS0_S0_
qxa:__ZN6prcoreL17RemapGenericFloatI17TexFormatRGBAHalf15TexFormatRGHalfEEvPKNS_9InnerInfoE
zjj:__ZNK26HttpWebRequest_t166943651519get_servicePoint_24Ev
ZNl:_Enumerator_System_Collections_IEnumerator_get_Current_m183009269_AdjustorThunk
oXo:__ZNK15dense_hashtableINSt3__24pairIK10KeyWrapperIPK14Il2CppAssemblyEPK22Il2CppMonoAssemblyNameEES6_N6il2cpp5utils11PointerHashIS4_EEN14dense_hash_mapIS6_SA_SF_NS6_14EqualsComparerINS0_8equal_toIS5_EEEENS0_9allocatorISB_EEE9SelectKeyESK_SM_E10test_emptyEj
dug:_InternalEnumerator_1_System_Collections_IEnumerator_Reset_m779787360_gshared
MZj:__ZNK30DateTimeFormatInfo_t240585370126get_fullDateTimePattern_21Ev
knp:__ZN6il2cpp6icalls8mscorlib6System11Environment20GetWindowsFolderPathEi
L_i:_Convert_ToBoolean_m2833752130
ERn:__ZN30dreamloLeaderBoard_t276786333516set_publicCode_6EP8String_t
Iz:__ZN7mecanim5human18HumanPoseBlendNodeERNS0_9HumanPoseEPS1_f
pve:__Z27List_1_get_Item_m1187285853P17List_1_t487303889iPK10MethodInfo
ODd:_UNITY_FT_RoundFix
z7:__ZN23CloudWebServicesManager23VirtualRedirectTransferER17RemapPPtrTransfer
_vp:_GC_is_heap_ptr
O0c:__ZN9Scripting11UnityEngine8GUIProxy12CleanupProxyEv
dI:__Z14resize_trimmedINSt3__26vectorI24CompressedAnimationCurve13stl_allocatorIS2_L18MemLabelIdentifier26ELi16EEEEEvRT_j
zMk:_ASN1_DecodeTLV_m1200977460
gAh:_UnityEventBase_PrepareInvoke_m1785382128
$ag:__ZN21InterfaceFuncInvoker1IsP12Il2CppObjectE6InvokeEjP11Il2CppClassS1_S1_
qHm:_Collection_1_IsSynchronized_m4171956644_gshared
dNf:__ZN23InterfaceActionInvoker2IP12Il2CppObjectP20Delegate_t1188392813E6InvokeEjP11Il2CppClassS1_S1_S3_
Gjb:__ZNK12MeshRenderer22GetTypeVirtualInternalEv
Yui:_Char_System_IConvertible_ToUInt32_m3901815580
jmh:_Scrollbar_set_onValueChanged_m346467699
Mtd:__ZN13ProduceHelperI13BoxCollider2DLb0EE7ProduceE10MemLabelId18ObjectCreationMode
bpe:_ColorBlock_set_disabledColor_m2996580094
nil:__Z157RuntimeInvoker_Int32_t2950945753_RuntimeObject_Int32_t2950945753_Int32_t2950945753_Int32_t2950945753_SByte_t1669577662_SByte_t1669577662_Int32U26_t1369213839PFvvEPK10MethodInfoPvPS4_
sti:_Byte_System_IConvertible_ToBoolean_m2888023769_AdjustorThunk
GJn:_ListPool_1_Release_m957266927_gshared
RRe:__ZL105ConfigHandler_t4192437216_CustomAttributesCacheGenerator_ConfigHandler_ValidatePath_m3895556516____paths1P21CustomAttributesCache
BUc:__Z32Behaviour_Get_Custom_PropEnabledP12Il2CppObject
E2f:__ZN24ObjectRecord_t118746727216set_ArrayIndex_9EP22Int32U5BU5D_t385246372
cUh:_Transform_set_localPosition_Injected_m2951700666
nxg:__ZN32InternalEnumerator_1_t323283923111set_array_0EP11Il2CppArray
TEp:_write
gYn:__ZNK24EventTrigger_t252745169513get_m_Rules_4Ev
d1a:__ZN14SafeBinaryRead19TransferSTLStyleMapINSt3__23mapIN4core12basic_stringIcNS3_20StringStorageDefaultIcEEEES7_NS1_4lessIS7_EE13stl_allocatorINS1_4pairIKS7_S7_EEL18MemLabelIdentifier1ELi16EEEEEEvRT_17TransferMetaFlags
kBa:__ZL51__ManagedRegistrationHelperFunction_QuaternionProxyPv
TRd:__ZN2UI6Canvas27UpdateEventIndexesRecursiveERi
G8:__ZN11UnityEngine15CloudWebService16SessionContainer21PrepareDataErrorEventERN4core12basic_stringIcNS2_20StringStorageDefaultIcEEEE
DAo:__ZNK30dense_hashtable_const_iteratorINSt3__24pairIK10KeyWrapperIPK19Il2CppGenericMethodEPK26Il2CppGenericMethodIndicesEES6_N6il2cpp8metadata23Il2CppGenericMethodHashEN14dense_hash_mapIS6_SA_SE_NS6_14EqualsComparerINSD_26Il2CppGenericMethodCompareEEENS0_9allocatorISB_EEE9SelectKeyESI_SK_EneERKSN_
wbe:_ExecuteEvents_get_pointerUpHandler_m3515704212
iwi:_ArrayList_set_Item_m2003485935
jop:__ZNSt3__218uninitialized_copyIPNS_4pairIK10KeyWrapperIPK19Il2CppGenericMethodEP10MethodInfoEESB_EET0_T_SD_SC_
uXf:_SatelliteContractVersionAttribute__ctor_m3630863995
dnc:__Z36CreateScriptingArrayFromUnityObjectsI13dynamic_arrayIP6CameraLj0EEE17ScriptingArrayPtrRKT_PKN5Unity4TypeE
aYe:__ZL79Convert_t2465617642_CustomAttributesCacheGenerator_Convert_ToUInt64_m3102114524P21CustomAttributesCache
Jhe:_MouseButtonEventData_PressedThisFrame_m1060658845
r6d:_AxisEventData_get_moveVector_m270528189
pQm:_ReadOnlyCollection_1_System_Collections_Generic_IListU3CTU3E_RemoveAt_m3969985996_gshared
DVn:_SymmetricTransform_CFB_m1755507252
Wym:_List_1_AddRange_m1086383896_gshared
E6n:__ZNK45AudioAmbisonicExtensionDefinition_t411842689016get_definition_1Ev
o3n:_UnityWebRequest_SetUploadHandler_m2465141380
SOc:__Z28BuildSingleStreamChannelInfoP11ChannelInfo17ShaderChannelMaskS1_
uTp:_emscripten_glCopyTexSubImage2D__wrapper
Nbb:__ZNK13ScreenManager12GetIsFocusedEv
wHh:_PlayerConnection_get_isConnected_m911966057
uBe:_GraphicRegistry_GetGraphicsForCanvas_m4219276355
f7j:__ZN23InterfaceActionInvoker3IP22ByteU5BU5D_t4116647657iiE6InvokeEjP11Il2CppClassP12Il2CppObjectS1_ii
r2f:__ZN24ObjectReader_t194095739219set__rootObjectID_9Ex
KUo:__ZNK30dense_hashtable_const_iteratorINSt3__24pairIK10KeyWrapperINS1_IPK12PropertyInfoP11Il2CppClassEEEjEES9_17ReflectionMapHashIS8_EN14dense_hash_mapIS9_jSD_NS9_14EqualsComparerINS0_8equal_toIS8_EEEENS0_9allocatorISB_EEE9SelectKeyESI_SK_EneERKSN_
HAp:__ZN6il2cpp2os20ReaderWriterLockImpl16ReleaseExclusiveEv
iBj:_NumberFormatter_FastToDecHex_m699829267
Lnn:_PatternCompiler_MakeFlags_m1977119795
G9c:__Z35Transfer_Blittable_FixedBufferFieldI8JSONReadiEvRK29SerializationCommandArgumentsR31RuntimeSerializationCommandInfo
CSe:__ZL59StreamingContext_t3711869237_CustomAttributesCacheGeneratorP21CustomAttributesCache
MIo:__ZNSt3__213__vector_baseIN6il2cpp2os19SocketHandleWrapperENS_9allocatorIS3_EEED2Ev
pJe:__ZL48_Type_t3588564251_CustomAttributesCacheGeneratorP21CustomAttributesCache
WTn:_dreamloPromoCode_GetSceneDreamloPromoCode_m2579867555
Qvi:__ZN26CharEnumerator_t112147042112set_length_2Ei
QLk:_BigInteger_GeneratePseudoPrime_m1941064930
oEn:_InvokableCall_1_Invoke_m4071643321_gshared
$of:__ZL81FontUpdateTracker_t1839077620_CustomAttributesCacheGenerator_U3CU3Ef__mgU24cache0P21CustomAttributesCache
Jeb:__ZN28ReflectionProbeAnchorManager18RemoveCachedAnchorERK4PPtrI9TransformE
Sb:invoke_viiffi
ILe:__ZL103RegionInfo_t1090270226_CustomAttributesCacheGenerator_RegionInfo_t1090270226____NativeName_PropertyInfoP21CustomAttributesCache
Hqc:__ZN13sorted_vectorINSt3__24pairIN4core12basic_stringIcNS2_20StringStorageDefaultIcEEEEPK17MessageIdentifierEEN10vector_mapIS6_S9_NS0_4lessIS6_EENS0_9allocatorISA_EEE13value_compareESF_E10insert_oneERKSA_
kM:__ZNSt3__227__insertion_sort_incompleteIRPFbPKN8Animator11AnimatorJobES4_EPS4_EEbT0_S9_T_
iYj:__ZNK23CultureInfo_t415784306815get_textInfo_16Ev
VMi:__Z25Il2CppCodeGenWriteBarrierI27SslClientStream_t3914624661EvPPT_S2_
mXf:_ResourceSet_ReadResources_m3663669011
vTa:__ZL13MeshExtractorPv16VertexInputMasksiR11MeshBuffersR16DrawBuffersRangeRiS5_
k5a:__ZNK12CubemapArray20GetRuntimeMemorySizeEv
Z_k:_TimeSpan_FromHours_m1109641064
Alh:_ScrollRect_get_minWidth_m1325838756
Ywc:__Z14resize_trimmedINSt3__26vectorIN9ShaderLab18SerializedPropertyENS0_9allocatorIS3_EEEEEvRT_j
x7d:__ZNK27BaseInputModule_t201926887819get_m_EventSystem_6Ev
pKb:__Z18Transfer_BlittableI17RemapPPtrTransferLb0EN4math12int3_storageEEvRK29SerializationCommandArgumentsR31RuntimeSerializationCommandInfo
r1e:__ZL92StaticAccessorAttribute_t2432663902_CustomAttributesCacheGenerator_U3CNameU3Ek__BackingFieldP21CustomAttributesCache
kxg:__Z41InternalEnumerator_1_MoveNext_m2234422530P32InternalEnumerator_1_t1765566171PK10MethodInfo
kGg:_InternalEnumerator_1__ctor_m4124630986_gshared
dqc:__ZN12SharedObjectI23TextureStreamingResultsLb1E27SharedObjectDeleteReleaseOpIS0_EE5ResetEv
f9d:_EventSystem_set_current_m38955169
Asd:__ZN13BoxCollider2D23VirtualRedirectTransferER18StreamedBinaryRead
z8l:_KeyValuePair_2_set_Value_m3358607572_gshared
GUg:_Enumerator_Reset_m54102781_gshared
hrf:__ZL53Selectable_t3250028441_CustomAttributesCacheGeneratorP21CustomAttributesCache
KQn:__ZN17Score_t117982597216set_dateString_4EP8String_t
Zln:_CostDelegate_EndInvoke_m2797921932
b4a:__ZN10VertexData8TransferI24GenerateTypeTreeTransferEEvRT_
e1j:__ZN6Guid_t9set__k_10Eh
DXh:__ZNK26ClientIdentity_t142804684421get__proxyReference_7Ev
W1i:__ZN21InterfaceFuncInvoker1I19Decimal_t2948259380P12Il2CppObjectE6InvokeEjP11Il2CppClassS2_S2_
Gnp:__ZN13Il2CppHashMapIPK19Il2CppGenericMethodP10MethodInfoN6il2cpp8metadata23Il2CppGenericMethodHashENS6_26Il2CppGenericMethodCompareENSt3__29allocatorINS9_4pairIK10KeyWrapperIS2_ES4_EEEEEC2EjRKS7_RKS8_
S1h:__ZN19Context_t328544694424set_context_properties_7EP21ArrayList_t2718874744
bRh:_Screen_get_dpi_m495672463
KUk:_UTF8Encoding_InternalGetByteCount_m2120178851
FHi:__ZN18VirtActionInvoker1I25RSAParameters_t1728406613E6InvokeEjP12Il2CppObjectS0_
j1e:__ZL130NativeTypeAttribute_t2250406315_CustomAttributesCacheGenerator_NativeTypeAttribute_set_IntermediateScriptingStructName_m3613994509P21CustomAttributesCache
ysp:_GC_default_oom_fn
qkc:__ZL10CullLightsRK22SceneCullingParametersR11CullResults
b5g:_InputField_SendOnSubmit_m3463846103
S4i:_Convert_ToUInt64_m3170916409
UA:__ZN7mecanim12statemachine20GetBlendTreeConstantERKNS0_13StateConstantEi
RCj:_Int64_System_IConvertible_ToInt16_m4062196970_AdjustorThunk
sIj:_MonoType_GetGenericTypeDefinition_m3201894896
VMc:__Z40GetTemporaryCachePathApplicationSpecificv
jAb:__ZN9GfxDevice16EndAsyncJobFrameEv
arl:__Z99RuntimeInvoker_Int32_t2950945753_Ray_t3785851493_RuntimeObject_Single_t1397266774_Int32_t2950945753PFvvEPK10MethodInfoPvPS4_
Q4n:_WWWForm_get_DefaultEncoding_m4131957975
mUo:__ZNK15dense_hashtableINSt3__24pairIK10KeyWrapperINS1_IPK12PropertyInfoP11Il2CppClassEEEjEES9_17ReflectionMapHashIS8_EN14dense_hash_mapIS9_jSD_NS9_14EqualsComparerINS0_8equal_toIS8_EEEENS0_9allocatorISB_EEE9SelectKeyESI_SK_E10test_emptyERK30dense_hashtable_const_iteratorISB_S9_SD_SM_SI_SK_E
yGd:_UNITY_tt_face_load_hhea
a$:__ZN12AudioManager27InitialCompleteDomainReloadEv
QXj:__ZN36CultureInfo_t4157843068_StaticFields23set_shared_table_lock_5EP12Il2CppObject
mX:__ZN4PPtrI15AudioMixerGroupE8TransferI19StreamedBinaryWriteEEvRT_
RTh:__ZN28TrackedReference_t119977755611set_m_Ptr_0Ei
Rjp:__ZN15dense_hashtableINSt3__24pairIK10KeyWrapperIPcES3_EES4_N6il2cpp5utils15PassThroughHashIS3_EEN14dense_hash_mapIS4_S3_SA_NS4_14EqualsComparerINS0_8equal_toIS3_EEEENS0_9allocatorIS6_EEE9SelectKeyESF_SH_E16reset_thresholdsEv
ue:___syscall3
X5e:__ZL95MonoBehaviour_t3962482529_CustomAttributesCacheGenerator_MonoBehaviour_CancelInvoke_m3252264575P21CustomAttributesCache
Sql:__Z135RuntimeInvoker_RaycastHit2D_t2279581989_Vector2_t2156229523_Vector2_t2156229523_Single_t1397266774_Int32_t2950945753_Single_t1397266774PFvvEPK10MethodInfoPvPS4_
Ee:___syscall6
pBb:__ZN9GfxDevice15GetNextCPUFenceEv
ye:___syscall4
kha:__ZN24ProfilerCallbacksHandler27RegisterCreateEventCallbackEPFvPK23UnityProfilerMarkerDescPvES3_
ici:_ReturnMessage__ctor_m2352989078
mKh:__ZN39PlayableBinding_t354260709_StaticFields21set_DefaultDuration_5Ed
Lro:__ZN34Physics2D_t1528932956_StaticFields31set_m_LastDisabledRigidbody2D_0EP18List_1_t2411569343
JCn:__ZN16VirtFuncInvoker1Ib19Vector3_t3722313464E6InvokeEjP12Il2CppObjectS0_
G1m:_PKCS12_set_Password_m4088935795
fzb:__ZNSt3__26__treeINS_12__value_typeIN4core12basic_stringIcNS2_20StringStorageDefaultIcEEEEPN16MemoryFileSystem4NodeEEENS_19__map_value_compareIS6_SA_NS_4lessIS6_EELb1EEE13stl_allocatorISA_L18MemLabelIdentifier55ELi16EEE7destroyEPNS_11__tree_nodeISA_PvEE
xqh:__ZNK16Text_t190188271442get_m_DisableFontTextureRebuiltCallback_35Ev
wQn:__ZN17Score_t117982597222get_address_of_score_1Ev
qpl:__Z67RuntimeInvoker_Boolean_t97287965_TextGenerationSettings_t1351628751PFvvEPK10MethodInfoPvPS4_
yhp:__ZN6il2cpp2vm3RCW14QueryInterfaceILb1EEEP14Il2CppIUnknownP15Il2CppComObjectRK10Il2CppGuid
ZNi:_TlsServerCertificateRequest__ctor_m1334974076
pIk:__ZNK23Contraction_t158927535417get_Replacement_1Ev
jed:__ZN27PerformanceReportingManager23VirtualRedirectTransferER14SafeBinaryRead
It:__ZN9Scripting11UnityEngine30RuntimeAnimatorControllerProxy9InitProxyEv
qoi:__ZN40AppDomain_t1571427825_ThreadStaticFields30set_type_resolve_in_progress_3EP21Hashtable_t1853889766
Rhp:__ZN6il2cpp2vmL25InflatePropertyDefinitionEPK12PropertyInfoPS1_P11Il2CppClassP20Il2CppGenericContext
Q2i:_Convert_ToInt32_m1613163543
Kzl:__Z52RuntimeInvoker_TimeSpan_t881159249_Int32_t2950945753PFvvEPK10MethodInfoPvPS4_
idh:_MatEntry__ctor_m1949610076
PPm:_ReadOnlyCollection_1_System_Collections_ICollection_CopyTo_m3127175806_gshared
rh:_emscripten_glShaderBinary
fuk:_String_op_Inequality_m215368492
T9:__ZN15DownloadHandler19OnFinishReceiveDataEv
K2k:_UInt16_ToString_m760649087
evb:__ZNK20LocalFileSystemPosix6ExistsERK13FileEntryData
EXi:_Queue_Dequeue_m2397857002
qcn:__Z33Dictionary_2_set_Item_m3417391377P24Dictionary_2_t1968819495iP12Il2CppObjectPK10MethodInfo
Sil:__Z21RuntimeInvoker_Guid_tPFvvEPK10MethodInfoPvPS4_
Mjl:__Z46RuntimeInvoker_CipherAlgorithmType_t1174400495PFvvEPK10MethodInfoPvPS4_
Cqg:__ZNK32InternalEnumerator_1_t343728143611get_array_0Ev
y_m:__ZN26X509Certificate_t48924302521set_issuerUniqueID_19EP22ByteU5BU5D_t4116647657
Kuh:_Camera_GetAllCameras_m668492922
Bdl:__Z32RuntimeInvoker_Label_t2281661643PFvvEPK10MethodInfoPvPS4_
aAm:__ZNK19Queue_1_t120077810614get__version_3Ev
GUd:__Z58Register_UnityEngine_Canvas_GetETC1SupportedCanvasMaterialv
o$k:_TimeSpan_op_Inequality_m2467851530
Jeg:__ZN27DES_t821106792_StaticFields19set_semiWeakKeys_11EP25ByteU5BU2CU5D_t4116647658
EGl:_Array_Sort_TisUIVertex_t4057497605_m3996333845_gshared
wqk:_ToBase64Transform_get_CanReuseTransform_m702204640
Wfj:__ZNK36NameObjectCollectionBase_t209184736419get_m_defCapacity_5Ev
Akf:__ZL73ContactFilter2D_t3805203441_CustomAttributesCacheGenerator_maxNormalAngleP21CustomAttributesCache
uKf:__ZN31OpCodes_t126150456_StaticFields13set_Ldftn_205E17OpCode_t123070264
lnl:__Z53RuntimeInvoker_PropertyName_t3749835189_RuntimeObjectPFvvEPK10MethodInfoPvPS4_
sri:_Swapper_BeginInvoke_m1688449973
wxh:_Display_get_renderingWidth_m1970428952
Jno:__ZNK21HumanBone_t246533951817get_m_HumanName_1Ev
Qjl:__Z81RuntimeInvoker_Void_t1185182177_RuntimeObject_Int32_t2950945753_Int64_t3736567304PFvvEPK10MethodInfoPvPS4_
lyc:__ZN15SerializeTraitsI13dynamic_arrayIN9ShaderLab21SerializedBindChannelELj0EEE8TransferI19StreamedBinaryWriteEEvRS3_RT_
dDp:_islower
Nnm:_List_1_System_Collections_IList_Remove_m3654336679_gshared
EU:__ZNSt3__26vectorIN4core12basic_stringIcNS1_20StringStorageDefaultIcEEEE13stl_allocatorIS5_L18MemLabelIdentifier1ELi16EEE21__push_back_slow_pathIS5_EEvOT_
g5l:__ZNK23RC2Transform_t4583214879get_R3_15Ev
P5e:__ZL92Mesh_t3648964284_CustomAttributesCacheGenerator_Mesh_SetTriangles_m2205169959____baseVertex3P21CustomAttributesCache
Vwl:__Z52RuntimeInvoker_Int32_t2950945753_HitInfo_t3229609740PFvvEPK10MethodInfoPvPS4_
lgl:__Z86RuntimeInvoker_Boolean_t97287965_Int16_t2552820387_Int16_t2552820387_Int32_t2950945753PFvvEPK10MethodInfoPvPS4_
zWe:__ZL80Convert_t2465617642_CustomAttributesCacheGenerator_Convert_ToBoolean_m2807110707P21CustomAttributesCache
PGa:__ZN9Scripting11UnityEngine11CameraProxy12CleanupProxyEv
lIn:_IndexedSet_1_IndexOf_m241693686_gshared
qMm:_Collection_1_System_Collections_IList_Add_m1802516464_gshared
Hbm:__ZNK22Enumerator_t214645748710get_next_1Ev
EXd:__ZN11UnityEngine15PlatformWrapper30GetGraphicsDriverLibraryStringEv
mPb:__ZL17Transfer_GUIStyleI19StreamedBinaryWriteLb1EEvRK29SerializationCommandArgumentsR31RuntimeSerializationCommandInfo
eoe:__Z32IndexedSet_1_Contains_m896713622P24IndexedSet_1_t3571286806P12Il2CppObjectPK10MethodInfo
eWh:_CADMethodReturnMessage_GetException_m4034410903
d4k:_UInt64_System_IConvertible_ToSingle_m925613075_AdjustorThunk
qWo:__ZN6il2cpp2vm10Reflection27GetCustomAttributesCacheForEPK12PropertyInfo
ldo:__ZL24UnresolvedVirtualCall_40P12Il2CppObjectS0_PK10MethodInfo
DKn:_ListPool_1__cctor_m704263611_gshared
tKg:_InternalEnumerator_1_System_Collections_IEnumerator_Reset_m158730371_gshared
yu:__ZN16MecanimAnimation24DeleteAnimatedPropertiesERP26IAnimatedPropertyEvaluator
XEj:_Math_Min_m3468062251
X5j:__ZN28StreamAsyncResult_t78024851212set_nbytes_4Ei
_Qn:_Music_Start_m75845250
X9b:__Z14DrawGUITextureRK5RectTIfEP7Texture11ColorRGBA32P8Materiali
sE:__Z32GenerateRootMotionRotationCurvesRNSt3__26vectorI15RootMotionCurve13stl_allocatorIS1_L18MemLabelIdentifier1ELi16EEEERK17AnimationCurveTplI11QuaternionfE
gvf:__ZL77U3CAddScoreWithPipeU3Ec__Iterator0_t3118978221_CustomAttributesCacheGeneratorP21CustomAttributesCache
dgm:__ZN22Enumerator_t326161813313set_current_3E22UILineInfo_t4195266810
Mzf:__ZN23ILTokenInfo_t232577511414set_code_pos_1Ei
Q$a:__ZNK15PlayableMethods18InvokeProcessFrameER18ScriptingObjectPtrRK9HPlayableP18ScriptingFrameDataRK9FrameData
bL:__ZN9BlobWrite8TransferI22OffsetPtrArrayTransferIKN4math7_float4EEEEvRT_PKc17TransferMetaFlags
AUh:_Transform_IsChildOf_m224006092
wkd:__ZNK11b2EdgeShape7RayCastEP15b2RayCastOutputRK14b2RayCastInputRK11b2Transformi
tjg:__Z27Action_1_Invoke_m1892723854P19Action_1_t269755560bPK10MethodInfo
p9c:__ZN9JSONWrite8TransferI4AABBEEvRT_PKc17TransferMetaFlags
dvc:__ZN15dense_hashtableINSt3__24pairIKiN4core17string_with_labelILi1EEEEEi18SInt32HashFunctionN14dense_hash_mapIiS5_S7_NS0_8equal_toIiEE13stl_allocatorIS6_L18MemLabelIdentifier1ELi16EEE9SelectKeyESA_SD_E12expand_arrayEjN21dense_hash_map_traits17integral_constantIbLb0EEE
Ukm:_List_1_Clear_m2154023298_gshared
jqj:__ZN27X509Certificate2_t71404912618set_issuer_name_10EP32X500DistinguishedName_t875709727
g6d:_AbstractEventData_get_used_m2991176710
dAg:_InternalEnumerator_1_get_Current_m3191242573_AdjustorThunk
Z4e:__ZL91RectOffset_t1369453676_CustomAttributesCacheGenerator_RectOffset_InternalCreate_m1442450486P21CustomAttributesCache
Ytl:__Z94RuntimeInvoker_Void_t1185182177_ObjectU5BU5DU26_t712384779_Int32_t2950945753_Int32_t2950945753PFvvEPK10MethodInfoPvPS4_
yxl:__Z71RuntimeInvoker_Void_t1185182177_CustomAttributeNamedArgument_t287865710PFvvEPK10MethodInfoPvPS4_
Lpd:__ZN10Collider2D13AwakeFromLoadE17AwakeFromLoadMode
dWn:_Aes__ctor_m178909601
f8a:__ZNK9Texture2D20GetRuntimeMemorySizeEv
Gme:_CanvasScaler_set_screenMatchMode_m2975492035
Wcd:__ZN5Unity9rapidjson13GenericReaderINS0_4UTF8IcEES3_13JSONAllocatorE9ParseTrueILj0ENS0_19GenericStringStreamIS3_EENS0_15GenericDocumentIS3_S4_S4_EEEEvRT0_RT1_
R9n:_Vector2_op_Implicit_m4260192859
Nh:_emscripten_glUniform2iv
v2j:_Guid_ToString_m2120285561
Bug:__Z69InternalEnumerator_1_System_Collections_IEnumerator_Reset_m3873091784P31InternalEnumerator_1_t348664125PK10MethodInfo
ihm:_Enumerator_Dispose_m2367629053_gshared
yVk:_UnicodeEncoding_CopyChars_m785272451
F3l:_Enumerator_Dispose_m1204547613_AdjustorThunk
uzd:_UNITY_FT_Outline_Transform
OKi:_CipherSuite_get_ExchangeAlgorithmType_m1633709183
_0e:__ZL118NativeMethodAttribute_t4187428193_CustomAttributesCacheGenerator_NativeMethodAttribute_set_HasExplicitThis_m2961870915P21CustomAttributesCache
Vvo:__ZN6il2cpp2vm5Class10GetMethodsEP11Il2CppClassPPv
p1d:__ZNK25UnityWebRequestJavaScript17GetUploadProgressEv
Zfc:__Z30AddDefaultStreamsToMeshBuffersR9GfxDeviceR11MeshBuffersRK16DrawBuffersRange17ShaderChannelMaskS6_
dqi:_Array_GetValue_m2528546681
ERj:__ZN24StreamReader_t400993589917set_base_stream_9EP18Stream_t1273022909
opm:_List_1_GetEnumerator_m1430071802_gshared
Nkg:__ZNK31ArrayReadOnlyList_1_t147838354311get_array_0Ev
g4b:__ZN7ApiGLES17DeleteFramebufferERN2gl6HandleILNS0_10ObjectTypeE9EEES3_
lPp:_glGenFramebuffers__wrapper
w6b:__ZN15UniformTFMethod13MapBoneBufferEj
aQd:__ZN2UI14CanvasRendererD2Ev
sKl:_Array_InternalArray__get_Item_TisParameterModifier_t1461694466_m29553316_gshared
uNf:_FieldInfo_internal_from_handle_type_m3256989094
hDj:_Int64_CompareTo_m1928360444_AdjustorThunk
dNn:_Brick_Update_m1049121298
KLo:__ZN6il2cpp6icalls8mscorlib6SystemL23GetPropertiesByNameImplINS_5utils10functional6FilterINSt3__212basic_stringIcNS7_11char_traitsIcEENS7_9allocatorIcEEEENS4_13VmStringUtils21CaseSensitiveComparerEEEEEP11Il2CppArrayPK10Il2CppTypejRKT_
rXb:__Z9SetupArgviPPKc
j3i:_Convert_ToInt64_m2075031821
T8e:__ZL111ScriptableObject_t2528358522_CustomAttributesCacheGenerator_ScriptableObject_CreateScriptableObject_m3504774547P21CustomAttributesCache
yUg:__ZNK21Enumerator_t93410436110get_next_1Ev
yyg:_InternalEnumerator_1__ctor_m236665673_gshared
x5d:__ZL55__ManagedRegistrationHelperFunction_ReferencePointProxyPv
tfi:_RemotingException__ctor_m1015537352
_ck:_Array_get_swapper_TisVector3_t3722313464_m1221246401_gshared
eHk:__ZNK26SimpleCollator_t287783472917get_cjkLv1Table_5Ev
HQp:_glTexParameteri__wrapper
Sjg:__ZN25GenericVirtActionInvoker2IP12Il2CppObjectiE6InvokeEPK10MethodInfoS1_S1_i
Kef:__ZL56AudioListener_t2734094699_CustomAttributesCacheGeneratorP21CustomAttributesCache
goa:__ZN12FileAccessor4OpenER15FileSystemEntry14FilePermission16FileAutoBehavior
TVa:__ZNSt3__26vectorI4PPtrI6ShaderE13stl_allocatorIS3_L18MemLabelIdentifier53ELi16EEE8__appendEj
Wmp:__ZN6il2cpp2os9Directory6CreateERKNSt3__212basic_stringIcNS2_11char_traitsIcEENS2_9allocatorIcEEEEPi
izo:__ZNK10KeyWrapperIPKcE8isNormalEv
KNa:__ZN23TransformChangeDispatch32QueueTransformChangeIfHasChangedERK15TransformAccess
NOh:__ZN38RectTransform_t3704657025_StaticFields40get_address_of_reapplyDrivenProperties_4Ev
UIj:__ZN40NumberFormatter_t1182924621_StaticFields34get_address_of_TensExponentTable_1Ev
DTp:_glTexImage3D__wrapper
Mwb:__ZN15ArchiveReadFile5WriteEyPKvPy
hmp:__ZN6il2cpp2os26LibraryNamePrefixAndSuffixC2EPKcS3_
ufm:_Enumerator_VerifyState_m3505660202_AdjustorThunk
FKj:_Assembly_get_FullName_m293988418
Hud:__ZN22WorldContactListener2D8PreSolveEP9b2ContactPK10b2Manifold
$Cf:__ZN25MethodBuilder_t280731675311set_ilgen_8EP23ILGenerator_t1388622344
quh:_Camera_get_pixelRect_Injected_m2326986893
gFn:__ZN27InvokableCall_4_t275698074614set_Delegate_0EP24UnityAction_4_t682480391
wEa:__ZN9Scripting11UnityEngine25ManagedStreamHelpersProxy9InitProxyEv
x:tempValue
fok:__ZN23SHA384Managed_t741585759set_H7_14Ey
jsc:__Z29StdTemplateConversionFunctionIaiEbPvR14SafeBinaryRead
FQn:_dreamloLeaderBoard_ToStringArray_m2563213966
pBp:__ZN6il2cpp8metadata24Il2CppGenericContextHash4HashEPK20Il2CppGenericContext
nzg:_InternalEnumerator_1_get_Current_m356936020_AdjustorThunk
Jac:__ZN6Camera21RenderODSWorldTextureERK11CullResultsRK19SharedRendererSceneR17ShaderPassContextNS_10RenderFlagE
TPd:__ZN4PPtrI6CameraE8TransferI19StreamedBinaryWriteEEvRT_
yvh:__ZN19Color32_t260050129210set_rgba_0Ei
wCj:_Int32_ToString_m141394615_AdjustorThunk
Wja:__Z29scripting_class_from_fullnamePKcS0_S0_
ISj:_Directory_GetCurrentDirectory_m219218555
BWf:__Z36il2cpp_codegen_com_get_or_create_ccwI14Il2CppIUnknownEPT_P12Il2CppObject
Vl:_llvm_floor_f32
bFk:__ZN45MSCompatUnicodeTable_t1453885583_StaticFields21set_tailoringInfos_16EP31TailoringInfoU5BU5D_t1797664499
Nmi:_SmallXmlParser_UnexpectedEndError_m1914362401
rB:__ZN26AnimatorControllerPlayable18DeallocateBindingsEv
eSe:__ZL61FormatterTypeStyle_t3400733584_CustomAttributesCacheGeneratorP21CustomAttributesCache
Xwe:__ZN19FontData_t74662006915set_m_BestFit_3Eb
qpp:__ZN4utf88internal20is_overlong_sequenceIiEEbjT_
$pc:__ZN20TextureStreamingData19AllocateTextureInfoEP17StreamingRendererjPK20StreamingTextureInfo
M1:__ZN11AudioSource19CreateOpenALRolloffEfff
sGd:_UNITY_FT_Stream_ReadAt
R8l:__Z36KeyValuePair_2_set_Value_m3305319569P26KeyValuePair_2_t3842366416bPK10MethodInfo
Lme:__ZNK24CanvasScaler_t276797995521get_m_PhysicalUnit_11Ev
GHo:__ZN24dense_hashtable_iteratorINSt3__24pairIK10KeyWrapperIP9FieldInfoEiEES5_N6il2cpp5utils11PointerHashIS3_EEN14dense_hash_mapIS5_iSB_NS5_14EqualsComparerINS0_8equal_toIS4_EEEENS0_9allocatorIS7_EEE9SelectKeyESG_SI_EC2EPK15dense_hashtableIS7_S5_SB_SK_SG_SI_EPS7_SQ_b
b_k:_TimeSpan__ctor_m1896986612_AdjustorThunk
T4l:__ZNK36RC2Transform_t458321487_StaticFields14get_pitable_18Ev
_Db:__ZN13ComputeBuffer7SetDataER9GfxDevicePKvjj
F_l:_EqualityComparer_1_System_Collections_IEqualityComparer_Equals_m1907027006_gshared
f0h:__Z25Il2CppCodeGenWriteBarrierI23ChannelData_t3353629972EvPPT_S2_
Xgi:_ArgumentException__ctor_m1216717135
TMh:_Ray_ToString_m1732834890_AdjustorThunk
iOo:__ZN10KeyWrapperINSt3__24pairIPK14Il2CppAssemblyP11Il2CppClassEEEC2ERKS7_
rXk:__ZNK32RegisteredWaitHandle_t152953845417get__finalEvent_6Ev
d9c:__ZN9JSONWrite8TransferI13dynamic_arrayI5RectTIfELj0EEEEvRT_PKc17TransferMetaFlags
Zqm:_List_1_System_Collections_IList_Contains_m3860993176_gshared
x5:__ZN11AudioModule22CreateAudioClipFromWWWEP10IWWWStreamPKcbbi
eDc:__ZN9Texture2DC2E10MemLabelId18ObjectCreationMode
nZb:__Z17DebugStringToFileIA59_cEvRKT_iPKci15LogMessageFlagsiiPFvRK11CppLogEntryE
H0f:_ObjectRecord_get_IsUnsolvedObjectReference_m1163921033
bBp:___cxx_global_var_init_1_44860
O2k:_UInt32_System_IConvertible_ToBoolean_m1763673183_AdjustorThunk
H0n:__Z22Func_2__ctor_m16758224P18Func_2_t3446800538P12Il2CppObjectiPK10MethodInfo
Hoh:__ZNK18Slider_t390372890228get_m_HandleContainerRect_30Ev
R3a:__ZN13dynamic_arrayI11ChannelInfoLj0EE18resize_initializedEj12ResizePolicy
MT:__ZZN8Animator15InitializeClassEvEN43FunctorImpl_449kDidModifyAnimatorController4CallEPviR11MessageData
Aml:__Z35RuntimeInvoker_RangeInt_t2094684618PFvvEPK10MethodInfoPvPS4_
bUa:__ZN21InstanceBufferJobDataIN10Instancing14RenderLoopArgsEED2Ev
Gth:_Bounds_get_extents_m1304537151
RYa:__ZN6prcoreL11inner_clearILj4EEEvPhjjj
vf:_emscripten_glClear
TA:__ZN7mecanim12statemachine27CreateStateMachineWorkspaceEPKNS0_20StateMachineConstantEjR20RuntimeBaseAllocator
H9h:_MethodCall_get_Args_m148309537
spn:__ZNK18Parser_t24305093839get_gap_5Ev
Smn:__ZN30Match_t3408321083_StaticFields12set_empty_10EP17Match_t3408321083
tai:_DictionaryEnumerator_get_Value_m2166220004
Z8d:__ZN23EventSystem_t100366658828set_m_sendNavigationEvents_8Eb
F5n:_PCMReaderCallback_BeginInvoke_m3391809637
jda:__GLOBAL__sub_I_Runtime_SceneManager_0_cpp
Q9k:__Z74RuntimeInvoker_Void_t1185182177_RuntimeObject_StreamingContext_t3711869237PFvvEPK10MethodInfoPvPS4_
pvp:_GC_initialize_offsets
Tbm:_Enumerator_MoveNext_m2142368520_AdjustorThunk
Ata:__ZNK8Playable6HandleEv
A3g:_SetPropertyUtility_SetColor_m2229203028
K$o:_il2cpp_class_get_field_from_name
WHp:___cxa_guard_abort
fma:__ZN14MessageHandler28MessageIDToMessageIdentifierEi
L4a:__ZNK11SpriteAtlas20GetRuntimeRenderDataEPK6Sprite
fyh:__ZNK25ArgumentCache_t218795839919get_m_IntArgument_2Ev
r4j:_FileSystemInfo__ctor_m3035148496
NBj:_Int32_System_IConvertible_ToDecimal_m2190376994_AdjustorThunk
H8l:_KeyValuePair_2_set_Key_m2121548577_AdjustorThunk
nAl:__Z46RuntimeInvoker_RefEmitPermissionSet_t484390987PFvvEPK10MethodInfoPvPS4_
jgo:__ZL25UnresolvedVirtualCall_200P12Il2CppObjectaaPK10MethodInfo
gVe:__ZL88UTF7Encoding_t2644108479_CustomAttributesCacheGenerator_UTF7Encoding_GetBytes_m521917477P21CustomAttributesCache
_Be:__ZN27GridLayoutGroup_t304622046124set_m_ConstraintCount_17Ei
YXn:__Z25Il2CppCodeGenWriteBarrierI18List_1_t3418373063EvPPT_S2_
_U:__Z51Register_UnityEngine_Animator_get_hasBoundPlayablesv
uFm:_Collection_1_CopyTo_m3142835220_gshared
Om:emscriptenWebGLGetUniform
fo:FUNCTION_TABLE_iiiiiiiiiii
Jcn:_GUI_CallWindowDelegate_m3309453386
MEd:_cff_set_mm_blend
Cno:_AnimationScriptPlayable_GetHandle_m632811930_AdjustorThunk
yVb:__ZN19GfxThreadableDevice15OnDeviceCreatedEb
hmc:__ZL10CleanUpJobP20CullingGroupsJobData
ejb:__ZN16BlendShapeVertex8TransferI19StreamedBinaryWriteEEvRT_
Xfc:__Z20IsRunningNativeTestsv
f4j:_DirectoryInfo_get_Exists_m3142069876
ggb:__ZN10MeshFilter23VirtualRedirectTransferER24GenerateTypeTreeTransfer
O9b:__ZN13RenderManager15BatchModeUpdateEv
hBn:_Predicate_1__ctor_m327447107_gshared
sW:__ZN20DiagnosticSwitchEnumI23FMODDebugDisplayOptionsE18SetValueFromStringEPKc
yX:__ZL16FMOD_ErrorString11FMOD_RESULT_656
isj:_X509Chain_get_CertificateAuthorities_m804805415
Cgc:__Z14SetupLightmapsRK8Vector4fS1_R17ShaderPassContext
rkf:__ZL71ContactFilter2D_t3805203441_CustomAttributesCacheGenerator_useLayerMaskP21CustomAttributesCache
ptk:__ZNK20Evidence_t200814414815get__hashCode_3Ev
W9n:_Vector2_get_one_m738793577
mrd:__ZN10ClipperLib7Clipper15SetWindingCountERNS_5TEdgeE
aag:_InstanceComparer_System_Collections_IHashCodeProvider_GetHashCode_m1305577427
UNc:__ZNK4Mesh14GetIndexFormatEv
_kg:__ZN43U3CGetEnumeratorU3Ec__Iterator0_t375079332416set_U3CiU3E__0_0Ei
Yfe:__ZNK28PointerEventData_t380790109238get_U3CclickCountU3Ek__BackingField_18Ev
fHj:__ZNK24MonoTypeInfo_t336698902518get_default_ctor_1Ev
tvn:_UriParser_set_DefaultPort_m4007715058
DVc:__Z36CreateScriptingArrayFromUnityObjectsI13dynamic_arrayIP10GameObjectLj0EEE17ScriptingArrayPtrRKT_PKN5Unity4TypeE
vgp:__ZN14dense_hash_mapI10KeyWrapperIP12Il2CppObjectEN6il2cpp2gc9CachedCCWENS4_5utils11PointerHashIS1_EENS3_14EqualsComparerINSt3__28equal_toIS2_EEEENSB_9allocatorINSB_4pairIKS3_S6_EEEEE13set_empty_keyERSH_
wFa:__ZN9Scripting11UnityEngine12Experimental9Rendering21CameraPropertiesProxy9InitProxyEv
Kl:_glVertexAttribIPointer
WSk:_StringBuilder_ToString_m3317489284
Men:_GUIWordWrapSizer__ctor_m3789151557
uko:_Canvas_get_pixelPerfect_m333060872
oNc:__ZNK6Sprite10GetPaddingE20SpriteRenderDataMode
$ek:_Array_InternalArray__ICollection_Remove_TisUInt32_t2560061978_m733727733_gshared
vdg:_CryptographicException__ctor_m503735289
nye:__Z30Dictionary_2__ctor_m2330267198P23Dictionary_2_t369343732PK10MethodInfo
h7h:_ConstructionCall_get_CallSiteActivationAttributes_m3498917408
UDn:__Z30InterlockedCompareExchangeImplIP24UnityAction_1_t682124106ET_PS2_S2_S2_
c6j:_Stream_EndRead_m1896469262
g7k:__Z93RuntimeInvoker_Boolean_t97287965_Int32_t2950945753_SByte_t1669577662_ExceptionU26_t3600731591PFvvEPK10MethodInfoPvPS4_
L1j:_Guid_CompareTo_m243656946
bHd:_UNITY_ft_glyphslot_alloc_bitmap
Twg:__ZN32InternalEnumerator_1_t176556617111set_array_0EP11Il2CppArray
aSl:_Dictionary_2_GetObjectData_m3463318060_gshared
wJg:__Z41InternalEnumerator_1_MoveNext_m1396448578P31InternalEnumerator_1_t807363631PK10MethodInfo
gWm:__ZN32ReadOnlyCollection_1_t239240225910set_list_0EP12Il2CppObject
cOm:_ReadOnlyCollection_1_System_Collections_IList_Add_m3642938800_gshared
qTi:_RSASslSignatureDeformatter_SetHashAlgorithm_m895570787
qia:__ZL36TransformAccessArray_InitializeClassPv
U5m:_X509CrlEntry__ctor_m4013514048
WSi:__ZN25SslStreamBase_t166741340714set_protocol_6EP26RecordProtocol_t3759049701
O1j:__ZNK6Guid_t8get__b_1Ev
jBo:__ZN15dense_hashtableI10KeyWrapperIPK17Il2CppGenericInstES4_N6il2cpp8metadata21Il2CppGenericInstHashEN14dense_hash_setIS4_S7_NS4_14EqualsComparerINS6_24Il2CppGenericInstCompareEEENSt3__29allocatorIS4_EEE8IdentityESB_SE_E16reset_thresholdsEv
naj:_Delegate_CreateDelegate_internal_m2845516975
Qng:_InternalEnumerator_1_MoveNext_m123458112_gshared
$Fa:__ZN9Scripting11UnityEngine31ExcludeFromPresetAttributeProxy12CleanupProxyEv
SLd:_ft_raster1_render
FYm:__ZNK29TlsServerSettings_t414439643218get_certificates_0Ev
fio:_Font_Internal_CreateFont_m3912844329
GAj:__ZNK40NumberFormatter_t1182924621_StaticFields19get_TenPowersList_4Ev
EYc:__Z47Register_UnityEngine_Mesh_RecalculateBoundsImplv
hgm:_Enumerator_get_Current_m3382684163_AdjustorThunk
Qog:_InternalEnumerator_1_System_Collections_IEnumerator_Reset_m3677481164_AdjustorThunk
xGf:_OpCode_get_OperandType_m1634816806_AdjustorThunk
h1d:__ZN9Scripting11UnityEngine10Networking23CertificateHandlerProxy12CleanupProxyEv
ooj:__ZNK33X509KeyUsageExtension_t204210159116get__keyUsages_7Ev
HGp:__ZNKSt3__221__basic_string_commonILb1EE20__throw_length_errorEv
p_l:_EqualityComparer_1_System_Collections_IEqualityComparer_Equals_m245992594_gshared
_hl:__Z52RuntimeInvoker_UInt64_t4134040092_Single_t1397266774PFvvEPK10MethodInfoPvPS4_
jnn:__ZNK27MatchCollection_t139536372010get_list_1Ev
cfi:__ZN46RemotingConfiguration_t4113740665_StaticFields19set_applicationID_0EP8String_t
nKf:__ZN31OpCodes_t126150456_StaticFields17set_Prefixref_198E17OpCode_t123070264
Jei:_RealProxy_GetObjectData_m3709348912
qjk:_Array_InternalArray__IndexOf_TisParameterModifier_t1461694466_m1227120810_gshared
R4b:__ZN18GfxFramebufferGLES13ReadbackImageER14ImageReferenceiiiiii
G4n:__ZNK37WWWTranscoder_t272523958_StaticFields16get_lcHexChars_1Ev
tOn:__Z55GameObject_GetComponent_TisText_t1901882714_m2114913816P22GameObject_t1113636619PK10MethodInfo
wdd:__ZN5Unity9rapidjson6WriterI16TempBufferWriterNS0_4UTF8IcEES4_13JSONAllocatorE11WriteStringEPKcj
YFk:__ZNK45MSCompatUnicodeTable_t1453885583_StaticFields20get_ignorableFlags_1Ev
Sff:__ZL95WebRequestUtils_t3541624225_CustomAttributesCacheGenerator_WebRequestUtils_RedirectTo_m55747000P21CustomAttributesCache
Vxa:__ZN6prcoreL12RemapGenericI17TexFormatARGB888815TexFormatRGB565EEvPKNS_9InnerInfoE
ZY:__ZN4FMOD7Channel19setReverbPropertiesEPK29FMOD_REVERB_CHANNELPROPERTIES
oJg:__ZNK31InternalEnumerator_1_t80736363111get_array_0Ev
y9j:_StreamReader_Dispose_m156389394
Jla:__ZN13MonoBehaviour22GetScriptFullClassNameEv
H0o:_il2cpp_object_get_class
nqk:_SymmetricAlgorithm_get_Padding_m1011382560
ZKc:__ZN13ProduceHelperI11MonoManagerLb0EE7ProduceE10MemLabelId18ObjectCreationMode
E5l:_RIPEMD160Managed_JJ_m112143231
Gmm:_List_1_System_Collections_IList_Contains_m727430316_gshared
wOg:_Comparer_1__ctor_m191896560_gshared
jKk:_PreviousInfo_t2148130204_marshal_pinvoke_back
Vyb:__ZNK16MemoryFileSystem9EnumerateEPKcP19dynamic_block_arrayI13FileEntryInfoLj32EEbPPv19FileEnumerationFlag
fUb:__ZN13MonoBehaviour9CallAwakeEv
h7g:_SpriteState_get_pressedSprite_m3868967445
vLj:__ZN37AssemblyDelaySignAttribute_t17644165411set_delay_0Eb
Vuk:__ZN40SecurityElement_t1046076091_StaticFields19set_invalid_chars_8EP22CharU5BU5D_t3528271667
FYa:__ZN20SphericalHarmonicsL211AddWeightedERKS_f
lal:__Z82RuntimeInvoker_RuntimeObject_Int64_t3736567304_Int64_t3736567304_Int64_t3736567304PFvvEPK10MethodInfoPvPS4_
Bwi:__Z41Array_IndexOf_TisRuntimeObject_m828474689P12Il2CppObjectP24ObjectU5BU5D_t2843939325S0_iiPK10MethodInfo
BLb:__Z19TransferField_ArrayI17RemapPPtrTransfer27Converter_SimpleNativeClassI8GUIStyleEEvRK23StaticTransferFieldInfoR31RuntimeSerializationCommandInfoRT0_
SJe:__ZL56AsyncCallback_t3962456242_CustomAttributesCacheGeneratorP21CustomAttributesCache
dqk:__ZNK30SymmetricAlgorithm_t425422308713get_IVValue_1Ev
I6c:__ZN9JSONWrite8TransferI10ColorRGBAfEEvRT_PKc17TransferMetaFlags
W2j:__ZN16VirtFuncInvoker5IiP22ByteU5BU5D_t4116647657iiP22CharU5BU5D_t3528271667iE6InvokeEjP12Il2CppObjectS1_iiS3_i
v_d:__ZN11UnityEngine9Analytics22EventLimitResumedEventC2EjRKN4core12basic_stringIcNS2_20StringStorageDefaultIcEEEEb
zHg:_InternalEnumerator_1__ctor_m3913006324_AdjustorThunk
$la:__Z25scripting_method_get_name18ScriptingMethodPtr
x3l:__ZN22Enumerator_t335023290913set_current_3EP12Il2CppObject
dVi:_SslCipherSuite_ComputeKeys_m661027754
JAj:__ZN21CustomInfo_t43517979828set_DecimalTailSharpDigits_3Ei
VJb:__Z19TransferField_ArrayI14SafeBinaryRead16Converter_StringEvRK23StaticTransferFieldInfoR31RuntimeSerializationCommandInfoRT0_
SPd:__ZN2UI6Canvas8TransferI19StreamedBinaryWriteEEvRT_
VPn:__Z64Component_GetComponent_TisSpriteRenderer_t3235626157_m2253180502P21Component_t1923634451PK10MethodInfo
G7e:__ZL68UpdateCanvasRectTransform_t1832875547_CustomAttributesCacheGeneratorP21CustomAttributesCache
Lci:__Z25Il2CppCodeGenWriteBarrierI34MethodReturnDictionary_t2551046119EvPPT_S2_
rBj:__ZN27NumberFormatter_t118292462122set__isCustomFormat_10Eb
P_i:_Convert_ToBoolean_m481380807
W9i:_Decimal_Equals_m2486655999
svp:_GC_exit_check
mMj:_AssemblyName_SetPublicKeyToken_m582470133
rqh:__ZN16Text_t190188271413set_m_Text_31EP8String_t
chm:__Z58Enumerator_System_Collections_IEnumerator_Reset_m688431936P22Enumerator_t1222580846PK10MethodInfo
hH:__ZN7mecanim9animation9DenseClip8TransferI14SafeBinaryReadEEvRT_
QXm:__ZNK31InternalAsyncResult_t350428282014get__offset_10Ev
bTo:__ZNK30dense_hashtable_const_iteratorINSt3__24pairIK10KeyWrapperINS1_IPK11Il2CppImageP11Il2CppClassEEEjEES9_17ReflectionMapHashIS8_EN14dense_hash_mapIS9_jSD_NS9_14EqualsComparerINS0_8equal_toIS8_EEEENS0_9allocatorISB_EEE9SelectKeyESI_SK_EdeEv
gSg:__Z26Enumerator__ctor_m65667165P22Enumerator_t1957567516P21Dictionary_2_t3384741PK10MethodInfo
p0:__ZNK4PPtrI9AudioClipEcvPS0_Ev
Lka:__Z20UnlockObjectCreationv
BOg:__ZN16VirtFuncInvoker2Ii19Color32_t2600501292S0_E6InvokeEjP12Il2CppObjectS0_S0_
VTn:__ZN28dreamloPromoCode_t332293964211set_error_7EP8String_t
Zgc:__Z34SetupObjectBakedOcclusionInForwardbRK15SharedLightDataRK26SharedLightmapSettingsDataRK15LightmapIndicesR17ShaderPassContext
WNk:_DSAManaged_get_Random_m923751780
uia:__ZL29TransformAccessChangeCallbackPK15TransformAccessj
zfd:__ZL53__ManagedRegistrationHelperFunction_RaycastHit2DProxyPv
qao:_Vector3_set_Item_m1772472431_AdjustorThunk
_wj:_Interpreter_PopulateGroup_m4042796257
zLj:__ZN38AssemblyFileVersionAttribute_t1492797210set_name_0EP8String_t
S8o:__ZN6il2cpp2vm13LivenessState25FieldCanContainReferencesEP9FieldInfo
$qc:__ZNSt3__26vectorINS_4pairIN4core12basic_stringIcNS2_20StringStorageDefaultIcEEEES6_EE13stl_allocatorIS7_L18MemLabelIdentifier38ELi16EEE6insertENS_11__wrap_iterIPKS7_EERSD_
sBh:_RenderPipelineManager_DoRenderLoop_Internal_m3799666479
L4f:__ZNK25TypeTagU5BU5D_t156391866414GetAtUncheckedEj
XK:__ZN9BlobWrite8TransferI22OffsetPtrArrayTransferI9OffsetPtrIN7mecanim12statemachine18StateMachineMemoryEEEEEvRT_PKc17TransferMetaFlags
kun:__ZN14Uri_t10023632414set_userinfo_8EP8String_t
_co:__ZL24UnresolvedVirtualCall_27P12Il2CppObjectS0_aPK10MethodInfo
HJj:_Object_FieldSetter_m3873125190
yh:_emscripten_glStencilOpSeparate
DHm:_Collection_1_System_Collections_IList_IndexOf_m3894953546_gshared
N6l:_RSACryptoServiceProvider_OnKeyGenerated_m863837376
z2m:_PKCS12_get_Certificates_m26161562
Ufj:_NameObjectCollectionBase_Init_m2525481323
lE:__ZN13AnimationClip18GenerateMuscleClipEv
Yfc:__ZN15SkyboxGenerator28GetCubemapSkyboxVertexFormatEv
iDb:__ZN19ShaderPropertySheet24SetTextureWithExplicitIDERK23FastTexturePropertyNameP7Texture9TextureID
JIo:__ZN6il2cpp2os19SocketHandleWrapperC2ERKS1_
$jm:_List_1_Insert_m1582252370_gshared
bqp:__ZN6il2cpp2vm6String8NewUtf16EPKDsi
kcg:_SByte_System_IConvertible_ToByte_m2268214252_AdjustorThunk
ymp:__ZN6il2cpp2os10ThreadImpl12QueueUserAPCEPFvPvES2_
rEc:__ZZN12MeshRenderer15InitializeClassEvEN29FunctorImpl_207kDidModifyMesh4CallEPviR11MessageData
w_d:__ZN22BaseUnityConnectClient10QueueEventERN11UnityEngine15CloudWebService17CloudServiceEventEPKcjb
$hh:_DelegatePInvokeWrapper_RaycastAllCallback_t1884415901
mQm:_ReadOnlyCollection_1_System_Collections_Generic_ICollectionU3CTU3E_Clear_m522482168_gshared
cQj:_DerivedType_IsByRefImpl_m2585680005
uNi:__Z25Il2CppCodeGenWriteBarrierI18Stream_t1273022909EvPPT_S2_
aFh:__ZNK21Matrix4x4_t18179018439get_m21_6Ev
J5c:__Z69Register_UnityEngine_GUILayoutUtility_Internal_GetWindowRect_Injectedv
o7h:_ConstructionCall_InitMethodProperty_m2021094586
JZc:__Z27Texture_CUSTOM_GetDataWidthP12Il2CppObject
tAk:__ZN20Encoding_t152332205624set_is_mail_news_save_12Eb
bHa:__ZN9Scripting11UnityEngine15BoneWeightProxy12CleanupProxyEv
mDc:__ZN23TextureStreamingResultsC2Ev
FHh:__ZN40U3CRegisterU3Ec__AnonStorey0_t240559509015set_messageId_0E6Guid_t
ymd:__ZN7b2World19ContactsCollideTaskEv
H7:__ZN23CloudWebServicesManager25RemoveCloudServiceHandlerEP19CloudServiceHandler
bJd:_UNITY_FT_Hypot
FZh:_MethodDictionary_get_InternalProperties_m321207497
Hdf:__ZL53SpriteAtlas_t646931412_CustomAttributesCacheGeneratorP21CustomAttributesCache
fMl:__ZN21InterfaceFuncInvoker1I26KeyValuePair_2_t1377593753iE6InvokeEjP11Il2CppClassP12Il2CppObjecti
cAm:__Z25Il2CppCodeGenWriteBarrierI19Queue_1_t1200778106EvPPT_S2_
isf:__ZL74CanvasScaler_t2767979955_CustomAttributesCacheGenerator_m_DefaultSpriteDPIP21CustomAttributesCache
Rmp:__ZN6il2cpp5utils9HashUtils18AlignedPointerHashEPv
Zrh:__ZNK26DelegateU5BU5D_t170362784014GetAtUncheckedEj
Rpn:__ZN28CaptureAssertion_t378608458911set_group_2EP25CapturingGroup_t751358689
zg:_emscripten_glGetError
Rzf:__ZN23ILGenerator_t138862234414set_code_len_2Ei
c_:__Z14FMOD_FILE_SeekPvjS_
Cyg:__Z37InternalEnumerator_1__ctor_m236665673P32InternalEnumerator_1_t1391455104P11Il2CppArrayPK10MethodInfo
CGo:__ZN14dense_hash_mapI10KeyWrapperIPK11Il2CppClassEPKcN6il2cpp5utils11PointerHashIS1_EENS4_14EqualsComparerINSt3__28equal_toIS3_EEEENSC_9allocatorINSC_4pairIKS4_S6_EEEEE3endEv
Aeh:_MaskableGraphic_OnDisable_m1757789159
O1h:__ZN39ClientContextTerminatorSink_t406411502114set__context_0EP19Context_t3285446944
d_a:__ZN7TextureC2E10MemLabelId18ObjectCreationMode
A9g:_LayoutGroup__ctor_m2162961217
b$d:__Z56Register_UnityEngine_Analytics_CustomEventData_AddStringv
B5k:_ValueType_t3640485471_marshal_pinvoke_cleanup
unc:__ZNK13RenderTexture32CalculateNeedsInvertedProjectionEv
ntc:__ZN10systeminfo18GetOperatingSystemEv
Im:emscriptenWebGLGet
Ucp:__ZN14dense_hash_mapI10KeyWrapperINSt3__24pairIPKcS4_EEEi24NamespaceAndNamePairHashNS6_14EqualsComparerI26NamespaceAndNamePairEqualsEENS1_9allocatorINS2_IKS6_iEEEEED2Ev
voa:__Z19CanReplaceComponentRN5Unity9ComponentEPKNS_4TypeEPN4core12basic_stringIcNS5_20StringStorageDefaultIcEEEE
Ick:_UnmanagedMemoryStream_Flush_m1540584491
dNa:__ZN14SafeBinaryRead8TransferIN10GameObject13ComponentPairEEEvRT_PKc17TransferMetaFlags
YVh:__ZN25ReturnMessage_t137698560816set__exception_6EP11Exception_t
Gqe:__ZN17Color_t25556863247set_r_0Ef
n1j:_GuidParser_ParseGuid2_m1914838819
DFc:__ZN12CubemapArray11InitTextureEiii13TextureFormatb
hRc:__Z17GetSceneBuildInfoRKN4core12basic_stringIcNS_20StringStorageDefaultIcEEEEiR14SceneBuildInfo
Tnm:_List_1_System_Collections_IList_get_Item_m1112579679_gshared
jPe:__ZL70ReliabilityContractAttribute_t502331440_CustomAttributesCacheGeneratorP21CustomAttributesCache
Qmg:_InternalEnumerator_1_System_Collections_IEnumerator_get_Current_m55999184_gshared
xIj:__ZN19MulticastDelegate_t15set_kpm_next_10EPS_
Pzl:__Z57RuntimeInvoker_RaycastHit2D_t2279581989_Int32_t2950945753PFvvEPK10MethodInfoPvPS4_
vvp:_GC_print_all_errors
SQo:__ZN24dense_hashtable_iteratorINSt3__24pairIK10KeyWrapperIPK10Il2CppTypeEjEES6_N6il2cpp8metadata14Il2CppTypeHashEN14dense_hash_mapIS6_jSB_NS6_14EqualsComparerINSA_26Il2CppTypeEqualityComparerEEENS0_9allocatorIS8_EEE9SelectKeyESF_SH_E30advance_past_empty_and_deletedEv
a3n:_DownloadHandlerBuffer_GetData_m752341367
WMk:_BitConverterLE_GetULongBytes_m1393773100
A2k:_UInt32_Parse_m3755665066
Bze:_Graphic_get_depth_m815589653
Fbi:__ZN29MonoMethodMessage_t28076369449set_uri_8EP8String_t
Dpe:_ContentSizeFitter_get_horizontalFit_m2773126143
IBh:_SupportedRenderingFeatures_FallbackMixedLightingModeByRef_m3859171964
wL:__ZN7mecanim5human13HumanFixTwistEPKNS0_5HumanEPNS_8skeleton13SkeletonPoseTIN4math4trsXEEES9_iiRKf
Mgc:__ZL24AssignProjectorQueuesJobP30AssignProjectorQueuesJobHeader
PQj:__ZNK25DynamicMethod_t253777957013get_method_15Ev
o9l:_KeyValuePair_2_get_Key_m1218836954_gshared
Peo:__ZL25UnresolvedVirtualCall_124P12Il2CppObjectPK10MethodInfo
RSf:_ParameterModifier_t1461694466_marshal_pinvoke
XDg:__Z44InternalEnumerator_1_get_Current_m1007906068P32InternalEnumerator_1_t1629489814PK10MethodInfo
Azc:__ZNSt3__26vectorIN9ShaderLab20SerializedSubProgram15StructParameterENS_9allocatorIS3_EEE21__push_back_slow_pathIS3_EEvOT_
jyj:_Int16_System_IConvertible_ToUInt32_m3410279543
XD:__ZNK21AnimationHandleBinder36CreateAnimationStreamHandlesBindingsEv
nzc:__ZN9ShaderLab20SerializedSubProgram14SetConstBufferEPKci
qMn:__ZNK35U3CRepeatU3Ec__Iterator1_t73464693620get_U3CindexU3E__1_1Ev
UNo:__ZN6il2cpp2os4File5CloseEPNS0_10FileHandleEPi
IOd:__ZN31CanvasBatchIntermediateRenderer15AddAsRenderNodeER15RenderNodeQueueRK20DeprecatedSourceData
ZUf:__ZN26ResourceReader_t330049263915set_formatter_2EP12Il2CppObject
qTh:_Touch_get_fingerId_m859576425_AdjustorThunk
$Xk:_Thread_GetDomain_m1615404259
ggn:__ZNK26GUILayoutGroup_t215778969522get_m_ChildMaxWidth_23Ev
uvl:__Z48RuntimeInvoker_Boolean_t97287965_Link_t544317964PFvvEPK10MethodInfoPvPS4_
a7h:__ZNK28ConstructionCall_t401159474522get__activationType_15Ev
bCd:_cf2_getStdVW
Rpm:_List_1_System_Collections_ICollection_CopyTo_m2688165607_gshared
avl:__Z53RuntimeInvoker_UIVertex_t4057497605_Int32_t2950945753PFvvEPK10MethodInfoPvPS4_
p2k:_UInt16_CompareTo_m2664746316_AdjustorThunk
zOl:_ValueCollection_GetEnumerator_m616748621_gshared
ZCn:__ZN16VirtFuncInvoker1Ib17Score_t1179825972E6InvokeEjP12Il2CppObjectS0_
rJn:__ZNK25TweenRunner_1_t352024108213get_m_Tween_1Ev
szb:__ZN9GfxDevice13SetActiveTierE12GraphicsTier
W3n:__ZNK26UnityWebRequest_t46350780656get_U3CdisposeUploadHandlerOnDisposeU3Ek__BackingField_7Ev
wbd:__Z29Transfer_Blittable_ArrayFieldI8JSONReadjEvRT_R9ArrayInfoRK23StaticTransferFieldInfo
NVd:__ZN11UnityEngine9Analytics15DeviceInfoEvent7GFXInfoD2Ev
yvp:_GC_check_finalizer_nested
HOb:__Z18Transfer_BlittableI19StreamedBinaryWriteLb0E8Vector4fEvRK29SerializationCommandArgumentsR31RuntimeSerializationCommandInfo
Ne:__setLetterbox
z3a:__ZNSt3__26vectorI13dynamic_arrayI8Vector2fLj0EENS_9allocatorIS3_EEEC2INS_11__wrap_iterIPS3_EEEET_SB_RKS5_PNS_9enable_ifIXaasr21__is_forward_iteratorISB_EE5valuesr16is_constructibleIS3_NS_15iterator_traitsISB_E9referenceEEE5valueEvE4typeE
Tkh:_ScrollRect_OnScroll_m3861066534
Fhn:__ZN19GUISkin_t124437228217set_m_textArea_10EP20GUIStyle_t3956901511
Jdk:_Array_InternalArray__ICollection_Contains_TisResourceCacheItem_t51292791_m2991582559_gshared
$qo:__ZN27ContactFilter2D_t380520344127set_useOutsideNormalAngle_5Eb
tIn:_U3CStartU3Ec__Iterator0_MoveNext_m524356752_gshared
k4l:__ZNK21HashSet_1_t164505563811get_links_5Ev
rAn:__ZNK51U3CCreateWhereIteratorU3Ec__Iterator1D_1_t23012983312get_source_0Ev
bdf:__ZL72FormerlySerializedAsAttribute_t2859083114_CustomAttributesCacheGeneratorP21CustomAttributesCache
pon:_PatternCompiler_EmitFastRepeat_m3012952683
vib:__ZNSt3__26vectorI17BlendShapeChannelNS_9allocatorIS1_EEE6assignINS_11__wrap_iterIPS1_EEEENS_9enable_ifIXaasr21__is_forward_iteratorIT_EE5valuesr16is_constructibleIS1_NS_15iterator_traitsISA_E9referenceEEE5valueEvE4typeESA_SA_
Zgi:_StrongName__ctor_m3939359439
oZb:__Z12SetGfxDeviceP9GfxDevice
EBo:__ZNK10KeyWrapperIPK17Il2CppGenericInstE8isNormalEv
ufo:__ZL25UnresolvedVirtualCall_157P12Il2CppObjectiPK10MethodInfo
eQc:__ZN22AnimationCurveBindings7SetKeysEP17AnimationCurveTplIfERK13dynamic_arrayI11KeyframeTplIfELj0EE
gtc:__ZN11TimeManager11GetRealtimeEv
dJh:_Object_GetHashCode_m1944636947
k3j:_BinaryReader_ReadUInt32_m2210658763
Xcm:_Enumerator_Dispose_m3500272053_gshared
y_:__ZN29AudioEffectInternalDefinitionC2EP26UnityAudioEffectDefinitionb
nVm:_ReadOnlyCollection_1_System_Collections_IList_Remove_m2434650390_gshared
mzo:__ZN14dense_hash_mapI10KeyWrapperIP9FieldInfoEiN6il2cpp5utils11PointerHashIS1_EENS3_14EqualsComparerINSt3__28equal_toIS2_EEEENS9_9allocatorINS9_4pairIKS3_iEEEEED2Ev
uZg:_ShimEnumerator_get_Value_m1878724567_gshared
MTl:_Dictionary_2_System_Collections_Generic_ICollectionU3CSystem_Collections_Generic_KeyValuePairU3CTKeyU2CTValueU3EU3E_Contains_m2803718146_gshared
EUj:_CultureInfo_get_IcuName_m2258611679
ugh:__ZNK35RectangularVertexClipper_t62661113620get_m_WorldCorners_0Ev
ind:__ZN35b2SynchronizeContinuousFixturesTaskD2Ev
l$o:__ZNSt3__2plIcNS_11char_traitsIcEENS_9allocatorIcEEEENS_12basic_stringIT_T0_T1_EERKS9_PKS6_
kHh:__ZN40PlayerEditorConnectionEvents_t341178751321set_connectionEvent_1EP33ConnectionChangeEvent_t3251856151
eXe:__ZL77Convert_t2465617642_CustomAttributesCacheGenerator_Convert_ToInt64_m260173354P21CustomAttributesCache
Afl:__Z110RuntimeInvoker_Void_t1185182177_RuntimeObject_StreamingContext_t3711869237_Int32_t2950945753_Int32_t2950945753PFvvEPK10MethodInfoPvPS4_
Q5a:_stbir_resize
gik:_Array_IndexOf_TisCustomAttributeTypedArgument_t2723150157_m3158556463_gshared
vZl:_EqualityComparer_1_System_Collections_IEqualityComparer_GetHashCode_m360549782_gshared
Cr:__GLOBAL__sub_I_AnimationScriptingClasses_cpp
iRj:_Environment_GetOSVersionString_m407782784
YBk:_DecoderExceptionFallback_Equals_m1082173956
T0l:_EqualityComparer_1_System_Collections_IEqualityComparer_GetHashCode_m345188086_gshared
LRf:__ZNK28MonoPropertyInfo_t308735606612get_parent_0Ev
jug:__ZNK32InternalEnumerator_1_t38580098709get_idx_1Ev
ENe:__ZL69Assembly_t_CustomAttributesCacheGenerator_Assembly_GetName_m981771927P21CustomAttributesCache
FUo:__ZN15dense_hashtableINSt3__24pairIK10KeyWrapperINS1_IPK12PropertyInfoP11Il2CppClassEEEjEES9_17ReflectionMapHashIS8_EN14dense_hash_mapIS9_jSD_NS9_14EqualsComparerINS0_8equal_toIS8_EEEENS0_9allocatorISB_EEE9SelectKeyESI_SK_E5clearEv
I5e:__ZL93Mesh_t3648964284_CustomAttributesCacheGenerator_Mesh_GetAllocArrayFromChannelImpl_m3084065604P21CustomAttributesCache
pgb:__ZN4PPtrI4MeshE8TransferI14SafeBinaryReadEEvRT_
Bjd:__ZN24b2ChainAndCapsuleContact6CreateEP9b2FixtureiS1_iP16b2BlockAllocator
Bab:__ZN13dynamic_arrayI29StreamingTextureFinalMipLevelLj0EE18resize_initializedEjRKS0_12ResizePolicy
jxb:__Z37ReadDirectoryInfo_UnityWebAndUnityRawR12FileAccessorRKN20ArchiveStorageHeader6HeaderERNS1_13DirectoryInfoE
Kia:__ZNSt3__26__treeINS_12__value_typeIPKciEENS_19__map_value_compareIS3_S4_15compare_tstringIS3_ELb1EEENS_9allocatorIS4_EEE7destroyEPNS_11__tree_nodeIS4_PvEE
qDl:_Array_InternalArray__Insert_TisIntPtr_t_m189626842_gshared
hqj:_X509Certificate2_get_IssuerName_m1277209535
SQe:__ZL52LeaseState_t747101024_CustomAttributesCacheGeneratorP21CustomAttributesCache
_Dk:_Locale_GetText_m3374010885
zLm:_Collection_1_System_Collections_IEnumerable_GetEnumerator_m1598238343_gshared
Q7l:_RijndaelManaged_CreateEncryptor_m263736311
oXk:_WaitCallback__ctor_m1893321019
wBf:__ZNK21LabelFixup_t85850205415get_label_idx_2Ev
xMa:__ZN17GlobalGameManager23VirtualRedirectTransferER18StreamedBinaryRead
Fdc:__ZN20DynamicPropertySheet14SetValueQueuedEN9ShaderLab16FastPropertyNameEN19ShaderPropertySheet12PropertyTypeEjNS2_8SetFlagsE
$2f:__ZNK27BaseFixupRecord_t318565345622get_NextSameRequired_3Ev
_yh:_InvokableCallList_ClearPersistent_m1904264973
nVb:__ZN25PathNamePersistentManagerD2Ev
$nb:__ZN17PersistentManager48IntegrateObjectAndUnlockIntegrationMutexInternalEi
vbf:__ZL85NativeDisableUnsafePtrRestrictionAttribute_t2582701661_CustomAttributesCacheGeneratorP21CustomAttributesCache
lwa:__ZZ29InitializeSortingGroupManagerPvEN44PostLateUpdateSortingGroupsUpdateRegistrator7ForwardEv
Rlf:__ZL55EventTrigger_t1076084509_CustomAttributesCacheGeneratorP21CustomAttributesCache
Yuk:_SecurityElement_SearchForChildByTag_m900466299
Xp:__ZN6Object12SetHideFlagsENS_9HideFlagsE
Jid:__ZN9b2Fixture11SynchronizeEP12b2BroadPhaseRK11b2TransformS4_
Ijn:__ZN22TextEditor_t275985536621set_isPasswordField_5Eb
L3i:_Convert_ToSingle_m3227075028
f2h:__ZNK19Context_t328544694422get_callback_object_13Ev
Jmc:__ZN13RendererScene15InitializeUmbraEv
C7f:__ZN46U3CRegisterObjectU3Ec__AnonStorey3_t35165111439set_obj_1EP12Il2CppObject
vWa:__Z28CalculateGlobalMatrixInverse23TransformAccessReadOnly
wGh:_MonoBehaviour__ctor_m1579109191
djf:__ZL59GUITargetAttribute_t25796337_CustomAttributesCacheGeneratorP21CustomAttributesCache
E2l:_GenericEqualityComparer_1_Equals_m3457564127_gshared
GCi:_BigInteger_ModInverse_m2426215562
Sua:__ZN17CallbackArrayBaseIPFvPK9IndexListPK16RendererCullDataEPFvPKvS2_S5_EE8RegisterES7_SB_S9_
Wu:__ZN7mecanim9animation21CreateAvatarWorkspaceEPKNS0_14AvatarConstantER20RuntimeBaseAllocator
X2b:__ZN4gles15UpdateDepthTestER15DeviceStateGLESPK20DeviceDepthStateGLESb
UBk:_DecoderExceptionFallback__ctor_m4044614564
nqh:__ZN40StencilMaterial_t3850132571_StaticFields12set_m_List_0EP17List_1_t134214538
Wug:_InternalEnumerator_1_System_Collections_IEnumerator_Reset_m3011999097_AdjustorThunk
fPg:__ZN16VirtFuncInvoker2Ii20UIVertex_t4057497605S0_E6InvokeEjP12Il2CppObjectS0_S0_
SWh:__ZN16VirtFuncInvoker1IP11Il2CppArrayP6Type_tE6InvokeEjP12Il2CppObjectS3_
Zbe:__Z33EventFunction_1__ctor_m1181351694P27EventFunction_1_t3995630009P12Il2CppObjectiPK10MethodInfo
e2o:__ZN6il2cpp2vm6Thread17FullMemoryBarrierEv
CEj:_LocalDataStoreSlot__cctor_m644942532
nBp:__ZN6il2cpp6icalls8mscorlib6System6Object7GetTypeEP12Il2CppObject
yRf:_MonoProperty_CachePropertyInfo_m2968057423
o1d:__ZNK25UnityWebRequestJavaScript18GetDownloadedBytesEv
RMh:_Ray_GetPoint_m1852405345_AdjustorThunk
DLe:__ZL53RegionInfo_t1090270226_CustomAttributesCacheGeneratorP21CustomAttributesCache
tEf:__ZN18VirtActionInvoker1I17OpCode_t123070264E6InvokeEjP12Il2CppObjectS0_
KGe:__ZL74Single_t1397266774_CustomAttributesCacheGenerator_Single_IsNaN_m4024467661P21CustomAttributesCache
Y8j:__ZN29Path_t1605229823_StaticFields21set_dirEqualsVolume_7Eb
z1d:__ZN12HeaderHelper14SetUnvalidatedERKN4core12basic_stringIcNS0_20StringStorageDefaultIcEEEES6_b
EY:__ZN4FMOD6SoundI7releaseEv
vgb:__ZN14SpriteRenderer13AwakeFromLoadE17AwakeFromLoadMode
DDd:_cff_parse_num
Lxb:__ZN10MemoryFile9SetLengthEy
GNb:__ZN5RectTIiE8TransferI24GenerateTypeTreeTransferEEvRT_
vhd:__ZNK15b2RevoluteJoint10GetAnchorBEv
wTj:_Exception_get_ClassName_m2428844642
JUb:__Z28scripting_class_is_interface17ScriptingClassPtr
kl:_glTexStorage2D
SGc:__ZN15QualitySettings15InitializeClassEv
gIf:__ZN31OpCodes_t126150456_StaticFields15set_Stind_I4_83E17OpCode_t123070264
VWi:_SyncHashtable_get_Item_m2686606216
H0a:__ZNK9ShaderLab10SubProgram14EnsureCompiledEv
vDf:_MethodBuilder_GetGenericArguments_m1765425737
C7i:_DateTime_CompareTo_m3687348273
VOj:__ZN23DerivedType_t428630201317set_elementType_8EP6Type_t
_9l:_KeyValuePair_2_get_Key_m2065642340_gshared
a8i:_DateTime_ToUniversalTime_m1945318289_AdjustorThunk
i4l:__Z25Il2CppCodeGenWriteBarrierI22LinkU5BU5D_t1236856784EvPPT_S2_
R8d:__Z26List_1_Contains_m403158780P18List_1_t1327982029P25BaseRaycaster_t4150874583PK10MethodInfo
pdj:_Enum_t4135868527_marshal_pinvoke
z2i:_Convert_ToInt16_m1336719169
Rla:__Z18BuildScriptClassId17ScriptingClassPtr
slo:_CanvasRenderer_CreateUIVertexStreamInternal_m543814397
MQk:_RSAManaged_Finalize_m3915335854
F3g:__ZN22InputField_t376291743134get_address_of_m_SelectionColor_35Ev
Up:__ZNK16LevelGameManager7GetNameEv
TLo:__ZNKSt3__26vectorIN6il2cpp6icalls8mscorlib6System12PropertyPairENS_9allocatorIS5_EEE8max_sizeEv
XTf:_TypeDelegator_GetElementType_m4265261164
gbn:_TextEditor_Cut_m1289908069
uvb:__ZL31DeleteLastPathNameComponentImplRKN4core12basic_stringIcNS_20StringStorageDefaultIcEEEEPKc
Y5i:_DBNull_System_IConvertible_ToUInt64_m4072736670
sVd:__ZN18UnityConnectClient15GetCloudServiceEv
qJb:__Z29Transfer_Blittable_ArrayFieldI14SafeBinaryRead5RectTIiEEvRT_R9ArrayInfoRK23StaticTransferFieldInfo
Gwg:_InternalEnumerator_1_get_Current_m2698009637_gshared
CIo:__ZN6il2cpp2os19SocketHandleWrapperD2Ev
PHh:_U3CAddAndCreateU3Ec__AnonStorey1__ctor_m1186055370
fjd:__ZN15b2CircleContact6CreateEP9b2FixtureiS1_iP16b2BlockAllocator
EUb:__ZL28SerializationCommandGroupForRK31TransferFunctionScriptingTraits17ScriptingClassPtr17ScriptingFieldPtrRK20CoreScriptingClasses
ULa:__ZN10TagManager32RegisterDefaultTagsAndLayerMasksEv
sRi:__ZN24TlsClientHello_t9796599812set_random_9EP22ByteU5BU5D_t4116647657
tum:_List_1_System_Collections_IList_get_IsReadOnly_m1729002068_gshared
nhl:__Z50RuntimeInvoker_Double_t594665363_Int32_t2950945753PFvvEPK10MethodInfoPvPS4_
lBn:_Predicate_1_EndInvoke_m1490920825_gshared
MYe:__ZL78LoaderOptimization_t1484956347_CustomAttributesCacheGenerator_DisallowBindingsP21CustomAttributesCache
NTl:_Dictionary_2_System_Collections_Generic_ICollectionU3CSystem_Collections_Generic_KeyValuePairU3CTKeyU2CTValueU3EU3E_CopyTo_m3122240003_gshared
esl:__Z104RuntimeInvoker_Void_t1185182177_Color_t2555686324_Single_t1397266774_SByte_t1669577662_SByte_t1669577662PFvvEPK10MethodInfoPvPS4_
Otm:_List_1_Remove_m3853969205_gshared
dhm:_Enumerator_System_Collections_IEnumerator_get_Current_m1540440674_gshared
Ewk:_Single_System_IConvertible_ToInt16_m809233024_AdjustorThunk
d$d:__Z56Register_UnityEngine_Analytics_CustomEventData_AddUInt32v
NEp:_fmodf
SSf:__ZNK29ParameterModifier_t146169446612get__byref_0Ev
tvd:__Z75Register_UnityEngine_Physics2D_GetRayIntersectionNonAlloc_Internal_Injectedv
W1b:__ZN4gles8InitCapsEP7ApiGLESP12GraphicsCapsR16GfxDeviceLevelGL
cS:__ZN4PPtrI13MonoBehaviourE8TransferI18StreamedBinaryReadEEvRT_
Y$b:__ZN13GfxDeviceGLES22GetNativeBufferPointerEP9GfxBuffer
U4f:__ZNK24ObjectReader_t194095739224get__typeMetadataCache_6Ev
oYa:__Z24CalculateVertexLightDataRK15SharedLightDataR14GfxVertexLight
Vj:_glEnable
ZTo:__ZN15dense_hashtableINSt3__24pairIK10KeyWrapperINS1_IPK12PropertyInfoP11Il2CppClassEEEjEES9_17ReflectionMapHashIS8_EN14dense_hash_mapIS9_jSD_NS9_14EqualsComparerINS0_8equal_toIS8_EEEENS0_9allocatorISB_EEE9SelectKeyESI_SK_E15insert_noresizeERKSB_
UCg:_InternalEnumerator_1_MoveNext_m973048327_gshared
q1n:_VertexHelper_Clear_m627349662
D0a:__ZNK9ShaderLab7Program28BeginReadUnsupportedVariantsEv
gJa:__ZN12CachedWriter11Align4WriteEv
oQn:__ZNK29LeaderBoardSample_t22022523699get_dl_12Ev
Omb:__ZNSt3__26vectorIN30RuntimeInitializeOnLoadManager9ClassInfoE13stl_allocatorIS2_L18MemLabelIdentifier13ELi16EEE7reserveEj
fxn:__ZNK21UriParser_t389015040017get_scheme_name_2Ev
U6c:__Z35Transfer_Blittable_FixedBufferFieldI9JSONWriteiEvRK29SerializationCommandArgumentsR31RuntimeSerializationCommandInfo
Hnp:__ZN14dense_hash_mapI10KeyWrapperIPK19Il2CppGenericMethodEP10MethodInfoN6il2cpp8metadata23Il2CppGenericMethodHashENS4_14EqualsComparerINS8_26Il2CppGenericMethodCompareEEENSt3__29allocatorINSD_4pairIKS4_S6_EEEEED2Ev
Pno:_HumanBone_t2465339518_marshal_pinvoke_cleanup
j0g:__ZN22InputField_t376291743120set_m_ContentType_22Ei
pto:__ZN41RequiredByNativeCodeAttribute_t413084635735set_U3COptionalU3Ek__BackingField_0Eb
g3l:_Enumerator__ctor_m1590062855_AdjustorThunk
vYo:__ZN14dense_hash_mapI10KeyWrapperINSt3__24pairIPK10MethodInfoP11Il2CppClassEEEj17ReflectionMapHashIS8_ENS9_14EqualsComparerINS1_8equal_toIS8_EEEENS1_9allocatorINS2_IKS9_jEEEEEC2EjRKSB_RKSF_
WXb:__ZN19RuntimeSceneManager11CreateSceneEv
jB:__ZN26AnimatorControllerPlayable17ProcessRootMotionEP35AnimationPlayableEvaluationConstantP32AnimationPlayableEvaluationInputP33AnimationPlayableEvaluationOutput
YQb:__Z18Transfer_BlittableI18StreamedBinaryReadLb1E10Matrix4x4fEvRK29SerializationCommandArgumentsR31RuntimeSerializationCommandInfo
G$g:__ZN16VirtFuncInvoker2I26KeyValuePair_2_t2401056908P12Il2CppObjectiE6InvokeEjS2_S2_i
XRe:__ZL54SoapServices_t133988723_CustomAttributesCacheGeneratorP21CustomAttributesCache
Jif:__ZL102GUIStyle_t3956901511_CustomAttributesCacheGenerator_GUIStyle_Internal_DrawWithTextSelection_m628777321P21CustomAttributesCache
gJl:_Component_GetComponents_TisRuntimeObject_m2416546752_gshared
XWm:__ZNK28SslHandshakeHash_t210758177217get_outerPadMD5_9Ev
ack:_UnexceptionalStreamReader_Peek_m1842169584
CGk:__ZN47MSCompatUnicodeTableUtil_t88013251_StaticFields12set_CjkCHS_5EP28CodePointIndexer_t4134431086
BJn:__Z25Il2CppCodeGenWriteBarrierI24ObjectPool_1_t4122643707EvPPT_S2_
j3g:__ZNK22InputField_t376291743119get_m_CaretWidth_38Ev
YAm:_Queue_1_System_Collections_IEnumerable_GetEnumerator_m3464578225_gshared
vco:_TypeInferenceRuleAttribute__ctor_m2736695831
Jth:_Bounds_GetHashCode_m1844059663_AdjustorThunk
quk:__ZNK27WindowsIdentity_t294824240611get__name_4Ev
Vym:__ZN21InterfaceFuncInvoker0I17Score_t1179825972E6InvokeEjP11Il2CppClassP12Il2CppObject
vqf:__ZL66Navigation_t3049316579_CustomAttributesCacheGenerator_m_SelectOnUpP21CustomAttributesCache
Boj:__ZNK25OidCollection_t423476684411get__list_0Ev
q5f:_BinaryFormatter_NoCheckDeserializeMethodResponse_m1919376975
Gbo:_Vector4_Equals_m1779210055_AdjustorThunk
rt:__ZN9Scripting11UnityEngine14HumanBoneProxy12CleanupProxyEv
U4i:_Convert_ChangeType_m739676612
k2o:__ZN14dense_hash_mapI10KeyWrapperINSt3__24pairIP11Il2CppClassjEEES4_N6il2cpp8metadata14ArrayClassHashENS6_14EqualsComparerINS8_17ArrayClassCompareEEENS1_9allocatorINS2_IKS6_S4_EEEEED2Ev
S7b:__ZN20ArchiveStorageReader10InitializeER15FileSystemEntryyb
mGp:_atol
Vmn:__ZNK30Match_t3408321083_StaticFields12get_empty_10Ev
Hvk:__ZNK36RuntimeDeclSecurityEntry_t314446915610get_blob_0Ev
MLd:_New_Profile
rOm:_ReadOnlyCollection_1_GetEnumerator_m3690861713_gshared
qLk:_ModulusRing_BarrettReduction_m167376748
uYh:_RemotingServices_GetRealProxy_m2081098851
ZVo:__ZNK30dense_hashtable_const_iteratorINSt3__24pairIK10KeyWrapperINS1_IPK9EventInfoP11Il2CppClassEEEjEES9_17ReflectionMapHashIS8_EN14dense_hash_mapIS9_jSD_NS9_14EqualsComparerINS0_8equal_toIS8_EEEENS0_9allocatorISB_EEE9SelectKeyESI_SK_EeqERKSN_
nNk:_BlockProcessor_Core_m189015002
kzo:__ZN15dense_hashtableINSt3__24pairIK10KeyWrapperIPKcEP11Il2CppClassEES5_N6il2cpp5utils11StringUtils12StringHasherIS4_EEN14dense_hash_mapIS5_S8_SE_NS5_14EqualsComparerINSB_13VmStringUtils21CaseSensitiveComparerEEENS0_9allocatorIS9_EEE9SelectKeyESJ_SL_EC2EjRKSE_RKSJ_RKSN_
zSp:_emscripten_glScissor__wrapper
So:FUNCTION_TABLE_viifi
Mo:FUNCTION_TABLE_viiff
lDe:__ZN42HorizontalOrVerticalLayoutGroup_t72972557042get_address_of_m_ChildForceExpandHeight_14Ev
X1k:_UInt16_System_IConvertible_ToDouble_m333121300_AdjustorThunk
lji:__ZNK26X509Certificate_t48924302416get_signature_11Ev
Mmf:__ZL102PointerEventData_t3807901092_CustomAttributesCacheGenerator_PointerEventData_set_lastPress_m2928324031P21CustomAttributesCache
KLk:_PrimalityTests_Test_m2932837908
eJe:__ZL37Type_t_CustomAttributesCacheGeneratorP21CustomAttributesCache
dKd:_UNITY_tt_face_free_hdmx
Gld:__ZNSt3__26__sortIRN18Overlap2DQueryBase29ColliderHitsByDepthComparitorEPP10Collider2DEEvT0_S7_T_
tBo:__ZNK30dense_hashtable_const_iteratorI10KeyWrapperIPK17Il2CppGenericInstES4_N6il2cpp8metadata21Il2CppGenericInstHashEN14dense_hash_setIS4_S7_NS4_14EqualsComparerINS6_24Il2CppGenericInstCompareEEENSt3__29allocatorIS4_EEE8IdentityESB_SE_EdeEv
guh:_Bounds_ToString_m4208690781
E2o:__ZN15dense_hashtableINSt3__24pairIK10KeyWrapperINS1_IP11Il2CppClassjEEES4_EES6_N6il2cpp8metadata14ArrayClassHashEN14dense_hash_mapIS6_S4_SB_NS6_14EqualsComparerINSA_17ArrayClassCompareEEENS0_9allocatorIS8_EEE9SelectKeyESF_SH_E5clearEv
Ybl:__Z88RuntimeInvoker_RuntimeObject_RuntimeObject_RuntimeObject_Int32_t2950945753_RuntimeObjectPFvvEPK10MethodInfoPvPS4_
oyo:__ZNSt3__218uninitialized_copyIPNS_4pairIK10KeyWrapperIPK11Il2CppClassEPKcEESB_EET0_T_SD_SC_
SZo:__ZN6il2cpp2vm14TypeNameParser5ParseEb
Lvp:_GC_grow_table
c4e:__ZL100GameObject_t1113636619_CustomAttributesCacheGenerator_GameObject_SendMessage_m3720186693____options2P21CustomAttributesCache
dak:_StreamWriter_Initialize_m3490883444
bzj:__ZNK27NumberFormatter_t118292462111get__ind_24Ev
f1k:_Type_GetGenericArguments_m3500465462
DHo:__ZN15dense_hashtableINSt3__24pairIK10KeyWrapperIP9FieldInfoEiEES5_N6il2cpp5utils11PointerHashIS3_EEN14dense_hash_mapIS5_iSB_NS5_14EqualsComparerINS0_8equal_toIS4_EEEENS0_9allocatorIS7_EEE9SelectKeyESG_SI_E12resize_deltaEjj
g$g:__ZN16VirtFuncInvoker2IP12Il2CppObjectS1_bE6InvokeEjS1_S1_b
F0d:__ZN23UnityPurchasingSettingsC2Ev
WOf:_Module_IsDefined_m2423524910
WRh:_Sprite__ctor_m332781120
b6j:_FileStream_EndRead_m3904255625
ohf:__ZL60EventType_t3528516131_CustomAttributesCacheGenerator_repaintP21CustomAttributesCache
IQa:__ZN17GPUFenceInternals7ReleaseEv
irf:__ZL66Selectable_t3250028441_CustomAttributesCacheGenerator_m_NavigationP21CustomAttributesCache
vUf:_ResolveEventHandler__ctor_m1911137231
NNc:__ZN17MaterialScripting18CreateWithMaterialE21ScriptingObjectOfTypeI8MaterialEPS1_
TRb:__ZN8Gradient8TransferI18StreamedBinaryReadEEvRT_
pMl:_Transform_1_Invoke_m2276349830_gshared
vnc:__ZL10RenderFaceR9GfxDeviceR18MaterialStateCacheP13RenderTextureiif
jln:_Interval_get_IsEmpty_m2731597232_AdjustorThunk
eik:_Array_IndexOf_TisCustomAttributeNamedArgument_t287865710_m2817957199_gshared
Oog:__Z37InternalEnumerator_1__ctor_m619554185P32InternalEnumerator_1_t4116331090P11Il2CppArrayPK10MethodInfo
stl:__Z31RuntimeInvoker_Axis_t3613393006PFvvEPK10MethodInfoPvPS4_
sVj:__ZN23CultureInfo_t415784306815set_win3lang_24EP8String_t
lBp:__ZNKSt3__26__treeINS_12__value_typeIPFvvEPK10MethodInfoEENS_19__map_value_compareIS3_S7_NS_4lessIS3_EELb1EEENS_9allocatorIS7_EEE10__root_ptrEv
I0m:_ExtendedKeyUsageExtension_ToString_m2116504780
Oqb:__ZNK5Unity9Component38MarkGameObjectAndComponentDependenciesER27GarbageCollectorThreadState
lQn:__ZNK29LeaderBoardSample_t22022523699get_gs_11Ev
T2j:_BinaryReader_Read_m3708759962
fng:_InternalEnumerator_1__ctor_m3349908318_AdjustorThunk
u3:__ZNK7Texture21GetShadowSamplingModeEv
qma:__ZNK11TypeManager15ClassNameToRTTIEPKcb
Hmn:__ZN17Match_t340832108313set_machine_7EP12Il2CppObject
B1b:__ZN9GfxDevice26CreateDefaultVertexBuffersEv
eze:__Z36Dictionary_2_TryGetValue_m3280491376P24Dictionary_2_t2296117448P18Canvas_t3310196443PP24IndexedSet_1_t3109723551PK10MethodInfo
L7l:__ZNK41RijndaelTransform_t631222241_StaticFields11get_SBox_17Ev
Y3d:__ZN13RuntimeStaticINSt3__26vectorIPN5physx15PxVehicleWheelsENS0_9allocatorIS4_EEEELb0EE13StaticDestroyEPv
ebk:_SynchronizedReader_ReadToEnd_m2160105378
_tb:__ZN12HandlerChain19InitializeFileEntryER13FileEntryData
t7a:__ZN4crnd12symbol_codec32decode_receive_static_data_modelERNS_25static_huffman_data_modelE
KDc:__ZN18ScriptingArguments8AddFloatEf
Vmj:__ZN20WebProxy_t201676054216set_bypassList_2EP21ArrayList_t2718874744
cEe:_Image_set_fillOrigin_m469806249
vgo:__ZL25UnresolvedVirtualCall_212P12Il2CppObject20UICharInfo_t75501106S1_PK10MethodInfo
Ump:__ZN6il2cpp2vmL24HexValueToLowercaseAsciiEh
qfn:_GUILayout_BeginHorizontal_m276262640
RWd:__ZN11UnityEngine15PlatformWrapper16GetVRRenderScaleEv
Cje:__Z56ExecuteEvents_Execute_TisIMoveHandler_t933334182_m109549P12Il2CppObjectP22GameObject_t1113636619P25BaseEventData_t3903027533P27EventFunction_1_t3912835512PK10MethodInfo
U7c:__Z18Transfer_BlittableI9JSONWriteLb0EaEvRK29SerializationCommandArgumentsR31RuntimeSerializationCommandInfo
Fzm:__ZNK22Enumerator_t35882777609get_ver_2Ev
iNd:__Z51Register_UnityEngine_TextGenerator_Internal_Destroyv
Q7:__ZN11UnityEngine15CloudWebService14DataDispatcher34OnSessionContainerArchivedAndReadyERNS0_16SessionContainerE
jHh:_ConnectionChangeEvent__ctor_m764126802
kgd:__ZN7b2World11CreateJointEPK10b2JointDef
Nie:__ZN33StandaloneInputModule_t276046910126set_m_InputPointerEvent_22EP28PointerEventData_t3807901092
JGj:_IntComparer__ctor_m2901422390
XXe:__ZL79Convert_t2465617642_CustomAttributesCacheGenerator_Convert_ToUInt32_m1767593911P21CustomAttributesCache
dTe:__ZL50HMACMD5_t2742219965_CustomAttributesCacheGeneratorP21CustomAttributesCache
eNg:_Comparer_1__ctor_m1078828713_gshared
htd:__ZN7b2World11DestroyBodyEP6b2Body
Ydm:_Enumerator_VerifyState_m2621680056_gshared
xN:__ZN4PPtrI25RuntimeAnimatorControllerE8TransferI19StreamedBinaryWriteEEvRT_
nvn:_UriParser_InternalRegister_m3643767086
Puc:__ZN14SafeBinaryRead19TransferSTLStyleMapINSt3__23mapIN4core12basic_stringIcNS3_20StringStorageDefaultIcEEEEiNS1_4lessIS7_EENS1_9allocatorINS1_4pairIKS7_iEEEEEEEEvRT_17TransferMetaFlags
lZj:_DateTimeFormatInfo_get_RawAbbreviatedDayNames_m1257850285
J6l:_RSACryptoServiceProvider_EncryptValue_m944137256
tTo:__ZN15dense_hashtableINSt3__24pairIK10KeyWrapperINS1_IPK11Il2CppImageP11Il2CppClassEEEjEES9_17ReflectionMapHashIS8_EN14dense_hash_mapIS9_jSD_NS9_14EqualsComparerINS0_8equal_toIS8_EEEENS0_9allocatorISB_EEE9SelectKeyESI_SK_ED2Ev
sId:_gray_move_to
U5i:_DBNull_System_IConvertible_ToSingle_m13713620
Sxh:__Z25Il2CppCodeGenWriteBarrierI33DisplaysUpdatedDelegate_t51287044EvPPT_S2_
zvi:_Char_ToLowerInvariant_m1926695830
Ssf:__ZL127U3CDelayedSetDirtyU3Ec__Iterator0_t3170500204_CustomAttributesCacheGenerator_U3CDelayedSetDirtyU3Ec__Iterator0_Reset_m160466733P21CustomAttributesCache
mXo:__ZNK10KeyWrapperIPK14Il2CppAssemblyEcvRKS2_Ev
Sgp:__ZNK10KeyWrapperIP12Il2CppObjectEcvRKS1_Ev
Wuh:_CameraCallback__ctor_m899467377
oPm:_ReadOnlyCollection_1_System_Collections_IList_Contains_m1327645028_gshared
uEe:_Image_GetDrawingDimensions_m3060965396
l4n:_UnityWebRequest_Dispose_m3261105905
tnn:__Z25Il2CppCodeGenWriteBarrierI27MatchCollection_t1395363720EvPPT_S2_
y1k:_TypeLoadException__ctor_m1154572625
hTc:__Z30RegisterValidateMethodCallbackiPF18ScriptingMethodPtrS_17ScriptingClassPtrP6ObjectEPKc
o2a:__ZNSt3__27__sort4IRPFbRKNS_4pairIN9ShaderLab16FastPropertyNameE10ColorRGBAfEES7_EPS5_EEjT0_SC_SC_SC_T_
wLj:_AssemblyDescriptionAttribute__ctor_m3993445315
HOi:_Context_get_WriteSequenceNumber_m1115956887
Nni:_Activator_CreateInstanceInternal_m1337209899
P4c:__Z57Register_UnityEngine_GUIStyleState_set_textColor_Injectedv
NIl:_Dictionary_2_Do_ICollectionCopyTo_TisKeyValuePair_2_t2401056908_m1169495264_gshared
EGf:_OpCodes__cctor_m3821715395
Ape:_ContentSizeFitter__ctor_m2349275633
iUf:__ZN16VirtFuncInvoker2IbP6Type_tbE6InvokeEjP12Il2CppObjectS1_b
N_e:__ZL56TypeConverter_t2249118273_CustomAttributesCacheGeneratorP21CustomAttributesCache
Qzi:__Z25Il2CppCodeGenWriteBarrierI43CaseInsensitiveHashCodeProvider_t1962629119EvPPT_S2_
GMo:__ZN6il2cpp5utils9PathUtils13DirectoryNameIcEENSt3__212basic_stringIT_NS3_11char_traitsIS5_EENS3_9allocatorIS5_EEEERKNS0_10StringViewIS5_EE
OIm:_Collection_1_RemoveAt_m3506636491_gshared
FYg:_KeyCollection_System_Collections_Generic_ICollectionU3CTKeyU3E_get_IsReadOnly_m280349487_gshared
hRa:__ZN20IntermediateRendererD2Ev
ocd:__ZN8JSONRead8TransferI9BoundsIntEEvRT_PKc17TransferMetaFlagsb
xkp:__ZN24dense_hashtable_iteratorINSt3__24pairIK10KeyWrapperIPcES3_EES4_N6il2cpp5utils15PassThroughHashIS3_EEN14dense_hash_mapIS4_S3_SA_NS4_14EqualsComparerINS0_8equal_toIS3_EEEENS0_9allocatorIS6_EEE9SelectKeyESF_SH_E30advance_past_empty_and_deletedEv
Mb:invoke_viidi
Vxb:__ZN25SingleBlockMemoryFileData9SetLengthEy
nGl:_Array_Sort_TisOrderBlock_t1585977831_m2922111197_gshared
dS:__ZN18StreamedBinaryRead8TransferINSt3__24pairI8StateKey10StateRangeEEEEvRT_PKc17TransferMetaFlags
Fqo:__ZNSt3__211char_traitsIcE6lengthEPKc
BXe:__ZL78Convert_t2465617642_CustomAttributesCacheGenerator_Convert_ToUInt16_m867476252P21CustomAttributesCache
mcg:_SByte_System_IConvertible_ToChar_m1489191771_AdjustorThunk
uY:__ZN9AudioClip7CleanupEv
Fop:__ZNK24dense_hashtable_iteratorINSt3__24pairIK10KeyWrapperIPK19Il2CppGenericMethodEP10MethodInfoEES6_N6il2cpp8metadata23Il2CppGenericMethodHashEN14dense_hash_mapIS6_S9_SD_NS6_14EqualsComparerINSC_26Il2CppGenericMethodCompareEEENS0_9allocatorISA_EEE9SelectKeyESH_SJ_EdeEv
god:__ZN21b2ReportPostSolveTaskD0Ev
V0m:__ZN24GeneralNames_t270229415912set_ipAddr_4EP21ArrayList_t2718874744
Dyl:__Z76RuntimeInvoker_Void_t1185182177_Int32_t2950945753_PlayableBinding_t354260709PFvvEPK10MethodInfoPvPS4_
aln:_Interval_t1802865632_marshal_pinvoke_cleanup
G4o:__ZNK15dense_hashtableINSt3__24pairIK10KeyWrapperIP11Il2CppClassES4_EES5_N6il2cpp8metadata16SZArrayClassHashEN14dense_hash_mapIS5_S4_SA_NS5_14EqualsComparerINS9_19SZArrayClassCompareEEENS0_9allocatorIS7_EEE9SelectKeyESE_SG_E12test_deletedEj
J2i:_Convert_ToInt16_m1223489986
eAe:_Graphic_GraphicUpdateComplete_m1502194795
Pad:__Z18Transfer_BlittableI8JSONReadLb0EdEvRK29SerializationCommandArgumentsR31RuntimeSerializationCommandInfo
a9a:__ZN14SafeBinaryRead22TransferWithTypeStringI7CubemapEEvRT_PKcS5_17TransferMetaFlags
FFb:__ZN21InstanceBufferJobDataIN10Instancing11DrawAPIArgsEED2Ev
B3h:_SynchronizationAttribute_EnterContext_m1660729920
R0m:__ZN24GeneralNames_t270229415920set_directoryNames_2EP21ArrayList_t2718874744
sko:_Canvas_get_referencePixelsPerUnit_m3420541976
uPm:_ReadOnlyCollection_1_System_Collections_ICollection_get_SyncRoot_m2522539235_gshared
r7m:_Event_get_current_m2393892120
$On:__ZN23DragHandler_t418772403012set_indrag_9Eb
rli:__ZNK26X509Certificate_t48924302412get_m_from_2Ev
zXl:_DefaultComparer_Equals_m3688244916_gshared
fPj:__ZN30ConstructorBuilder_t281352410818set_paramModReq_11EP28TypeU5BU5DU5BU5D_t4042077012
Pzb:__ZNK9GfxDevice13GetViewMatrixEv
Jck:_UnmanagedMemoryStream_Dispose_m2681886347
Gqi:_Array_Copy_m1988610914
l4h:_Lease_get_CurrentState_m2210872233
Ppb:__ZN17RemapPPtrTransferC2E24TransferInstructionFlagsb
wog:_InternalEnumerator_1_System_Collections_IEnumerator_get_Current_m1295084274_gshared
$Q:__ZN14SafeBinaryRead21TransferSTLStyleArrayI22OffsetPtrArrayTransferIiEEEvRT_17TransferMetaFlags
vna:__ZN8TypeTree8BlobReadERPKhS1_ib
B2o:__ZN10KeyWrapperINSt3__24pairIP11Il2CppClassjEEEC2Ev
DWf:__ZN6il2cpp2vm9Exception13RaiseIfFailedEibP19Il2CppSequencePoint
G3e:__ZL87Display_t1387065949_CustomAttributesCacheGenerator_Display_GetSystemExtImpl_m2808197389P21CustomAttributesCache
prg:__Z44InternalEnumerator_1_get_Current_m2223614542P32InternalEnumerator_1_t1451382081PK10MethodInfo
E_e:__ZL60MonoTODOAttribute_t4131080582_CustomAttributesCacheGeneratorP21CustomAttributesCache
ioe:_CanvasUpdateRegistry_InternalRegisterCanvasElementForGraphicRebuild_m3522560454
yWi:__ZNK21HashValues_t61838744510get_host_0Ev
Sx:__ZN7mecanim9animation23ComputeRootMotionValuesERKNS0_14AvatarConstantERKNS0_14SkeletonTQSMapERKNS0_16MotionXReferenceERNS_10ValueArrayESB_SB_b
din:__ZN19GUISkin_t124437228219set_m_ScrollView_24EP20GUIStyle_t3956901511
mob:__ZN18LoadSceneOperation23GetAllowSceneActivationEv
VOa:__ZN6CameraD0Ev
Bwo:__ZNK6il2cpp2vm17TypeNameParseInfo10is_boundedEv
jCm:_Collection_1_System_Collections_IList_get_IsReadOnly_m2319019412_gshared
uhf:__ZL57EventModifiers_t2016417398_CustomAttributesCacheGeneratorP21CustomAttributesCache
JYd:__ZN11UnityEngine9Analytics20BasePersistentValues5ResetEv
OHj:__ZN16VirtFuncInvoker7IP12MethodBase_tiP27MethodBaseU5BU5D_t779831733PP24ObjectU5BU5D_t2843939325P35ParameterModifierU5BU5D_t2943407543P23CultureInfo_t4157843068P24StringU5BU5D_t1281789340PP12Il2CppObjectE6InvokeEjSE_iS3_S6_S8_SA_SC_SF_
FPn:__ZNK22HandleText_t170782868711get_mouse_5Ev
jWm:_ReadOnlyCollection_1_System_Collections_Generic_IListU3CTU3E_Insert_m2579693514_gshared
ELm:_Collection_1_System_Collections_IList_IndexOf_m837396833_gshared
BA:__ZN7mecanim12AndValueMaskILb0EEEvPKNS_14ValueArrayMaskEPS1_
Cmb:__ZN14SafeBinaryRead21TransferSTLStyleArrayINSt3__26vectorIi13stl_allocatorIiL18MemLabelIdentifier13ELi16EEEEEEvRT_17TransferMetaFlags
UCk:_EncoderFallback__cctor_m3806755293
Dpg:_InternalEnumerator_1__ctor_m962177456_AdjustorThunk
eAd:_raccess_guess_apple_double
sOj:__Z25Il2CppCodeGenWriteBarrierI22StrongName_t4093849377EvPPT_S2_
t5d:__ZL50__ManagedRegistrationHelperFunction_SubsystemProxyPv
w3b:__ZL18ProgramUniform1uivPK7ApiGLESjiihPKv
MFc:__ZN14Texture2DArray13RebuildMipMapEv
SAo:__ZN13Il2CppHashSetIPK17Il2CppGenericInstN6il2cpp8metadata21Il2CppGenericInstHashENS4_24Il2CppGenericInstCompareENSt3__29allocatorI10KeyWrapperIS2_EEEEC2EjRKS5_RKS6_
tHb:__Z18Transfer_BlittableI14SafeBinaryReadLb1EaEvRK29SerializationCommandArgumentsR31RuntimeSerializationCommandInfo
vQh:__ZN48RenderTextureDescriptor_t1974534975_StaticFields21set_depthFormatBits_6EP22Int32U5BU5D_t385246372
CYg:_KeyCollection_System_Collections_Generic_IEnumerableU3CTKeyU3E_GetEnumerator_m2427813049_gshared
ozc:__ZN9ShaderLab20SerializedSubProgram14AddVectorParamEPKcii15ShaderParamTypei
tqm:_List_1_GetEnumerator_m563931292_gshared
Z1a:__ZN18StreamedBinaryRead19TransferSTLStyleMapINSt3__23mapIN9ShaderLab16FastPropertyNameEfNS1_4lessIS4_EENS1_9allocatorINS1_4pairIKS4_fEEEEEEEEvRT_17TransferMetaFlags
ftp:_GC_max
BQd:__ZN2UI14CanvasRenderer12CleanupClassEv
HZi:_Enumerator__ctor_m3362421874
DVj:__ZN30DateTimeFormatInfo_t240585370119set_m_isReadOnly_10Eb
nef:__ZL94AudioSampleProvider_t3950279772_CustomAttributesCacheGenerator_U3CtrackIndexU3Ek__BackingFieldP21CustomAttributesCache
PBn:__ZN16VirtFuncInvoker1Ib19Color32_t2600501292E6InvokeEjP12Il2CppObjectS0_
Mfp:__ZN6il2cpp2vm6Object3BoxEP11Il2CppClassPv
d2o:__ZN6il2cpp2vm6Thread7SetNameEP12Il2CppThreadP12Il2CppString
Utl:__Z74RuntimeInvoker_Double_t594665363_DateTime_t3738529785_DateTime_t3738529785PFvvEPK10MethodInfoPvPS4_
awf:__ZL146U3CRepeatU3Ec__Iterator1_t734646936_CustomAttributesCacheGenerator_U3CRepeatU3Ec__Iterator1_System_Collections_IEnumerator_get_Current_m3170418799P21CustomAttributesCache
KUn:__ZN23updateScore_t37655921058set_dl_8EP30dreamloLeaderBoard_t2767863335
iik:__ZN16VirtFuncInvoker2Ib40CustomAttributeTypedArgument_t2723150157S0_E6InvokeEjP12Il2CppObjectS0_S0_
u9:__ZN11UnityEngine15CloudWebService10RestClientINS0_23WebRequestRestHeaderMapEE16SetRequestHeaderERKN4core12basic_stringIcNS4_20StringStorageDefaultIcEEEESA_
Hmb:__ZN30RuntimeInitializeOnLoadManager15ClassMethodInfo8TransferI14SafeBinaryReadEEvRT_
N6h:_ConstructionCall_InitDictionary_m2824447813
BTf:_TargetException__ctor_m3701535709
lxl:__Z86RuntimeInvoker_Int32_t2950945753_Vector3_t3722313464_Vector3_t3722313464_RuntimeObjectPFvvEPK10MethodInfoPvPS4_
s6:__ZL22InitializeModule_Audiov
M7l:__ZNK41RijndaelTransform_t631222241_StaticFields10get_iT1_24Ev
Hyb:__ZN16MemoryFileSystem8IsLockedERK13FileEntryData
f9l:__Z35KeyValuePair_2_ToString_m2480962023P26KeyValuePair_2_t3842366416PK10MethodInfo
H7o:__ZN6il2cpp6icalls8mscorlib6System2IO6MonoIO5WriteEiP11Il2CppArrayiiPi
vEh:_Mathf_InverseLerp_m4155825980
qdl:__Z92RuntimeInvoker_RuntimeObject_RuntimeObject_RuntimeObject_SByte_t1669577662_SByte_t1669577662PFvvEPK10MethodInfoPvPS4_
kf:_emscripten_glBindRenderbuffer
bwn:_UriScheme__ctor_m1399779782
mWj:__ZNK43DateTimeFormatInfo_t2405853701_StaticFields39get_INVARIANT_ABBREVIATED_MONTH_NAMES_6Ev
r_l:__ZNK43EqualityComparer_1_t1530079185_StaticFields14get__default_0Ev
$Pi:_Context_set_ReadSequenceNumber_m2154909392
znj:__ZN15Oid_t355212026012set__value_0EP8String_t
Mnm:_List_1_System_Collections_IList_Insert_m1011775503_gshared
kvp:_GC_dirty_init
AQk:__ZNK25PrivateKeyInfo_t66802799210get__key_2Ev
vFg:__ZN32InternalEnumerator_1_t101283622211set_array_0EP11Il2CppArray
sdp:__ZN6il2cpp2vm5Image33GetCachedMemoryMappedResourceFileEP24Il2CppReflectionAssembly
Kdp:__ZN6il2cpp2vm5Field14GetValueObjectEP9FieldInfoP12Il2CppObject
YRd:__ZNK2UI6Canvas16GetTargetDisplayEv
hvl:__Z69RuntimeInvoker_Void_t1185182177_Int32_t2950945753_Vector2_t2156229523PFvvEPK10MethodInfoPvPS4_
a$d:__Z63Register_UnityEngine_Analytics_CustomEventData_Internal_Destroyv
RMn:__Z56GameObject_GetComponent_TisBoard_t3688305287_m1125811840P22GameObject_t1113636619PK10MethodInfo
DHl:__ZN46CustomAttributeNamedArgumentU5BU5D_t371046479514SetAtUncheckedEj39CustomAttributeNamedArgument_t287865710
N_k:_TimeSpan_CompareTo_m3633415627_AdjustorThunk
C8c:__ZN9JSONWrite8TransferI4PPtrI9Texture2DEEEvRT_PKc17TransferMetaFlags
oPk:__ZNK30KeyPairPersistence_t209454746116get__container_7Ev
oMl:_Transform_1__ctor_m3362618226_gshared
$Tb:__ZN13MonoBehaviour17RemoveFromManagerEv
$ln:__ZNK21Enumerator_t7377252769get_ptr_1Ev
oao:_Vector3_get_Item_m668685504_AdjustorThunk
GPa:__ZN12ImageFilters14AddImageFilterERK11ImageFilter
w9f:_ClrTypeMetadata_get_RequiresTypes_m1619438370
Sab:__ZL11DecodeValuePPKcS0_
W6h:__ZN27MethodDictionary_t20789420417set__methodKeys_2EP24StringU5BU5D_t1281789340
muk:_WindowsIdentity_System_Runtime_Serialization_IDeserializationCallback_OnDeserialization_m3428853631
Yda:__ZN13MemoryManagerC2Ev
Ryo:__ZNK15dense_hashtableINSt3__24pairIK10KeyWrapperIPKcEP11Il2CppClassEES5_N6il2cpp5utils11StringUtils12StringHasherIS4_EEN14dense_hash_mapIS5_S8_SE_NS5_14EqualsComparerINSB_13VmStringUtils21CaseSensitiveComparerEEENS0_9allocatorIS9_EEE9SelectKeyESJ_SL_E8min_sizeEjj
Djh:_ScrollRect_SetDirty_m214267968
PAl:__Z74RuntimeInvoker_Int32_t2950945753_UIVertex_t4057497605_UIVertex_t4057497605PFvvEPK10MethodInfoPvPS4_
TTg:__Z73Enumerator_System_Collections_IDictionaryEnumerator_get_Value_m3510383352P22Enumerator_t2086727927PK10MethodInfo
p7l:_RSAParameters_t1728406613_marshal_pinvoke_cleanup
_xb:__ZN20ArchiveStorageReader28AcquireAndPrefillUnusedBlockEjPNS_11CacheResultE
Dsi:_Boolean_System_IConvertible_ToDateTime_m603510836
HFc:__Z12NHxRoughnessIA4_tEvP9Texture2DPT_iiii
kxn:__ZN28GenericInterfaceFuncInvoker2IibbE6InvokeEPK10MethodInfoP12Il2CppObjectbb
q_d:__ZN11UnityEngine15PlatformWrapper33GetTimeSinceStartupInMillisecondsEv
U4c:__Z38Register_UnityEngine_GUIStyle_get_fontv
mZk:__ZN29Timer_t716671026_StaticFields15set_scheduler_1EP21Scheduler_t3215764947
nra:__ZN18AsyncUploadManagerD2Ev
qkk:__ZN21InterfaceFuncInvoker2Ii20UIVertex_t4057497605S0_E6InvokeEjP11Il2CppClassP12Il2CppObjectS0_S0_
Csb:__ZN9Transform5ResetEv
bbj:_DelegateSerializationHolder__ctor_m23226427
uBa:__ZL59__ManagedRegistrationHelperFunction_GraphicsDeviceTypeProxyPv
O2i:_Decimal_op_Explicit_m1842265407
VNb:__Z22TransferField_NonArrayI24GenerateTypeTreeTransfer16Converter_StringEvRK23StaticTransferFieldInfoR31RuntimeSerializationCommandInfoRT0_
qbb:__ZNK9Texture3D16ExtractImageImplEP14ImageReference13ImageBlitModebi
gEd:_UNITY_FT_CMap_New
w_c:__Z38Transform_CUSTOM_set_position_InjectedP12Il2CppObjectRK8Vector3f
pUc:__Z57Register_UnityEngine_RectTransform_get_anchorMax_Injectedv
Kdl:__Z109RuntimeInvoker_Void_t1185182177_RuntimeObject_RuntimeObject_RuntimeObject_SByte_t1669577662_SByte_t1669577662PFvvEPK10MethodInfoPvPS4_
vng:_InternalEnumerator_1_MoveNext_m154749640_AdjustorThunk
oWb:__Z17MainLoopKeepalivePv
c5e:__ZL99RectOffset_t1369453676_CustomAttributesCacheGenerator_RectOffset_t1369453676____bottom_PropertyInfoP21CustomAttributesCache
rvf:__ZL130U3CAddScoreWithPipeU3Ec__Iterator1_t3118978220_CustomAttributesCacheGenerator_U3CAddScoreWithPipeU3Ec__Iterator1_Reset_m1275129854P21CustomAttributesCache
bP:__ZN15AnimationBinder10BindCurvesERKN4core8hash_mapI7CurveIDj10hash_curveNSt3__28equal_toIS2_EEEER9TransformR13dynamic_arrayI20BoundCurveDeprecatedLj0EERNS4_6vectorIPSA_13stl_allocatorISH_L18MemLabelIdentifier26ELi16EEEE
Brf:__ZL62Slider_t3903728902_CustomAttributesCacheGenerator_m_HandleRectP21CustomAttributesCache
LQa:__ZN12SharedObjectI22RenderingCommandBufferLb1E27SharedObjectDeleteReleaseOpIS0_EE5ResetEv
pBo:__ZN15dense_hashtableI10KeyWrapperIPK17Il2CppGenericInstES4_N6il2cpp8metadata21Il2CppGenericInstHashEN14dense_hash_setIS4_S7_NS4_14EqualsComparerINS6_24Il2CppGenericInstCompareEEENSt3__29allocatorIS4_EEE8IdentityESB_SE_E12expand_arrayEjN21dense_hash_map_traits17integral_constantIbLb0EEE
NDg:_InternalEnumerator_1_get_Current_m1588647567_AdjustorThunk
V9o:__ZN14dense_hash_mapI10KeyWrapperIP14Il2CppIUnknownEjN6il2cpp5utils11PointerHashIS1_EENS3_14EqualsComparerINSt3__28equal_toIS2_EEEENS9_9allocatorINS9_4pairIKS3_jEEEEED2Ev
dBf:_ILGenerator_Emit_m2239205197
vPe:__ZL51GCHandle_t3351438187_CustomAttributesCacheGeneratorP21CustomAttributesCache
JHl:__ZN28OrderBlockU5BU5D_t238920259014SetAtUncheckedEj22OrderBlock_t1585977831
Khe:__ZNK32MouseButtonEventData_t319034756017get_buttonState_0Ev
fik:__ZN16VirtFuncInvoker2Ib39CustomAttributeNamedArgument_t287865710S0_E6InvokeEjP12Il2CppObjectS0_S0_
f3g:_InputField_get_caretBlinkRate_m3620074524
iqb:__ZN11PreloadData39ShouldIgnoreInGarbageDependencyTrackingEv
BRm:_ReadOnlyCollection_1_System_Collections_Generic_IListU3CTU3E_set_Item_m375376101_gshared
Gpg:_InternalEnumerator_1_System_Collections_IEnumerator_Reset_m1716381123_AdjustorThunk
qFf:__ZN16VirtFuncInvoker3IP6Type_tP8String_tbbE6InvokeEjP12Il2CppObjectS3_bb
g7l:_RSAPKCS1SignatureFormatter_CreateSignature_m3191980616
x0a:__ZN10builtintex16GetDefaultTexEnvE16TextureDimensionb
Adc:__Z19SetupLODFadeKeywordR17ShaderPassContextb
G5b:__ZL25CheckCopyTextureArgumentsRK7ApiGLESP11GLESTextureS3_
xfe:_PointerEventData_get_pointerCurrentRaycast_m2627585223
RDg:_InternalEnumerator_1__ctor_m362401472_AdjustorThunk
Pff:__ZL104UnityWebRequest_t463507806_CustomAttributesCacheGenerator_UnityWebRequest_get_isNetworkError_m1231611882P21CustomAttributesCache
MNp:_glDeleteShader__wrapper
oin:_GUIStyle_GetStyleStatePtr_m751258175
jua:__ZNK15PlayableMethods18InvokeOnGraphStartER18ScriptingObjectPtrRK9HPlayable
sNb:__Z29Transfer_Blittable_ArrayFieldI24GenerateTypeTreeTransferyEvRT_R9ArrayInfoRK23StaticTransferFieldInfo
F5k:_ValueType_Equals_m1524437845
k2e:__ZL71RuntimePlatform_t4159857903_CustomAttributesCacheGenerator_OSXWebPlayerP21CustomAttributesCache
bWg:__Z31Enumerator_MoveNext_m3542650857P22Enumerator_t1626871233PK10MethodInfo
oZ:__ZN4FMOD7SystemI9playSoundE17FMOD_CHANNELINDEXPNS_5SoundEbPPNS_7ChannelE
Htl:__Z123RuntimeInvoker_RuntimeObject_Ray_t3785851493_RuntimeObject_Single_t1397266774_Int32_t2950945753_RuntimeObject_RuntimeObjectPFvvEPK10MethodInfoPvPS4_
kDj:_Int64_GetHashCode_m703091690
JYj:_CultureInfo_set_DateTimeFormat_m1843682751
Auo:__ZN30dense_hashtable_const_iteratorINSt3__24pairIK10KeyWrapperIPK22Il2CppGenericParameterEP11Il2CppClassEES6_N6il2cpp5utils11PointerHashIS4_EEN14dense_hash_mapIS6_S9_SE_NS6_14EqualsComparerINS0_8equal_toIS5_EEEENS0_9allocatorISA_EEE9SelectKeyESJ_SL_EC2ERK24dense_hashtable_iteratorISA_S6_SE_SN_SJ_SL_E
$tk:__ZNK22StrongName_t367572461410get_name_1Ev
u6m:_X509CrlEntry_get_RevocationDate_m606796547
f7m:_Event_get_commandName_m4275147343
AA:__ZN27AnimationLayerMixerPlayable17LayerMixerProcessEP35AnimationPlayableEvaluationConstantP32AnimationPlayableEvaluationInputP33AnimationPlayableEvaluationOutputM17AnimationPlayableFvS1_S3_S5_EMS_FvS1_S3_S5_ESA_MS_FvS5_S1_S3_S5_ifE
U1i:_Decimal_op_Implicit_m4256234411
XHb:__Z24TransferPPtrToMonoObjecti17ScriptingClassPtrP23DataToCreateNullWrapper24TransferInstructionFlags
dal:__Z60RuntimeInvoker_RuntimeObject_RuntimeObject_Int16_t2552820387PFvvEPK10MethodInfoPvPS4_
xBn:__ZN28GenericInterfaceFuncInvoker1Ib40CustomAttributeTypedArgument_t2723150157E6InvokeEPK10MethodInfoP12Il2CppObjectS0_
s9j:_StreamReader__ctor_m3941437302
YEa:__ZN9Scripting11UnityEngine13GradientProxy9InitProxyEv
rde:__Z25Il2CppCodeGenWriteBarrierI27EventFunction_1_t2658898854EvPPT_S2_
clj:_IPv6Address_get_Address_m1389170741
umb:__ZN30RuntimeInitializeOnLoadManager23VirtualRedirectTransferER17RemapPPtrTransfer
oKp:dynCall_viif
C_f:_RemoteActivator_Activate_m3917386814
ULj:_AssemblyName_get_Flags_m1616840602
YJe:__ZL72MonoDocumentationNoteAttribute_t493035051_CustomAttributesCacheGeneratorP21CustomAttributesCache
dfe:__ZN28PointerEventData_t380790109238set_U3CclickCountU3Ek__BackingField_18Ei
Zak:_StringReader_ReadLine_m2337102945
v5i:__ZN33CurrentSystemTimeZone_t399835225522set_utcOffsetWithDLS_8E19TimeSpan_t881159249
y_n:__Z28List_1_get_Count_m3831796040P18List_1_t3952196670PK10MethodInfo
Rsi:_Boolean_System_IConvertible_ToSingle_m1524606222
aLb:__ZL26Transfer_SimpleNativeClassI17RemapPPtrTransfer8GradientLb0EEvRK29SerializationCommandArgumentsR31RuntimeSerializationCommandInfo
s4e:__ZL49Shader_t4151988712_CustomAttributesCacheGeneratorP21CustomAttributesCache
Wwh:__ZN23InterfaceActionInvoker3IiP8String_tP24ObjectU5BU5D_t2843939325E6InvokeEjP11Il2CppClassP12Il2CppObjectiS1_S3_
wXf:__Z25Il2CppCodeGenWriteBarrierI19Version_t3456873960EvPPT_S2_
ati:_Boolean_Equals_m2410333903_AdjustorThunk
kKo:__ZN6il2cpp6icalls8mscorlib6System8MonoType14get_attributesEP20Il2CppReflectionType
nSe:__ZL61ISurrogateSelector_t3040401154_CustomAttributesCacheGeneratorP21CustomAttributesCache
Jph:_Slider_OnPointerDown_m3052086073
jLc:__ZL41RuntimeInitializeOnSceneLoadedBeforeAwakeiR18AwakeFromLoadQueue16SceneLoadingMode
$Xj:__ZNK23CultureInfo_t415784306816get_territory_25Ev
paa:__ZN13UploadHandlerD2Ev
vV:__GLOBAL__sub_I_Modules_AssetBundle_Public_1_cpp
LKp:dynCall_viiiiiffi
cVk:__ZN23UTF8Decoder_t215921486218set_leftOverBits_2Ej
azh:_InvokableCallList_PrepareInvoke_m4003891334
rf:_emscripten_glBlendFuncSeparate
OHm:_Collection_1_Add_m809543251_gshared
kDa:__ZN9Scripting11UnityEngine9Rendering28AsyncGPUReadbackRequestProxy9InitProxyEv
Dja:__Z20scripting_string_newPKc
fWa:__ZN18StreamedBinaryRead21TransferSTLStyleArrayI13dynamic_arrayI21PlatformShaderDefinesLj0EEEEvRT_17TransferMetaFlags
enj:__ZNK20WebProxy_t201676054213get_address_0Ev
tGk:__ZN45MSCompatUnicodeTable_t1453885583_StaticFields19set_cjkKOcategory_9EPh
dqn:_Parser_IsSingleline_m326238187
GKk:_BigInteger_Randomize_m2194703121
iAi:_CollectionBase_get_Count_m1708965601
fhg:_HMAC__ctor_m97939284
lRm:_ReadOnlyCollection_1_System_Collections_IList_get_Item_m1005238747_gshared
nYe:__ZL49DBNull_t3725197148_CustomAttributesCacheGeneratorP21CustomAttributesCache
fnm:_List_1_GetEnumerator_m730414427_gshared
E5k:_ValueType_DefaultEquals_m2927252100
z6c:__ZN9JSONWrite12AppendToNodeEPN5Unity9rapidjson12GenericValueINS1_4UTF8IcEE13JSONAllocatorEEPKcRS6_
NMk:_ASN1_ToString_m1340204511
VSi:__ZNK25SslStreamBase_t166741340713get_context_5Ev
$yh:__Z23List_1_Clear_m803816076P18List_1_t4176035766PK10MethodInfo
vid:__ZN16PhysicsManager2D20GetRigidBodyVelocityERK11Rigidbody2D
HNl:_Enumerator_System_Collections_IEnumerator_Reset_m85524874_gshared
ysj:_X509Store_get_Certificates_m2149701265
xDb:__ZN20GfxAsyncReadbackDataD2Ev
gWl:_DefaultComparer_GetHashCode_m2865442331_gshared
I0k:_Type_GetField_m2961003358
Gnf:__ZL144StandaloneInputModule_t2760469101_CustomAttributesCacheGenerator_StandaloneInputModule_t2760469101____allowActivationOnMobileDevice_PropertyInfoP21CustomAttributesCache
uTo:__ZN15dense_hashtableINSt3__24pairIK10KeyWrapperINS1_IPK11Il2CppImageP11Il2CppClassEEEjEES9_17ReflectionMapHashIS8_EN14dense_hash_mapIS9_jSD_NS9_14EqualsComparerINS0_8equal_toIS8_EEEENS0_9allocatorISB_EEE9SelectKeyESI_SK_E15destroy_bucketsEjj
ZVh:__ZN25ReturnMessage_t137698560817set__methodBase_7EP12MethodBase_t
$Sk:_StringBuilder_set_Chars_m3548656617
INo:__ZN6il2cpp2os4File17GetFileAttributesERKNSt3__212basic_stringIcNS2_11char_traitsIcEENS2_9allocatorIcEEEEPi
Kwl:__Z59RuntimeInvoker_Int32_t2950945753_X509ChainStatus_t133602714PFvvEPK10MethodInfoPvPS4_
fM:__ZNSt3__26__sortIRPFbPKN8Animator11AnimatorJobES4_EPS4_EEvT0_S9_T_
k3:__ZN17AudioCustomFilterD2Ev
s3c:__ZN11IMGUIModule26SetDeveloperConsoleVisibleEb
Cif:__ZL86GUIStyle_t3956901511_CustomAttributesCacheGenerator_GUIStyle_Internal_Copy_m2771217011P21CustomAttributesCache
bRb:__Z18Transfer_BlittableI18StreamedBinaryReadLb0E12PropertyNameEvRK29SerializationCommandArgumentsR31RuntimeSerializationCommandInfo
Dxl:__Z56RuntimeInvoker_Void_t1185182177_MonoResource_t4103430009PFvvEPK10MethodInfoPvPS4_
Xrb:__ZN9Transform16ResetReplacementEv
DSo:__ZN30dense_hashtable_const_iteratorINSt3__24pairIK10KeyWrapperINS1_IPK10MethodInfoP11Il2CppClassEEEjEES9_17ReflectionMapHashIS8_EN14dense_hash_mapIS9_jSD_NS9_14EqualsComparerINS0_8equal_toIS8_EEEENS0_9allocatorISB_EEE9SelectKeyESI_SK_EC2ERK24dense_hashtable_iteratorISB_S9_SD_SM_SI_SK_E
iLe:__ZL64DebuggerBrowsableState_t747501856_CustomAttributesCacheGeneratorP21CustomAttributesCache
W2c:__ZNK8GUIStyle13GetLineHeightEv
A4b:__ZN18GfxFramebufferGLES18ReleaseFramebufferEP17RenderSurfaceBaseP14GfxContextGLES
Ydj:__ZNK37MonoEnumInfo_t3694469084_StaticFields20get_long_comparer_10Ev
F9c:__Z18Transfer_BlittableI8JSONReadLb1EiEvRK29SerializationCommandArgumentsR31RuntimeSerializationCommandInfo
i5l:__ZNK23RC2Transform_t4583214879get_R1_13Ev
zQb:__Z18Transfer_BlittableI18StreamedBinaryReadLb1EN4math12int2_storageEEvRK29SerializationCommandArgumentsR31RuntimeSerializationCommandInfo
ybk:_TextReader_Dispose_m4253712522
Taa:__ZN19CloudServiceHandler34HandleSaveFileWebRequestPlayerLoopEv
UZe:__ZL82BigInteger_t2902905090_CustomAttributesCacheGenerator_BigInteger__ctor_m2474659844P21CustomAttributesCache
ZB:__ZN7mecanim21ValueArrayReverseCopyEPKNS_18ValueArrayConstantEPKNS_10ValueArrayES2_PS3_PKi
C2:__Z31GetParentSampleClipFromInstancePN11SoundHandle8InstanceE
UYm:_InternalAsyncResult_get_BytesRead_m3975435112
iCc:__ZNK28RectTransformPropertyBinding13GetFloatValueERKN11UnityEngine9Animation10BoundCurveE
Rnc:__ZN6Camera22StandaloneCustomRenderENS_10RenderFlagEP6ShaderRKN4core12basic_stringIcNS3_20StringStorageDefaultIcEEEEPNS_21PerformRenderFunctionE
Wik:_Array_InternalArray__IndexOf_TisKeyValuePair_2_t2401056908_m4118889689_gshared
_Hf:__ZN31OpCodes_t126150456_StaticFields15set_Ldind_I8_75E17OpCode_t123070264
xMm:_Collection_1_System_Collections_ICollection_get_IsSynchronized_m500240145_gshared
_Kh:__ZN32PlayableOutputHandle_t420805379315set_m_Version_1Ej
IBp:__ZN6il2cpp2os16ThreadLocalValue8GetValueEPPv
pqj:_X509Certificate2_get_PublicKey_m370665820
eWg:__Z34Enumerator_get_Current_m2704389975P22Enumerator_t1626871233PK10MethodInfo
hGo:__ZN6il2cpp2vm13MetadataCache14GetGenericInstEPKPK10Il2CppTypej
jtg:__ZN32InternalEnumerator_1_t150172948011set_array_0EP11Il2CppArray
l4:__ZN13AudioListener17ReadExtensionNameEi
sl:_glUniform1uiv
_Em:_Collection_1_System_Collections_Generic_ICollectionU3CTU3E_get_IsReadOnly_m1419845799_gshared
gfo:__ZL25UnresolvedVirtualCall_143P12Il2CppObject29CullingGroupEvent_t1722745023PK10MethodInfo
Bqc:__Z25RegisterModuleICalls_Jobsv
aZn:_U3CTimedTriggerU3Ec__Iterator0_System_Collections_Generic_IEnumeratorU3CobjectU3E_get_Current_m3822291412
V3:__ZN9AudioClip15InitializeClassEv
yp:setThrew
PVi:_SslClientStream_OnLocalPrivateKeySelection_m1934775249
v3o:__ZN15dense_hashtableINSt3__24pairIK10KeyWrapperIP11Il2CppClassES4_EES5_N6il2cpp8metadata16SZArrayClassHashEN14dense_hash_mapIS5_S4_SA_NS5_14EqualsComparerINS9_19SZArrayClassCompareEEENS0_9allocatorIS7_EEE9SelectKeyESE_SG_E5clearEv
Z1e:__ZL106AsyncOperation_t1445031843_CustomAttributesCacheGenerator_AsyncOperation_InvokeCompletionEvent_m1410305036P21CustomAttributesCache
gui:_Byte_ToString_m721125428
Ruc:__ZN14SafeBinaryRead21TransferSTLStyleArrayINSt3__26vectorIN9ShaderLab20SerializedSubProgramENS1_9allocatorIS4_EEEEEEvRT_17TransferMetaFlags
vjk:_Array_InternalArray__IndexOf_TisX509ChainStatus_t133602714_m48896230_gshared
xvb:__ZN19dynamic_block_arrayI13FileEntryInfoLj32EE4growEj
O9c:__Z15Transfer_StringI8JSONReadLb1EEvRK29SerializationCommandArgumentsR31RuntimeSerializationCommandInfo
Pra:__ZN16LightmapSettings15AppendLightmapsEiRK13dynamic_arrayI12LightmapDataLj0EE
r3j:__ZN24BinaryWriter_t399259504212set_buffer_3EP22ByteU5BU5D_t4116647657
Hwa:__ZN6prcoreL17RemapGenericFloatI17TexFormatRGBFloat15TexFormatRGHalfEEvPKNS_9InnerInfoE
ihp:__ZN14dense_hash_mapI10KeyWrapperIP12Il2CppObjectEN6il2cpp2gc9CachedCCWENS4_5utils11PointerHashIS1_EENS3_14EqualsComparerINSt3__28equal_toIS2_EEEENSB_9allocatorINSB_4pairIKS3_S6_EEEEE4findERSH_
B4:__Z36AudioSource_CUSTOM_PlayOneShotHelperP12Il2CppObjectS0_f
vGd:_sfnt_load_face
rzd:_UNITY_FT_Render_Glyph_Internal
R9m:_GUISettings_get_cursorFlashSpeed_m873595026
wEd:_UNITY_ft_service_list_lookup
VKb:__Z18Transfer_BlittableI17RemapPPtrTransferLb1E11ColorRGBA32EvRK29SerializationCommandArgumentsR31RuntimeSerializationCommandInfo
S1c:__ZN5IMGUI21SelectReceivingWindowER8GUIStateb
dkn:_IntStack_set_Count_m756607812
Xhg:_HMAC_Initialize_m3157696427
Khn:__ZNK19GUISkin_t124437228223get_m_verticalSlider_14Ev
Ts:__ZL59__ManagedRegistrationHelperFunction_RotationConstraintProxyPv
uEp:___strchrnul
gva:__ZN4core8hash_mapINS_12basic_stringIcNS_20StringStorageDefaultIcEEEEPKvNS_4hashIS4_EENSt3__28equal_toIS4_EEEixERKS4_
hfa:__ZN13BaseAllocator13TryDeallocateEPv
CKn:_ListPool_1_Release_m1363449253_gshared
_nj:_X509SubjectKeyIdentifierExtension__ctor_m2055934916
iHk:__ZNK26SimpleCollator_t287783472917get_level2Maps_11Ev
LSj:__ZNK29Path_t1605229823_StaticFields21get_dirEqualsVolume_7Ev
dfi:__ZN46RemotingConfiguration_t4113740665_StaticFields23set_defaultConfigRead_3Eb
Nem:_Enumerator_Dispose_m2531396701_AdjustorThunk
pyb:__ZN16MemoryFileSystem5WriteER13FileEntryDatayPvPy
BEe:__ZNK33UIVertex_t4057497605_StaticFields17get_simpleVert_10Ev
Omd:__ZNK21b2ClearBodyForcesTask13GetRangeCountEv
iDp:_sprintf
W0g:__ZNK22InputField_t376291743122get_m_TextComponent_20Ev
Zzc:__ZN9Scripting25CreateNullExceptionObjectE18ScriptingObjectPtr
uUf:__ZN28ResolveEventArgs_t177945650112set_m_Name_1EP8String_t
DQk:_PrivateKeyInfo_DecodeRSA_m2889346634
Z2:__ZN13AudioListener17RemoveFromManagerEv
Ti:_glAttachShader
Vpe:_ContentSizeFitter_SetLayoutHorizontal_m2833273874
iOm:_ReadOnlyCollection_1_System_Collections_IList_RemoveAt_m134366701_gshared
Ggl:__Z53RuntimeInvoker_Int32_t2950945753_Int32U26_t1369213839PFvvEPK10MethodInfoPvPS4_
SJi:__ZN28GenericInterfaceFuncInvoker1IbP22Int32U5BU5D_t385246372E6InvokeEPK10MethodInfoP12Il2CppObjectS1_
rOa:__ZNK6Camera19GetProjectionMatrixEv
aSk:_SymmetricTransform_InternalTransformBlock_m946892271
Z4h:__ZNK21LeaseSink_t366638021915get__nextSink_0Ev
kgj:__ZN36NameObjectCollectionBase_t209184736414set_keyscoll_8EP26KeysCollection_t1318642398
Tpf:__ZL70InputField_t3762917431_CustomAttributesCacheGenerator_m_SelectionColorP21CustomAttributesCache
d4g:_InputField_SetToCustomIfContentTypeIsNot_m2813459946
T6k:__Z49RuntimeInvoker_DateTime_t3738529785_RuntimeObjectPFvvEPK10MethodInfoPvPS4_
Fpd:__ZN21b2FindNewContactsTask15AddContactPairsERK16b2ContactManagerP14b2FixtureProxyS4_R13dynamic_arrayINS_17b2DeferredContactELj0EE
vyj:_Int16_Equals_m1479112859
q2e:__ZL70RuntimePlatform_t4159857903_CustomAttributesCacheGenerator_FlashPlayerP21CustomAttributesCache
qXk:__ZNK32RegisteredWaitHandle_t152953845422get__executeOnlyOnce_5Ev
d2j:_Guid_GetHashCode_m3042133858_AdjustorThunk
_tp:_GC_next_used_block
wIa:__Z38PreallocateObjectFromPersistentManagerib
Bql:__Z103RuntimeInvoker_Void_t1185182177_RectU26_t1284589061_RuntimeObject_Int32_t2950945753_ColorU26_t491168876PFvvEPK10MethodInfoPvPS4_
GWa:__ZN15ReflectionProbe23VirtualRedirectTransferER24GenerateTypeTreeTransfer
Q6m:_Event_t2956885303_marshal_pinvoke_cleanup
$Ek:__ZN45MSCompatUnicodeTable_t1453885583_StaticFields12set_level2_4EPh
dvk:_SecurityException_get_FirstPermissionThatFailed_m3934559164
mxj:_Interpreter_Backtrack_m2828876822
m8a:__ZNK9Texture2D20GetUnscaledTextureIDEv
_um:_List_1_get_Capacity_m3666274724_gshared
QRl:__ZN24Dictionary_2_t144469424916set_threshold_11Ei
Dcg:_SByte_System_IConvertible_ToType_m4075253447
NUo:__ZN15dense_hashtableINSt3__24pairIK10KeyWrapperINS1_IPK12PropertyInfoP11Il2CppClassEEEjEES9_17ReflectionMapHashIS8_EN14dense_hash_mapIS9_jSD_NS9_14EqualsComparerINS0_8equal_toIS8_EEEENS0_9allocatorISB_EEE9SelectKeyESI_SK_E21fill_range_with_emptyEPSB_SO_
nMp:_glFenceSync__wrapper
Xto:__ZNK15dense_hashtableINSt3__24pairIK10KeyWrapperIPK22Il2CppGenericParameterEP11Il2CppClassEES6_N6il2cpp5utils11PointerHashIS4_EEN14dense_hash_mapIS6_S9_SE_NS6_14EqualsComparerINS0_8equal_toIS5_EEEENS0_9allocatorISA_EEE9SelectKeyESJ_SL_E8min_sizeEjj
fhm:__ZNK22Enumerator_t122258084613get_current_3Ev
Twk:_Single_System_IConvertible_ToUInt64_m3299129161
L3e:__ZL53GameObject_t1113636619_CustomAttributesCacheGeneratorP21CustomAttributesCache
OSi:__ZNK27SslClientStream_t391462466126get_ClientCertSelection_17Ev
WTh:_Transform__ctor_m3470711880
Qqp:__ZN6il2cpp2vm17ThreadStateSetterC2ENS0_11ThreadStateE
Sxl:__Z51RuntimeInvoker_Void_t1185182177_HitInfo_t3229609740PFvvEPK10MethodInfoPvPS4_
r8a:__ZNK9Texture2D26CanReuploadDataToGfxDeviceEv
syg:_InternalEnumerator_1_Dispose_m1971295898_AdjustorThunk
mUe:__ZL63CodeAccessPermission_t2681295399_CustomAttributesCacheGeneratorP21CustomAttributesCache
Rob:__Z29ClearRepeatingLogMessageStatev
WUg:__Z39Enumerator_get_CurrentValue_m1048753843P21Enumerator_t934104361PK10MethodInfo
Uzg:_InternalEnumerator_1_get_Current_m3191242573_gshared
p7h:__ZNK41ConstructionCall_t4011594745_StaticFields30get_U3CU3Ef__switchU24map20_19Ev
aqp:__ZN6il2cpp2vm6String6NewLenEPKcj
Wwl:__Z53RuntimeInvoker_Int32_t2950945753_UICharInfo_t75501106PFvvEPK10MethodInfoPvPS4_
TGc:__ZN15QualitySettings12CleanupClassEv
Bra:__ZN21EnlightenSceneMappingaSERKS_
ZOh:_RectTransform_set_anchorMax_Injected_m389283802
eXj:__ZN27NumberFormatInfo_t43587713829set_positiveInfinitySymbol_29EP8String_t
wfo:__ZL25UnresolvedVirtualCall_159P12Il2CppObjectiPK10MethodInfo
YLa:__ZN14SafeBinaryRead21TransferSTLStyleArrayI13dynamic_arrayI17SortingLayerEntryLj0EEEEvRT_17TransferMetaFlags
ukk:__ZN21InterfaceFuncInvoker2Ii19Vector3_t3722313464S0_E6InvokeEjP11Il2CppClassP12Il2CppObjectS0_S0_
JOi:__ZN19Context_t397123470726set_writeSequenceNumber_16Ey
Hwm:_List_1_GrowIfNeeded_m278824317_gshared
m7b:__ZN7ApiGLESD2Ev
xVn:__ZNK30SymmetricTransform_t380259184311get_temp2_4Ev
aam:_KeyValuePair_2_get_Key_m2065642340_AdjustorThunk
uNa:__ZN9Transform47ClearTransformHierarchyAndApplyToSerializedDataEv
rOb:__Z18Transfer_BlittableI19StreamedBinaryWriteLb1E11QuaternionfEvRK29SerializationCommandArgumentsR31RuntimeSerializationCommandInfo
w2n:_CertificateHandler_t2739891000_marshal_pinvoke
tbc:__ZN22AsyncGPUReadbackBuffer4InitEjb
bbd:__ZN8JSONRead21TransferSTLStyleArrayINSt3__26vectorI8MonoPPtr13stl_allocatorIS3_L18MemLabelIdentifier1ELi16EEEEEEvRT_17TransferMetaFlags
Rip:__ZN6il2cpp6icalls8mscorlib6SystemL16write_enum_valueEPcP11Il2CppClassy
D1f:__ZNK37BinaryCommon_t3059247396_StaticFields22get__typeCodesToType_1Ev
z6g:_InputField_IsSelectionVisible_m3622592134
xri:_AssemblyLoadEventHandler_Invoke_m1462077361
KIp:dynCall_fidi
dlk:_Array_InternalArray__ICollection_Add_TisCustomAttributeNamedArgument_t287865710_m4157175270_gshared
Xod:__ZNK35b2SolveDiscreteIslandVelocitiesTask13GetRangeCountEv
wom:_List_1_TrimExcess_m3433550210_gshared
d5g:__Z25Il2CppCodeGenWriteBarrierI30TouchScreenKeyboard_t731888065EvPPT_S2_
FQe:__ZL58IContextProperty_t840037424_CustomAttributesCacheGeneratorP21CustomAttributesCache
Qdn:_GUILayoutEntry__ctor_m2229197035
hba:__ZN11UnityEngine15CloudWebService14RestDownloaderD2Ev
hwf:_EnumBuilder_get_Assembly_m1175292766
Frc:__Z29StdTemplateConversionFunctionIjhEbPvR14SafeBinaryRead
XRa:__ZN15dense_hashtableINSt3__24pairIKN9ShaderLab7Program23ShaderKeywordSetAndHashEPKNS2_10SubProgramEEES4_NS3_24ShaderKeywordHashFunctorEN14dense_hash_mapIS4_S8_SA_NS0_8equal_toIS4_EE13stl_allocatorIS9_L18MemLabelIdentifier67ELi16EEE9SelectKeyESD_SG_E15insert_noresizeERKS9_
CHl:_Array_swap_TisCustomAttributeNamedArgument_t287865710_TisCustomAttributeNamedArgument_t287865710_m881919420_gshared
sfd:__ZL62__ManagedRegistrationHelperFunction_CachedContactPoints2DProxyPv
mAk:__ZN33Encoding_t1523322056_StaticFields20set_asciiEncoding_16EP20Encoding_t1523322056
b_a:__ZN13RenderTexture12SetDimensionE16TextureDimension
AVi:_SslClientStream_set_ClientCertSelectionDelegate_m1261530976
Mca:__GLOBAL__sub_I_Runtime_Graphics_8_cpp
zd:_SDL_FreeRW
jmf:__ZL109ExecuteEvents_t3484638744_CustomAttributesCacheGenerator_ExecuteEvents_U3Cs_HandlerListPoolU3Em__0_m391641698P21CustomAttributesCache
ryl:__Z79RuntimeInvoker_Void_t1185182177_Int32_t2950945753_ParameterModifier_t1461694466PFvvEPK10MethodInfoPvPS4_
BQj:__ZN25DynamicMethod_t253777957024get_address_of_mhandle_0Ev
eTd:__Z34CanvasRenderer_Get_Custom_PropCullP12Il2CppObject
yfo:__ZL25UnresolvedVirtualCall_161P12Il2CppObjectiaPK10MethodInfo
Pcm:__ZNK22Enumerator_t17895014809get_ver_2Ev
G1:__ZN20SoundChannelInstance8getDelayE14FMOD_DELAYTYPEPjS1_
kSa:__ZNSt3__26vectorIN20GpuProgramParameters15StructParameterENS_9allocatorIS2_EEEC2ERKS5_
nIg:__ZN32InternalEnumerator_1_t269436751311set_array_0EP11Il2CppArray
Jlg:_ArrayReadOnlyList_1_Contains_m232667507_gshared
$uf:__ZL109dreamloLeaderBoard_t2767863335_CustomAttributesCacheGenerator_dreamloLeaderBoard_AddScoreWithPipe_m4068998177P21CustomAttributesCache
KKh:_PlayableHandle_GetPlayableType_m432385838_AdjustorThunk
byd:__ZNSt3__26vectorIN20TextRenderingPrivate8FontImpl13CharacterInfoE13stl_allocatorIS3_L18MemLabelIdentifier1ELi16EEE8__appendEj
v:tempBigInt
hMn:__ZN17Board_t368830528720set_tutorial_time_18Ef
RDl:_Array_InternalArray__Insert_TisKeyframe_t4206410242_m1558638568_gshared
EWe:__ZL77Convert_t2465617642_CustomAttributesCacheGenerator_Convert_ToByte_m3567528984P21CustomAttributesCache
ai:_emscripten_glVertexAttrib1fv
vvc:__ZNSt3__26vectorIN9ShaderLab20SerializedSubProgram12UAVParameterENS_9allocatorIS3_EEE7reserveEj
t2d:__ZN29UnityWebRequestAsyncOperationD0Ev
RJk:__ZNK19Context_t174453113022get_AlwaysMatchFlags_2Ev
wbn:__ZNK22TextEditor_t275985536621get_isPasswordField_5Ev
CHp:__ZSt11__terminatePFvvE
pjj:__Z25Il2CppCodeGenWriteBarrierI37X509CertificateCollection_t3399372417EvPPT_S2_
o3o:__ZN15dense_hashtableINSt3__24pairIK10KeyWrapperIP11Il2CppClassES4_EES5_N6il2cpp8metadata16SZArrayClassHashEN14dense_hash_mapIS5_S4_SA_NS5_14EqualsComparerINS9_19SZArrayClassCompareEEENS0_9allocatorIS7_EEE9SelectKeyESE_SG_E9set_valueEPS7_RKS7_
g_:__ZN12AudioManager14systemCallbackEP11FMOD_SYSTEM24FMOD_SYSTEM_CALLBACKTYPEPvS3_
K1o:__ZN6il2cpp2vm6Thread10InitializeEP12Il2CppThreadP12Il2CppDomain
cAk:__ZNK33Encoding_t1523322056_StaticFields29get_bigEndianUTF32Encoding_26Ev
rte:__ZNK20Dropdown_t227439122520get_m_CaptionText_19Ev
BTn:__ZN44U3CGetSingleScoreU3Ec__Iterator4_t237550413418set_U3CwwwU3E__0_1EP15WWW_t3688466362
kTm:_ReadOnlyCollection_1_System_Collections_Generic_ICollectionU3CTU3E_Clear_m3451551308_gshared
tle:_BaseMeshEffect_OnEnable_m3291426649
t$o:_il2cpp_alloc
Zuh:_ClassLibraryInitializer_Init_m988673678
pGf:__ZNK24StringU5BU5D_t128178934014GetAtUncheckedEj
Gri:_AssemblyLoadEventHandler_BeginInvoke_m1281107466
QTa:__Z26TransformVerticesInnerLoopILb0ELb0ELb1EEvPhRK10Matrix4x4fRK10Matrix3x3fbjPKhiS8_ii25GfxTransformVerticesFlagsj
YXa:__ZN16ReflectionProbes16UpdateSampleDataEv
h7m:_Event_Internal_Destroy_m928770705
P6i:_DateTime_System_IConvertible_ToSingle_m2193708681_AdjustorThunk
GWh:_TrackingServices_NotifyUnmarshaledObject_m2784831802
ly:__ZN7mecanim9animation15CloneClipMemoryEPKNS0_10ClipMemoryER20RuntimeBaseAllocator
_bp:__ZNK10KeyWrapperINSt3__24pairIPKcS3_EEE8isNormalEv
TYj:_CultureInfo_GetCultureInfo_m56098747
CJg:__Z38InternalEnumerator_1__ctor_m2490839835P31InternalEnumerator_1_t669594426P11Il2CppArrayPK10MethodInfo
fcb:__ZN14Texture2DArray5ResetEv
Ekc:__Z20AddActiveLocalLightsR11CullResultsR27LocalLightCullingParametersPPK15SharedLightDataPK8Vector4fRK9IndexListPfRSA_R12ActiveLightsSG_P5RectTIfEP13TargetEyeMask
KKe:__ZL80Hashtable_t1853889766_CustomAttributesCacheGenerator_Hashtable__ctor_m1763145853P21CustomAttributesCache
D1i:_Convert_ToDecimal_m1284148187
Q9j:__ZNK24StreamReader_t400993589914get_foundCR_13Ev
gEg:__Z40InternalEnumerator_1_MoveNext_m190587569P32InternalEnumerator_1_t1629489814PK10MethodInfo
g5e:__ZL117TouchScreenKeyboard_t731888065_CustomAttributesCacheGenerator_TouchScreenKeyboard_Open_m3609399077____autocorrection2P21CustomAttributesCache
eji:__ZNK26X509Certificate_t48924302413get_subject_8Ev
ZBd:_cf2_getNormalizedVector
Mc:_JS_Sound_Play
PXg:_KeyCollection_GetEnumerator_m1862005650_gshared
M0d:__Z26GetUnityConnectSettingsPtrv
BSp:_emscripten_glRenderbufferStorage__wrapper
jre:_FloatTween_get_targetValue_m3648367999
kUm:_ReadOnlyCollection_1_System_Collections_IList_set_Item_m1538987737_gshared
BMg:_DefaultComparer_Compare_m1920986590_gshared
m9j:__ZNK28StreamAsyncResult_t78024851211get_state_0Ev
PSn:_U3CAddScoreWithPipeU3Ec__Iterator1_Dispose_m497084582
ouc:__ZN9ShaderLab16SerializedShader8TransferI14SafeBinaryReadEEvRT_
bob:__ZN5Mutex7TryLockEv
iDi:__ZN22ModulusRing_t59651150514set_constant_1EP22BigInteger_t2902905090
uCe:_GridLayoutGroup_set_constraint_m3308895167
bff:__ZL103AudioSource_t3935305588_CustomAttributesCacheGenerator_AudioSource_ReadExtensionPropertyValue_m72717540P21CustomAttributesCache
dsj:__ZN33X509Chain_t194917408_StaticFields29set_U3CU3Ef__switchU24mapC_13EP24Dictionary_2_t2736202052
Z7h:_ConstructionCallDictionary_SetMethodProperty_m3145285304
V5n:__ZNK46AudioExtensionManager_t3220897493_StaticFields45get_m_SourceSpatializerExtensionDefinitions_1Ev
cCj:_Int32_System_IConvertible_ToUInt32_m3557270157
Wjb:__ZN11TimeManagerD2Ev
kng:_InternalEnumerator_1_System_Collections_IEnumerator_get_Current_m1503522504_gshared
mve:__Z26ListPool_1_Get_m3146528893P12Il2CppObjectPK10MethodInfo
yL:__ZN7mecanim8skeleton13SkeletonAlignEPKNS0_8SkeletonERKN4math7_float4ES7_i
BGc:__ZN19ShaderPropertySheet16SetVectorIndexedEN9ShaderLab16FastPropertyNameEifRK8Vector4fNS_8SetFlagsE
Y$k:_Type_get_IsAbstract_m1120089130
Gao:_Vector3_get_normalized_m2454957984_AdjustorThunk
$q:__ZN14SafeBinaryRead21TransferSTLStyleArrayIN4core12basic_stringIcNS1_20StringStorageDefaultIcEEEEEEvRT_17TransferMetaFlags
Ywn:_UriFormatException__ctor_m1115096473
evg:_InternalEnumerator_1_Dispose_m2818366163_AdjustorThunk
Qgk:_Array_InternalArray__IEnumerable_GetEnumerator_TisSlot_t384495010_m460993382_gshared
D2o:__ZN15dense_hashtableINSt3__24pairIK10KeyWrapperINS1_IP11Il2CppClassjEEES4_EES6_N6il2cpp8metadata14ArrayClassHashEN14dense_hash_mapIS6_S4_SB_NS6_14EqualsComparerINSA_17ArrayClassCompareEEENS0_9allocatorIS8_EEE9SelectKeyESF_SH_E9copy_fromERKSK_j
xdb:__ZN21EnlightenSceneMapping8TransferI19StreamedBinaryWriteEEvRT_
hsc:__Z29StdTemplateConversionFunctionIayEbPvR14SafeBinaryRead
CHa:__ZN9Scripting5Unity11Collections31NativeFixedLengthAttributeProxy9InitProxyEv
$fo:__ZL25UnresolvedVirtualCall_190P12Il2CppObject22OrderBlock_t1585977831S1_PK10MethodInfo
rCl:__Z55RuntimeInvoker_Boolean_t97287965_Nullable_1_t2603721331PFvvEPK10MethodInfoPvPS4_
wjn:_GUIUtility_IsExitGUIException_m3644066650
b4g:__Z64SetPropertyUtility_SetStruct_TisLineType_t4214648469_m1399434260P12Il2CppObjectPiiPK10MethodInfo
bYc:__Z40SpriteRenderer_CUSTOM_set_color_InjectedP12Il2CppObjectRK10ColorRGBAf
Isb:__ZN9Transform23VirtualRedirectTransferER19StreamedBinaryWrite
Jba:__ZN11UnityEngine15CloudWebService14DataDispatcher4StopEv
Hzj:__ZNK21CustomInfo_t43517979819get_IntegerDigits_4Ev
Ddm:__Z29Enumerator_Dispose_m786980821P21Enumerator_t652329154PK10MethodInfo
sdi:_StackBuilderSink_ExecuteAsyncMessage_m277782655
xvc:__ZNSt3__26vectorIN9ShaderLab20SerializedSubProgram12UAVParameterENS_9allocatorIS3_EEE8__appendEj
yng:_InternalEnumerator_1__ctor_m4191108945_gshared
W1l:_EqualityComparer_1_get_Default_m2685503012_gshared
wVo:__ZNK15dense_hashtableINSt3__24pairIK10KeyWrapperINS1_IPK9EventInfoP11Il2CppClassEEEjEES9_17ReflectionMapHashIS8_EN14dense_hash_mapIS9_jSD_NS9_14EqualsComparerINS0_8equal_toIS8_EEEENS0_9allocatorISB_EEE9SelectKeyESI_SK_E12test_deletedERK24dense_hashtable_iteratorISB_S9_SD_SM_SI_SK_E
q1c:__ZN5IMGUI9GUIWindow5OnGUIER8GUIState
S7n:_AudioConfigurationChangeHandler_EndInvoke_m4175380841
h_c:__Z55Register_UnityEngine_Texture2DArray_Internal_CreateImplv
avp:_GC_maybe_gc
oPc:__ZNK17AnimationCurveTplI11QuaternionfE8GetRangeEv
Amk:_Array_InternalArray__ICollection_CopyTo_TisSingle_t1397266774_m455540885_gshared
Wya:__ZN17ScriptingGCHandle7AcquireE18ScriptingObjectPtr25ScriptingGCHandleWeakness
MXg:_KeyCollection_System_Collections_ICollection_get_IsSynchronized_m829086683_gshared
ejl:__Z74RuntimeInvoker_RuntimeObject_RuntimeObject_Int64_t3736567304_RuntimeObjectPFvvEPK10MethodInfoPvPS4_
Eoo:_SessionStateChanged_Invoke_m4203746932
eWd:__ZNSt3__26__treeINS_12__value_typeIN4core12basic_stringIcNS2_20StringStorageDefaultIcEEEEN11UnityEngine9Analytics19RemoteSettingsValueEEENS_19__map_value_compareIS6_SA_NS_4lessIS6_EELb1EEE13stl_allocatorISA_L18MemLabelIdentifier6ELi16EEE16__construct_nodeIJNS_4pairIS6_S9_EEEEENS_10unique_ptrINS_11__tree_nodeISA_PvEENS_22__tree_node_destructorISF_ISP_LSG_6ELi16EEEEEEDpOT_
GDg:__Z75InternalEnumerator_1_System_Collections_IEnumerator_get_Current_m2395961985P31InternalEnumerator_1_t746136913PK10MethodInfo
DEa:__ZN9Scripting11UnityEngine17LightmapDataProxy12CleanupProxyEv
hdi:_ServerObjectReplySink_AsyncProcessMessage_m1580266605
fNl:_Enumerator__ctor_m1734342590_gshared
W2o:__ZN15dense_hashtableINSt3__24pairIK10KeyWrapperINS1_IP11Il2CppClassjEEES4_EES6_N6il2cpp8metadata14ArrayClassHashEN14dense_hash_mapIS6_S4_SB_NS6_14EqualsComparerINSA_17ArrayClassCompareEEENS0_9allocatorIS8_EEE9SelectKeyESF_SH_E21fill_range_with_emptyEPS8_SL_
Lxo:__ZN14dense_hash_mapI10KeyWrapperIPK11Il2CppClassEPKcN6il2cpp5utils11PointerHashIS1_EENS4_14EqualsComparerINSt3__28equal_toIS3_EEEENSC_9allocatorINSC_4pairIKS4_S6_EEEEE13set_empty_keyERSI_
JLi:__Z25Il2CppCodeGenWriteBarrierI30SecurityParameters_t2199972650EvPPT_S2_
dva:__ZN20BurstCompilerServiceC2Ev
sfn:_GUILayoutUtility_CreateGUILayoutGroupInstanceOfType_m1053115040
nSn:__ZNK46U3CAddScoreWithPipeU3Ec__Iterator0_t311897822116get_playerName_0Ev
P3l:_HashSet_1__ctor_m620629637_gshared
G5a:__Z21HasAlphaTextureFormat13TextureFormat
e6:__ZN12AudioManager6UpdateEv
uoj:_X509EnhancedKeyUsageExtension_ToString_m350388564
Byn:__Z30Comparison_1_Invoke_m668117148P24Comparison_1_t397019798922UILineInfo_t4195266810S1_PK10MethodInfo
Sv:__ZN8Animator12AddToManagerEv
lFj:_MissingFieldException__ctor_m3742452630
_tj:_X509Chain__ctor_m2674663382
Dca:__GLOBAL__sub_I_Runtime_Core_Callbacks_0_cpp
aXg:_Enumerator_System_Collections_IEnumerator_Reset_m1959936800_AdjustorThunk
lTm:_ReadOnlyCollection_1_System_Collections_Generic_IListU3CTU3E_Insert_m1121807192_gshared
UUb:__ZN23CachedSerializationDataD2Ev
Qmc:__ZNK25CameraStackRenderingState31CalculateStereoCameraTargetTypeEv
VPl:_Dictionary_2_System_Collections_ICollection_get_SyncRoot_m2020472285_gshared
wXa:__ZN14RenderSettings23VirtualRedirectTransferER14SafeBinaryRead
wCk:__ZNK43DecoderReplacementFallbackBuffer_t84114477923get_fallback_assigned_0Ev
Ykd:__ZNK13b2CircleShape5CloneEP16b2BlockAllocator
Imp:__ZN6il2cpp2os10ThreadImpl15CurrentThreadIdEv
Toh:__ZN18Slider_t390372890217set_m_FillRect_18EP25RectTransform_t3704657025
YDf:__ZN16VirtFuncInvoker1IP6Type_tP8String_tE6InvokeEjP12Il2CppObjectS3_
wbo:_Vector4_set_Item_m1183742235
fPn:_DragHandler_highlightPos_m3555889703
nXi:_Queue_CopyTo_m737385843
_Va:__ZN17GlobalGameManager8TransferI17RemapPPtrTransferEEvRT_
Guf:__ZL73FieldWithTarget_t3058750293_CustomAttributesCacheGenerator_m_StaticStringP21CustomAttributesCache
fqk:_SymmetricAlgorithm_get_Key_m3241860519
s8g:_U3CMouseDragOutsideRectU3Ec__Iterator1_Reset_m2233410497
wca:__GLOBAL__sub_I_Runtime_Camera_5_cpp
Jtd:__ZN10Collider2DC2E10MemLabelId18ObjectCreationMode
Srj:__ZN35X509ExtensionEnumerator_t247956065916set_enumerator_0EP12Il2CppObject
VOi:_ClientSessionInfo_get_HostName_m2118440995
q9m:_GUISettings_get_doubleClickSelectsWord_m3025565005
H0j:__ZNK20TextInfo_t381042552223get_customCultureName_2Ev
jKd:_UNITY_tt_face_load_fpgm
nNa:__Z17IsObjectAvailablei
mkb:__ZN12InputManagerD0Ev
cBm:_Queue_1_Peek_m1713833142_gshared
bTe:__ZL64DSASignatureFormatter_t2007981259_CustomAttributesCacheGeneratorP21CustomAttributesCache
ayi:_SimpleEnumerator_MoveNext_m3113120129
X5h:__ZNK32CADMethodCallMessage_t261798406010get__uri_4Ev
Kyg:__ZNK32InternalEnumerator_1_t139145510411get_array_0Ev
Npg:_InternalEnumerator_1_System_Collections_IEnumerator_get_Current_m2889979481_AdjustorThunk
_zo:__ZNK10KeyWrapperIP9FieldInfoE8isNormalEv
aAe:__ZNK19Graphic_t166033561119get_m_VertsDirty_12Ev
Akn:__ZNK25RepeatContext_t121486307613get_expr_pc_4Ev
kNh:_Rect_get_position_m2115952571
HGa:__ZN9Scripting11UnityEngine15ColorGamutProxy12CleanupProxyEv
X9e:__ZL94RenderTextureDescriptor_t1974534975_CustomAttributesCacheGenerator_U3CheightU3Ek__BackingFieldP21CustomAttributesCache
DYi:__ZNK15Slot_t38449501011get_value_1Ev
sRm:_ReadOnlyCollection_1_get_Item_m4005849861_gshared
aph:_Slider_get_direction_m3871593184
KMk:_ASN1_GetBytes_m3305539297
_wm:_List_1_Remove_m2092116835_gshared
ccf:__ZL86Logger_t274032455_CustomAttributesCacheGenerator_Logger_LogFormat_m3030796110____args2P21CustomAttributesCache
hXe:__ZL77Convert_t2465617642_CustomAttributesCacheGenerator_Convert_ToSByte_m717245755P21CustomAttributesCache
oMg:_DefaultComparer__ctor_m2039558311_gshared
Dla:__ZNK15MonoScriptCache7ReleaseEv
xvo:__ZN6il2cpp2vm5Class13HasReferencesEP11Il2CppClass
bIn:__ZNK23IndexedSet_1_t23452680818get_m_Dictionary_1Ev
nui:_CLSCompliantAttribute__ctor_m581760440
aj:_glBindTexture
DEp:_snprintf
nmi:__ZNK25SmallXmlParser_t97378783915get_xmlSpaces_3Ev
oEj:_InvalidCastException__ctor_m2551002860
_lk:_Array_InternalArray__ICollection_CopyTo_TisKeyValuePair_2_t2401056908_m4025041902_gshared
Kca:__GLOBAL__sub_I_Runtime_Graphics_5_cpp
SPp:_emscripten_glVertexAttrib1fv__wrapper
Uyh:_InvokableCallList_RemoveListener_m1769379719
Aqb:__Z36scripting_liveness_calculation_begin17ScriptingClassPtriPFvPP12Il2CppObjectiPvES3_PFvvES7_
bSb:__Z29Transfer_Blittable_ArrayFieldI18StreamedBinaryRead10Matrix4x4fEvRT_R9ArrayInfoRK23StaticTransferFieldInfo
OR:__ZN7mecanim12statemachine13StateConstant8TransferI24GenerateTypeTreeTransferEEvRT_
Weo:__ZL25UnresolvedVirtualCall_131P12Il2CppObjecthS0_PK10MethodInfo
yGh:_MonoBehaviour_Internal_IsInvokingAll_m2820042090
U8j:__ZN29Path_t1605229823_StaticFields22set_InvalidPathChars_0EP22CharU5BU5D_t3528271667
dv:__Z16AppendPathToHashRK5crc32PKc
Zbb:__ZN13ScreenManager20SetScreenOrientationE17ScreenOrientation
t5k:_UnitySerializationHolder_GetModuleData_m1550266881
Hnf:__ZL52InputMode_t3382566315_CustomAttributesCacheGeneratorP21CustomAttributesCache
Msk:_String_Equals_m1744302937
txh:_Display__ctor_m501911701
JPm:_ReadOnlyCollection_1_System_Collections_Generic_IListU3CTU3E_Insert_m1020890112_gshared
qrj:__ZNK28X509ChainElement_t146405633812get_status_1Ev
oee:__ZNK27PhysicsRaycaster_t43741952017get_m_EventMask_6Ev
sue:_Dropdown_get_onValueChanged_m2462066659
Xre:_DefaultControls_SetDefaultTextValues_m1943359795
nfc:__Z19SetupMotionMatricesR6CameraR18RPDataMotionVector
mqo:__ZL7log2_64y
hN:__ZN8Animator11AnimatorJob11AddPlayableEP17AnimationPlayablef
jCe:_GridLayoutGroup_get_cellSize_m2967185053
B5i:_CurrentSystemTimeZone_GetUtcOffset_m340358963
Q1m:_PKCS12_Decrypt_m1280162536
OA:__ZN7mecanim8skeleton19DestroySkeletonMaskEPNS0_12SkeletonMaskER20RuntimeBaseAllocator
pfd:__GLOBAL__sub_I_Physics2DScriptingClasses_cpp
eqg:_InternalEnumerator_1_get_Current_m3081223448_gshared
u7m:_Event_get_isMouse_m1058251071
IGg:__ZN32InternalEnumerator_1_t31866461069set_idx_1Ei
Jzi:_CaseInsensitiveHashCodeProvider_AreEqual_m1790260777
eqh:__ZN23SpriteState_t136298647922set_m_DisabledSprite_2EP17Sprite_t280657092
FZc:__Z43SceneManager_CUSTOM_GetActiveScene_InjectedRi
fDm:_Collection_1_IndexOf_m3762683187_gshared
ZEd:_otv_JSTF_validate
mSa:__ZN22CreateGpuProgramOutputC2Ev
dDi:_BigInteger_op_LessThanOrEqual_m3925173639
Izh:_PersistentCallGroup_Initialize_m4253175514
Csi:_Boolean_System_IConvertible_ToChar_m4279513009_AdjustorThunk
cfj:_DictionaryNodeEnumerator__ctor_m1005316675
PCf:__ZN25ParameterInfo_t186105659818set_PositionImpl_4Ei
lWh:_LogicalCallContext__ctor_m1263247987
EAj:_NumberFormatter_ScaleOrder_m3813786990
qZi:_Stack__ctor_m2602729586
dsl:__Z43RuntimeInvoker_VerticalWrapMode_t2936607737PFvvEPK10MethodInfoPvPS4_
pP:__Z21GetAnimatableBindTypeRK16TypeTreeIterator
aKa:__ZN11SpriteAtlas8TransferI14SafeBinaryReadEEvRT_
EQk:_PrivateKeyInfo_DecodeDSA_m771724585
MWe:__ZL81Convert_t2465617642_CustomAttributesCacheGenerator_Convert_ToDateTime_m1031474510P21CustomAttributesCache
lln:_Interval_get_Size_m4163671410_AdjustorThunk
p0g:__ZN22InputField_t376291743128set_m_CharacterValidation_28Ei
Klf:__ZL53EventHandle_t600343995_CustomAttributesCacheGeneratorP21CustomAttributesCache
QDc:__ZN8GUILayer12CleanupClassEv
qyi:_SynchronizedArrayListWrapper_get_SyncRoot_m3862302789
Inm:_List_1_System_Collections_IEnumerable_GetEnumerator_m839737540_gshared
d3k:_UInt32_System_IConvertible_ToSByte_m1061556466
X$f:_WellKnownClientTypeEntry__ctor_m2471908952
rvo:__ZN6il2cpp2vm5Class4InitEP11Il2CppClass
xb:invoke_vidi
pJj:_NumberFormatter_FormatRoundtrip_m19342689
Lfi:_RemotingServices_CreateClientProxyForContextBound_m783705199
dtl:__Z30RuntimeInvoker_Axis_t809944411PFvvEPK10MethodInfoPvPS4_
WOc:__ZNK15GUIEventManager15GetEventAtIndexEi
uXm:_InternalAsyncResult_get_ProceedAfterHandshake_m2508379800
KRd:__ZN2UI14CanvasRenderer17SyncDirtyElementsER8JobFence
$3i:_Convert_ToUInt16_m2952781888
bRg:_Enumerator_System_Collections_IEnumerator_get_Current_m3816090481_gshared
upp:__ZN6il2cpp5utils11StringUtils15StringDuplicateEPKc
XXl:_DefaultComparer_Equals_m2480133610_gshared
ada:__GLOBAL__sub_I_Runtime_Logging_0_cpp
w8a:__ZN7Cubemap34UpdateFileTextureUploadInstructionEP24TextureUploadInstructionj
GRa:__ZNK9ShaderLab21ShaderRasterStateDesc16ToGfxRasterStateEPK19ShaderPropertySheetS3_R14GfxRasterState
KZm:__ZN29TlsClientSettings_t248603950318set_certificates_1EP37X509CertificateCollection_t3399372417
Ssd:__ZN13BoxCollider2D8TransferI18StreamedBinaryReadEEvRT_
GAf:__ZN20LabelData_t36016739114set_maxStack_1Ei
KGl:_Array_Sort_TisVector3_t3722313464_m1915176437_gshared
UBp:__ZN6il2cpp2os9EventImplC2Ebb
Wkh:_ScrollRect_OnInitializePotentialDrag_m3139711961
Klm:_List_1_System_Collections_IList_get_IsFixedSize_m3566150119_gshared
x0k:_Type_GetType_m3605423543
Qrm:_List_1_get_Item_m2113769949_gshared
b1e:__ZL98NativePropertyAttribute_t1305929258_CustomAttributesCacheGenerator_U3CTargetTypeU3Ek__BackingFieldP21CustomAttributesCache
Iha:__ZN13HandleManagerC2Ev
gap:__ZN15dense_hashtableINSt3__24pairIK10KeyWrapperIP14Il2CppIUnknownEjEES5_N6il2cpp5utils11PointerHashIS3_EEN14dense_hash_mapIS5_jSB_NS5_14EqualsComparerINS0_8equal_toIS4_EEEENS0_9allocatorIS7_EEE9SelectKeyESG_SI_E9set_valueEPS7_RKS7_
BH:__ZNSt3__26vectorIN13AnimationClip9PPtrCurveE13stl_allocatorIS2_L18MemLabelIdentifier26ELi16EEE6resizeEj
cRh:_ScriptableObject_t2528358522_marshal_pinvoke
Lha:__Z20IsMatrixBuiltinParamPKcPi
sYo:__ZN6il2cpp2gc19AppendOnlyGCHashMapINSt3__24pairIPK10MethodInfoP11Il2CppClassEEP11Il2CppArray17ReflectionMapHashIS9_ENS2_8equal_toIS9_EEEC2Ev
tvk:_SecurityFrame_t1422462475_marshal_pinvoke
s8l:__ZNK41RijndaelTransform_t631222241_StaticFields9get_T0_19Ev
pSo:__ZN15dense_hashtableINSt3__24pairIK10KeyWrapperINS1_IPK10MethodInfoP11Il2CppClassEEEjEES9_17ReflectionMapHashIS8_EN14dense_hash_mapIS9_jSD_NS9_14EqualsComparerINS0_8equal_toIS8_EEEENS0_9allocatorISB_EEE9SelectKeyESI_SK_E16reset_thresholdsEv
wVk:_UnicodeEncoding_GetBytesInternal_m1902824297
dGc:__ZN8Renderer19PostInitializeClassEv
Whk:_Array_FindIndex_TisRuntimeObject_m2504082708_gshared
GRd:__ZNSt3__26__treeINS_12__value_typeINS_4pairIKiS3_EEN2UI14DepthSortLayerEEENS_19__map_value_compareIS4_S7_NS_4lessIS4_EELb1EEE13stl_allocatorIS7_L18MemLabelIdentifier1ELi16EEE25__emplace_unique_key_argsIS4_JRKNS_21piecewise_construct_tENS_5tupleIJOS4_EEENSK_IJEEEEEENS2_INS_15__tree_iteratorIS7_PNS_11__tree_nodeIS7_PvEEiEEbEERKT_DpOT0_
A5m:_X509Chain_FindCertificateRoot_m1937726457
Bsn:__ZNK22AnchorInfo_t33870111519get_pos_1Ev
e5f:__ZN25ObjectManager_t165306432526set__deserializedRecords_2EP21ArrayList_t2718874744
XWd:__ZN11UnityEngine15PlatformWrapper21GetVRPlayAreaGeometryER13dynamic_arrayI8Vector3fLj0EE
d5n:__ZNK28AudioClipPlayable_t78506902214get_m_Handle_0Ev
sxp:__ZN6il2cpp6icalls8mscorlib6System8Delegate23CreateDelegate_internalEP20Il2CppReflectionTypeP12Il2CppObjectP22Il2CppReflectionMethodb
gEk:__ZN28CodePointIndexer_t413443108615set_defaultCP_3Ei
wTg:_Enumerator_System_Collections_IEnumerator_get_Current_m921113401_AdjustorThunk
QAi:_DictionaryEntry_get_Value_m618120527_AdjustorThunk
mUb:__ZN18DelayedCallManager18CancelCallDelayed2E4PPtrI6ObjectEPF15CallObjectStatePS1_PvES7_
BFp:_threebyte_strstr
uVl:_Dictionary_2_InitArrays_m2036227893_gshared
rLa:__ZN25ThreadsafeLinearAllocator10ReallocateEPvji
Gug:__ZNK31InternalEnumerator_1_t34866412511get_array_0Ev
KGb:__Z18Transfer_BlittableI14SafeBinaryReadLb1E11QuaternionfEvRK29SerializationCommandArgumentsR31RuntimeSerializationCommandInfo
mkj:__ZNK24ServicePoint_t278696684412get_locker_8Ev
hwa:__ZN18SpriteAtlasManagerD0Ev
LWm:_SslHandshakeHash__ctor_m4169387017
ty:__ZN7mecanim9animation10SampleClipERKNS0_12ConstantClipEjPf
LUm:_ReadOnlyCollection_1_System_Collections_ICollection_get_IsSynchronized_m1150914347_gshared
S0m:__ZNK24GeneralNames_t270229415910get_uris_3Ev
qvl:__Z57RuntimeInvoker_Boolean_t97287965_KeyValuePair_2_t71524366PFvvEPK10MethodInfoPvPS4_
K3a:__ZN10Matrix4x4f8TransferI14SafeBinaryReadEEvRT_
jUo:__ZNK10KeyWrapperINSt3__24pairIPK12PropertyInfoP11Il2CppClassEEE14EqualsComparerINS0_8equal_toIS7_EEEclERKS8_SE_
lSb:__Z29Transfer_Blittable_ArrayFieldI18StreamedBinaryReadxEvRT_R9ArrayInfoRK23StaticTransferFieldInfo
eBn:__Z30Predicate_1_Invoke_m2308795536P23Predicate_1_t3776239877iPK10MethodInfo
fOb:__Z35Transfer_Blittable_FixedBufferFieldI19StreamedBinaryWritefEvRK29SerializationCommandArgumentsR31RuntimeSerializationCommandInfo
pZj:__ZNK30DateTimeFormatInfo_t240585370115get_dayNames_29Ev
Zdg:_CryptographicUnexpectedOperationException__ctor_m2381988196
MLn:__ZN30Board_t3688305287_StaticFields13set_reduce_28Eb
VM:__ZN14AvatarPlayback8StopTimeEv
iwg:_InternalEnumerator_1_System_Collections_IEnumerator_get_Current_m4213507601_gshared
hpa:__Z6AppendRKN4core12basic_stringIcNS_20StringStorageDefaultIcEEEEPKc
nso:_IgnoreAttribute__ctor_m3428881723
f2i:_Convert_ToDouble_m996590115
zqb:__ZL14OnWorldStoppedv
Zgk:_Array_InternalArray__IEnumerable_GetEnumerator_TisCustomAttributeNamedArgument_t287865710_m523021714_gshared
qck:__ZNK33UnmanagedMemoryStream_t423411766916get_fileaccess_4Ev
_fp:__ZN6il2cpp2vm6Object12NullableInitEPhP12Il2CppObjectP11Il2CppClass
DMm:__ZN21InterfaceFuncInvoker1I19Vector4_t3319028937iE6InvokeEjP11Il2CppClassP12Il2CppObjecti
K_m:__ZNK25X509Extension_t317339365315get_extnValue_2Ev
hS:__ZN18StreamedBinaryRead21TransferSTLStyleArrayI22OffsetPtrArrayTransferIKN4math7_float3EEEEvRT_17TransferMetaFlags
RAd:__ZN20TextRenderingPrivate19NativeTextGeneratorC2ERK11UTF16StringPNS_8FontImplE11ColorRGBA32ifRK8Vector2fbifiibffbbP13dynamic_arrayIN2UI8UIVertexELj0EE
sWi:_HashKeys_get_SyncRoot_m3757723936
jjn:_GUIUtility_RemoveCapture_m1294193818
m1b:__ZN7ApiGLES18ClearBufferSubDataEjN2gl12BufferTargetEll
g_k:__ZN32TimeSpan_t881159249_StaticFields14set_MaxValue_5E19TimeSpan_t881159249
Mvm:_List_1_CopyTo_m2746988508_gshared
U7o:__ZN6il2cpp6icalls8mscorlib6System5Array9GetLengthEP11Il2CppArrayi
S4c:__Z38Register_UnityEngine_GUIStyle_get_namev
nti:_Boolean_ToString_m663098404
FVa:__Znaj10MemLabelIdjPKci
R$b:__ZN13GfxDeviceGLES13AfterDrawCallEv
NLd:_Split_Cubic
wa:invoke_fiiii
S4g:__Z22List_1_Add_m2184749397P17List_1_t427135887P22Selectable_t3250028441PK10MethodInfo
$6g:_InputField_OnSubmit_m3583210804
kif:__ZL72GUISkin_t1244372282_CustomAttributesCacheGenerator_m_horizontalScrollbarP21CustomAttributesCache
m3n:_UnityWebRequest_set_uploadHandler_m54574009
Pan:_TextEditor_MoveGraphicalLineEnd_m1598222378
avn:_Uri_CheckHostName_m2213216182
PPp:_emscripten_glBindRenderbuffer__wrapper
CJl:_Mesh_SetUvsImpl_TisVector2_t2156229523_m3009194955_gshared
nFi:_HMAC_set_Key_m3535779141
Kvo:__ZNKSt3__26vectorIPK10Il2CppTypeNS_9allocatorIS3_EEE8max_sizeEv
MGl:_Array_Sort_TisVector4_t3319028937_TisVector4_t3319028937_m4254533673_gshared
qGg:_InternalEnumerator_1_System_Collections_IEnumerator_Reset_m729791527_AdjustorThunk
qxi:_ArrayListWrapper_Contains_m2641184447
yLd:_ft_black_render
Zca:__GLOBAL__sub_I_Runtime_Interfaces_2_cpp
hgl:__Z177RuntimeInvoker_Int32_t2950945753_RuntimeObject_Int32_t2950945753_Int32_t2950945753_RuntimeObject_Int32_t2950945753_EncoderFallbackBufferU26_t2343550713_CharU5BU5DU26_t3299466565PFvvEPK10MethodInfoPvPS4_
BKp:dynCall_viiifi
b4b:__ZN18GfxFramebufferGLES20ActiveContextChangedEPP17RenderSurfaceBaseS2_
$Op:_glAttachShader__wrapper
dcf:__ZL86Logger_t274032455_CustomAttributesCacheGenerator_Logger_LogFormat_m3300686007____args3P21CustomAttributesCache
Uhj:_FileWebRequest_System_Runtime_Serialization_ISerializable_GetObjectData_m1504466482
zDb:__Z19PluginsRenderMarkeri
hLg:_InternalEnumerator_1__ctor_m2307827786_AdjustorThunk
lje:__Z69ExecuteEvents_GetEventHandler_TisIDragHandler_t2288426503_m3060350475P12Il2CppObjectP22GameObject_t1113636619PK10MethodInfo
Evc:__ZNSt3__26vectorIN9ShaderLab20SerializedSubProgram15StructParameterENS_9allocatorIS3_EEE6assignINS_11__wrap_iterIPS3_EEEENS_9enable_ifIXaasr21__is_forward_iteratorIT_EE5valuesr16is_constructibleIS3_NS_15iterator_traitsISC_E9referenceEEE5valueEvE4typeESC_SC_
ecb:__ZN14Texture2DArray21AwakeFromLoadThreadedEv
yq:__ZN4PPtrI9TransformE8TransferI18StreamedBinaryReadEEvRT_
tTh:_Touch_get_position_m3109777936_AdjustorThunk
Adp:__ZNSt3__214__split_bufferIN6il2cpp2vm5Image20EmbeddedResourceDataERNS_9allocatorIS4_EEEC2EjjS7_
Igf:__ZL66SkeletonBone_t4134054672_CustomAttributesCacheGenerator_parentNameP21CustomAttributesCache
Ano:_AnimationScriptPlayable_GetHandle_m632811930
idi:_ServerObjectTerminatorSink_SyncProcessMessage_m2085589766
p$d:__Z69Register_UnityEngine_Analytics_UnityAnalyticsHandler_Internal_Destroyv
zsj:_X509Certificate2Collection_Add_m3151757943
UIe:__ZL83RuntimeArray_CustomAttributesCacheGenerator_RuntimeArray____LongLength_PropertyInfoP21CustomAttributesCache
NOg:_Comparer_1__cctor_m951016718_gshared
vld:__ZNSt3__227__insertion_sort_incompleteIR15DepthComparitorP8DepthHitEEbT0_S5_T_
Iim:__ZN21Enumerator_t2461772957set_l_0EP18List_1_t2651900714
Szi:_CaseInsensitiveHashCodeProvider_get_DefaultInvariant_m4264275163
sVi:__ZN27SslClientStream_t391462466128set_ServerCertValidation2_19EP42CertificateValidationCallback2_t1842476440
HYe:__ZL67IndexOutOfRangeException_t1578797820_CustomAttributesCacheGeneratorP21CustomAttributesCache
zgl:__Z195RuntimeInvoker_Int32_t2950945753_RuntimeObject_Int32_t2950945753_Int32_t2950945753_Int32_t2950945753_RuntimeObject_DecoderFallbackBufferU26_t3866396827_ByteU5BU5DU26_t4057885439_SByte_t1669577662PFvvEPK10MethodInfoPvPS4_
QFa:__ZN9Scripting11UnityEngine12Experimental9Playables27MaterialEffectPlayableProxy9InitProxyEv
IZm:__ZN21TlsStream_t236545396514set_canWrite_2Eb
d7:__ZN5physx14PxLightCpuTask12addReferenceEv
aUa:__ZNK15InstancingProps35FillInstanceBufferDispatchConstantsIN10Instancing14RenderLoopArgsEEEvPPvjjRK19ShaderPropertySheetRKT_
fxl:__Z86RuntimeInvoker_Int32_t2950945753_Color32_t2600501292_Color32_t2600501292_RuntimeObjectPFvvEPK10MethodInfoPvPS4_
ehp:__ZN6il2cpp2gc16GarbageCollector19InitializeFinalizerEv
nxp:__ZNSt3__26__treeINS_12__value_typeIPvxEENS_19__map_value_compareIS2_S3_NS_4lessIS2_EELb1EEENS_9allocatorIS3_EEE5eraseENS_21__tree_const_iteratorIS3_PNS_11__tree_nodeIS3_S2_EEiEE
Efh:__ZNK17Shadow_t77307431923get_m_UseGraphicAlpha_7Ev
n2c:__ZN10GUIManager10DoGUIEventER10InputEventb
tMb:__Z35Transfer_Blittable_FixedBufferFieldI24GenerateTypeTreeTransferxEvRK29SerializationCommandArgumentsR31RuntimeSerializationCommandInfo
NFd:_otv_LangSys_validate
yOh:_RectOffset_get_right_m2294081512
YHj:_MonoType_getFullName_m837685882
Q9f:_TypeMetadata_IsCompatible_m3213233239
gNf:__ZN25GenericVirtActionInvoker1IP20Delegate_t1188392813E6InvokeEPK10MethodInfoP12Il2CppObjectS1_
rEl:_Array_InternalArray__set_Item_TisLink_t544317964_m1234244240_gshared
pKd:_UNITY_TT_Init_Glyph_Loading
uSe:__ZL61SerializationBinder_t274213469_CustomAttributesCacheGeneratorP21CustomAttributesCache
ste:_OptionData_get_text_m2997376818
fWg:_Enumerator__ctor_m324536319_gshared
pBd:__ZN20TextRenderingPrivate7GUIText8TransferI19StreamedBinaryWriteEEvRT_
Zag:_SerializationInfo_GetBoolean_m1756153320
X$:__Z32AudioMixerDuckingProcessCallbackP21UnityAudioEffectStatePfS1_jii
hnh:_U3CClickRepeatU3Ec__Iterator0_System_Collections_IEnumerator_get_Current_m543328413
VFh:_Mesh_get_uv2_m3615020997
zPm:_ReadOnlyCollection_1_Contains_m2979956790_gshared
bFc:__ZN26CustomRenderTextureManagerD2Ev
Ubp:__ZN15dense_hashtableINSt3__24pairIK10KeyWrapperINS1_IPKcS4_EEEiEES6_24NamespaceAndNamePairHashN14dense_hash_mapIS6_iS9_NS6_14EqualsComparerI26NamespaceAndNamePairEqualsEENS0_9allocatorIS8_EEE9SelectKeyESD_SF_E9set_valueEPS8_RKS8_
GZl:_EqualityComparer_1_System_Collections_IEqualityComparer_Equals_m4172006498_gshared
zon:_PatternLinkStack_SetCurrent_m366511098
Wij:__ZN26HttpWebRequest_t166943651516set_mediaType_17EP8String_t
VX:__ZN12AudioManager8TransferI24GenerateTypeTreeTransferEEvRT_
l9j:_StreamAsyncResult_get_AsyncState_m3822420114
iEh:_Mathf_Round_m4098141538
TYa:__Z25GetBytesFromTextureFormat13TextureFormat
rI:__ZN13dynamic_arrayI11KeyframeTplI11QuaternionfELj0EE18resize_initializedEj12ResizePolicy
Cmi:__ZNK25SmallXmlParser_t97378783912get_reader_1Ev
aYb:__ZNK11PreloadData18GetInstanceIDArrayER13dynamic_arrayIiLj0EE
Qho:__ZL25UnresolvedVirtualCall_287P12Il2CppObjecti19Vector3_t3722313464PK10MethodInfo
DKb:__Z18Transfer_BlittableI17RemapPPtrTransferLb0EsEvRK29SerializationCommandArgumentsR31RuntimeSerializationCommandInfo
I8h:__ZNK24ErrorMessage_t124068807310get__uri_0Ev
rlf:__ZL64UnityAnalyticsHandler_t3011359618_CustomAttributesCacheGeneratorP21CustomAttributesCache
NJf:__ZN31OpCodes_t126150456_StaticFields19set_Conv_Ovf_U8_170E17OpCode_t123070264
RFj:_AmbiguousMatchException__ctor_m2012725345
l8m:__ZNK20GUIStyle_t395690151111get_m_Ptr_0Ev
zma:__Z32scripting_class_get_assemblyname17ScriptingClassPtr
UPd:__ZN2UI13CanvasManager8SortListEv
TWd:__ZN11UnityEngine15PlatformWrapper15GetVRDeviceNameEv
otf:__ZL109LayoutUtility_t2745813735_CustomAttributesCacheGenerator_LayoutUtility_U3CGetFlexibleWidthU3Em__3_m1091238571P21CustomAttributesCache
Orl:__Z99RuntimeInvoker_Boolean_t97287965_Int32_t2950945753_PointerEventDataU26_t867828220_SByte_t1669577662PFvvEPK10MethodInfoPvPS4_
htg:_InternalEnumerator_1_get_Current_m2128158355_AdjustorThunk
$Ab:__ZN9GfxDevice21RegisterNativeTextureE9TextureIDi16TextureDimension
jze:_GraphicRegistry__ctor_m1851575309
Oxl:__Z52RuntimeInvoker_Void_t1185182177_Keyframe_t4206410242PFvvEPK10MethodInfoPvPS4_
Uvj:__ZNK15Key_t272552300113get_pattern_0Ev
EZe:__ZL53TypeFilter_t2356120900_CustomAttributesCacheGeneratorP21CustomAttributesCache
Jyp:__ZN6il2cpp6icalls8mscorlib6System10Reflection4Emit11TypeBuilder20create_generic_classEP27Il2CppReflectionTypeBuilder
ZLj:__ZNK23AssemblyName_t27093193815get_keyToken_11Ev
m4b:__ZNK16UniformCacheGLES6SubmitEjRK13dynamic_arrayIN20GpuProgramParameters14ValueParameterELj0EERKS0_IiLj0EE
Jfk:_PlayableHandle_IsPlayableOfType_TisAnimationLayerMixerPlayable_t3631223897_m201603007_gshared
BVe:__ZL50Monitor_t2197244473_CustomAttributesCacheGeneratorP21CustomAttributesCache
zLo:__ZNSt3__26vectorIPK10MethodInfoNS_9allocatorIS3_EEE26__swap_out_circular_bufferERNS_14__split_bufferIS3_RS5_EE
WDi:_PrimalityTest_EndInvoke_m1035389364
T4:__Z60Register_UnityEngine_AudioListener_GetNumExtensionPropertiesv
Yh:_emscripten_glUniformMatrix4fv
_2o:__ZN15dense_hashtableINSt3__24pairIK10KeyWrapperINS1_IP11Il2CppClassjEEES4_EES6_N6il2cpp8metadata14ArrayClassHashEN14dense_hash_mapIS6_S4_SB_NS6_14EqualsComparerINSA_17ArrayClassCompareEEENS0_9allocatorIS8_EEE9SelectKeyESF_SH_E13set_empty_keyERKS8_
