nj:_glClearStencil
R1k:_UInt16_System_IConvertible_ToChar_m2096055221_AdjustorThunk
vfk:_Array_TrueForAll_TisRuntimeObject_m1084992726_gshared
djp:__ZN6il2cpp2vm5Array13GetByteLengthEP11Il2CppArray
uEl:_Array_InternalArray__set_Item_TisDateTime_t3738529785_m1331437427_gshared
aVn:_KeyBuilder_get_Rng_m3373220441
bGa:__ZN9Scripting11UnityEngine38ExcludeFromObjectFactoryAttributeProxy12CleanupProxyEv
gPa:__Z30GetIntermediateRendererManagerv
CDa:__ZN9Scripting11UnityEngine9Profiling13RecorderProxy9InitProxyEv
RQ:__ZN10StateRange8TransferI14SafeBinaryReadEEvRT_
E7a:__Z21SourceMipLevelForBlitiiii
D3a:__Z23SetSpriteMeshIndexCountP14SharedMeshDataj
n_k:_TimeSpan_get_Hours_m550761902
Oyc:__ZN9ShaderLab9SubShader15FindNamedPassesERKN4core12basic_stringIcNS1_20StringStorageDefaultIcEEEER13dynamic_arrayIPNS_4PassELj0EE
Mbf:__ZL63PlayableOutputHandle_t4208053793_CustomAttributesCacheGeneratorP21CustomAttributesCache
Iaa:__ZN11UnityEngine15CloudWebService26CloudServiceEventWithParam12ToJsonStringER9JSONWrite
RIc:__Z59Register_UnityEngine_PlayerConnectionInternal_DisconnectAllv
aYn:_AnalyticsEventTracker_SendEvent_m1365958832
Swp:___cxx_global_var_init_44437
L1e:__ZL54Application_t1852185770_CustomAttributesCacheGeneratorP21CustomAttributesCache
Bs:__ZN11UnityEngine9Animation28GenericAnimationBindingCacheD2Ev
K6m:_X509Store_LoadCrl_m1881903843
xGl:_Array_Sort_TisUICharInfo_t75501106_TisUICharInfo_t75501106_m722747892_gshared
WO:__ZN15AnimationBinder13SetFloatValueERK20BoundCurveDeprecatedf
gfn:_GUILayout_Button_m1340817034
Vnc:__Z18RestoreRenderStateR20CameraRenderOldStateR17ShaderPassContext
FMb:__Z18Transfer_BlittableI24GenerateTypeTreeTransferLb0E11ColorRGBA32EvRK29SerializationCommandArgumentsR31RuntimeSerializationCommandInfo
fDa:__ZN9Scripting11UnityEngine9Rendering23GraphicsDeviceTypeProxy12CleanupProxyEv
VSb:__Z25scripting_class_from_name17ScriptingImagePtrPKcS1_
GDl:_Array_InternalArray__Insert_TisSingle_t1397266774_m3161726127_gshared
hZo:__ZN14dense_hash_mapI10KeyWrapperINSt3__24pairIPK12PropertyInfoP11Il2CppClassEEEj17ReflectionMapHashIS8_ENS9_14EqualsComparerINS1_8equal_toIS8_EEEENS1_9allocatorINS2_IKS9_jEEEEE15set_deleted_keyERSH_
MUb:__Z29scripting_class_enum_basetype17ScriptingClassPtr
A6o:__ZN6il2cpp2vm22EmbeddedResourceRecordC2EOS1_
nlp:__GLOBAL__sub_I_Console_cpp
v1c:__ZN6IDList10BeginOnGUIEv
PKc:__Z18RegisterUnityClassI11TimeManagerEvPKc
qid:__ZN16PhysicsManager2D7RaycastERK3RayfiR12RaycastHit2D
qbo:__ZN32Vector3_t3722313464_StaticFields29set_positiveInfinityVector_13E19Vector3_t3722313464
UKg:_InternalEnumerator_1_get_Current_m1477715453_gshared
bcm:_Enumerator__ctor_m2827156589_AdjustorThunk
Nub:__ZNK20LocalFileSystemPosix6ParentERK13FileEntryDataRN4core12basic_stringIcNS3_20StringStorageDefaultIcEEEE
k5e:__ZL118TouchScreenKeyboard_t731888065_CustomAttributesCacheGenerator_TouchScreenKeyboard_Open_m3609399077____textPlaceholder6P21CustomAttributesCache
PGm:_Collection_1_System_Collections_IList_Remove_m1476284619_gshared
LHj:_MonoType_IsPrimitiveImpl_m2401722705
Tmk:_SHA1CryptoServiceProvider__ctor_m4195188793
t1o:__GLOBAL__sub_I_Thread_cpp
_ve:_Dropdown_Hide_m504034854
kJj:_NumberFormatter_NumberToString_m264078176
F2b:__ZN7ApiGLES17CopyBufferSubDataEjjlll
Fmk:_Array_InternalArray__ICollection_CopyTo_TisUInt64_t4134040092_m691431926_gshared
ylj:_IPAddress_ToString_m1181734207
Gbi:_MonoMethodMessage_GetArg_m2932717642
DCl:__Z74RuntimeInvoker_RuntimeObject_Score_t1179825972_RuntimeObject_RuntimeObjectPFvvEPK10MethodInfoPvPS4_
eTk:_StringBuilder_Append_m1965104174
Scd:__ZN5Unity9rapidjson15GenericDocumentINS0_4UTF8IcEE13JSONAllocatorS4_E11ParseStreamILj1ES3_NS0_25GenericInsituStringStreamIS3_EEEERS5_RT1_
Ewo:__ZNSt3__26vectorIPK10Il2CppTypeNS_9allocatorIS3_EEE7reserveEj
YFn:_UnityAction_1_Invoke_m610765085_gshared
wqi:_Array_GetValue_m116098292
HCi:_Kernel_modInverse_m652700340
flf:__ZL57CanvasRenderer_t2598313366_CustomAttributesCacheGeneratorP21CustomAttributesCache
k4c:__Z28GUIStyle_Get_Custom_PropFontP12Il2CppObject
a2c:__ZN5IMGUI18RepaintModalWindowER8GUIState
SRa:__ZNK15dense_hashtableINSt3__24pairIKN9ShaderLab7Program23ShaderKeywordSetAndHashEPKNS2_10SubProgramEEES4_NS3_24ShaderKeywordHashFunctorEN14dense_hash_mapIS4_S8_SA_NS0_8equal_toIS4_EE13stl_allocatorIS9_L18MemLabelIdentifier67ELi16EEE9SelectKeyESD_SG_E23find_position_with_hashERS5_j
kXj:_CompareInfo_Finalize_m404687489
kVk:_UTF8Decoder_GetChars_m1236346907
pMh:_Quaternion_GetHashCode_m2636680144_AdjustorThunk
Oin:_GUIStyle_Internal_CalcMinMaxWidth_Injected_m4148139125
oop:__ZN6il2cpp8metadata13GenericMethod9GetMethodEPK19Il2CppGenericMethod
br:__ZNSt3__26vectorIN4core12basic_stringIcNS1_20StringStorageDefaultIcEEEENS_9allocatorIS5_EEE7reserveEj
VMj:_Default_SelectProperty_m1220817815
uUh:_Transform_TransformPoint_m226827784
A_b:__ZN13GfxDeviceGLES11SetViewportERK5RectTIiE
E$c:__Z24Time_Get_Custom_PropTimev
Vf:_emscripten_glDepthRange
$Xm:_SslStreamBase_BeginNegotiateHandshake_m4180435790
arc:__ZNSt3__26vectorINS_4pairIN4core12basic_stringIcNS2_20StringStorageDefaultIcEEEES6_EE13stl_allocatorIS7_L18MemLabelIdentifier38ELi16EEE12__move_rangeEPS7_SC_SC_
tvc:__Z14resize_trimmedINSt3__26vectorIN9ShaderLab20SerializedSubProgram12UAVParameterENS0_9allocatorIS4_EEEEEvRT_j
jdd:__ZN5Unity9rapidjson13GenericReaderINS0_4UTF8IcEES3_13JSONAllocatorE11ParseObjectILj1ENS0_25GenericInsituStringStreamIS3_EENS0_15GenericDocumentIS3_S4_S4_EEEEvRT0_RT1_
krf:__ZL62Selectable_t3250028441_CustomAttributesCacheGenerator_m_ColorsP21CustomAttributesCache
Y0i:_Convert_ToDateTime_m2616935982
YYm:_SslStreamBase_EndWrite_m4073224031
roa:__ZNSt3__218__insertion_sort_3IRNS_6__lessI14ObjectLoadDataS2_EEPS2_EEvT0_S6_T_
opn:_Regex_GetGroupNamesArray_m3575729002
a7a:__ZN4crndL20crnd_default_reallocEPvjPjbS0_
fYo:__ZN15dense_hashtableINSt3__24pairIK10KeyWrapperIPK22Il2CppGenericParameterEPK24MonoGenericParameterInfoEES6_N6il2cpp5utils11PointerHashIS4_EEN14dense_hash_mapIS6_SA_SF_NS6_14EqualsComparerINS0_8equal_toIS5_EEEENS0_9allocatorISB_EEE9SelectKeyESK_SM_E13set_empty_keyERKSB_
S4a:__ZN18SpriteAtlasManager19AddRequestingSpriteE4PPtrI6SpriteE
FOc:__ZN16PackedQuatVector9PackQuatsEP11Quaternionfi
Mck:_UnmanagedMemoryStream_Write_m930787521
_mc:__ZN23ScriptableRenderContextC2Ev
HI:__ZN7mecanim9animation18ClipMuscleConstant8TransferI24GenerateTypeTreeTransferEEvRT_
oCe:_GridLayoutGroup_get_spacing_m2409263614
tPh:_Transform_get_parent_m835071599
Gyo:__ZNK10KeyWrapperIPKcE14EqualsComparerIN6il2cpp5utils13VmStringUtils21CaseSensitiveComparerEEclERKS2_SA_
kJd:_UNITY_FT_Stream_GetChar
Lfn:_GUIStyle_get_fixedWidth_m2576616348
TUb:__Z26BuildSerializationCacheFor17ScriptingClassPtrRb
z4b:__ZN7ApiGLES15BlitFramebufferEN2gl6HandleILNS0_10ObjectTypeE9EEENS0_15FramebufferReadES3_S3_iiiiiiiiNS0_15FramebufferTypeE
kkl:__Z112RuntimeInvoker_RuntimeObject_RuntimeObject_RuntimeObject_RuntimeObject_RuntimeObject_RuntimeObject_RuntimeObjectPFvvEPK10MethodInfoPvPS4_
pJg:_InternalEnumerator_1_System_Collections_IEnumerator_get_Current_m3553395619_AdjustorThunk
hbf:__ZL60ReadOnlyAttribute_t3518714744_CustomAttributesCacheGeneratorP21CustomAttributesCache
nqi:_Array_SetValue_m3998268557
E$l:_EqualityComparer_1__cctor_m818408565_gshared
Toe:_ColorBlock_set_highlightedColor_m2089444414_AdjustorThunk
Uck:_Array_get_swapper_TisColor32_t2600501292_m2310851009_gshared
lFd:_otv_PairPos_validate
lz:__ZN7mecanim9animation14CopyHumanPosesEPKNS0_18AnimationNodeStateEPS1_RKNS_6bitsetILj83EEE
ZLo:__ZN6il2cpp6icalls8mscorlib6SystemL8IsStaticEPK12PropertyInfo
tXb:__Z9InitInputv
_Xo:__ZN30dense_hashtable_const_iteratorINSt3__24pairIK10KeyWrapperIPK22Il2CppGenericParameterEPK24MonoGenericParameterInfoEES6_N6il2cpp5utils11PointerHashIS4_EEN14dense_hash_mapIS6_SA_SF_NS6_14EqualsComparerINS0_8equal_toIS5_EEEENS0_9allocatorISB_EEE9SelectKeyESK_SM_E30advance_past_empty_and_deletedEv
eOc:__Z23ClearVertexDataChannelsjj17ShaderChannelMaskR10VertexData
pzp:__ZNSt3__26__treeINS_12__value_typeINS_12basic_stringIcNS_11char_traitsIcEENS_9allocatorIcEEEEPFvvEEENS_19__map_value_compareIS7_SA_NS_4lessIS7_EELb1EEENS5_ISA_EEE13__lower_boundIS7_EENS_15__tree_iteratorISA_PNS_11__tree_nodeISA_PvEEiEERKT_SM_PNS_15__tree_end_nodeIPNS_16__tree_node_baseISK_EEEE
Myb:__ZN16MemoryFileSystem6DeleteER13FileEntryDatab
xel:__Z81RuntimeInvoker_Void_t1185182177_RuntimeObject_Int64_t3736567304_Int32_t2950945753PFvvEPK10MethodInfoPvPS4_
umm:_List_1_set_Item_m1979164443_gshared
Okk:_Array_InternalArray__ICollection_Add_TisLink_t3209266973_m77922316_gshared
Usi:_Boolean_System_IConvertible_ToUInt16_m3465173538_AdjustorThunk
k4g:_InputField_get_keyboardType_m1248105267
CIb:__Z29Transfer_Blittable_ArrayFieldI14SafeBinaryReadyEvRT_R9ArrayInfoRK23StaticTransferFieldInfo
x0:__ZN20SoundChannelInstance15setChannelGroupEPN4FMOD12ChannelGroupE
Omn:_Match__ctor_m2425511580
vxd:__ZN9Scripting11UnityEngine18CharacterInfoProxy9InitProxyEv
t1n:__Z24List_1_Clear_m2188935509P18List_1_t3628304265PK10MethodInfo
Gb:invoke_vifffii
dyb:__ZN20ArchiveStorageReader17MakeStorageUnusedEv
LQf:_MonoMethod__ctor_m3792454563
fxb:__ZNK25MultiBlocksMemoryFileData5CloneEv
Aug:_InternalEnumerator_1_System_Collections_IEnumerator_Reset_m3873091784_AdjustorThunk
NOo:__ZNK15dense_hashtableINSt3__24pairIK10KeyWrapperINS1_IPK14Il2CppAssemblyP11Il2CppClassEEEjEES9_17ReflectionMapHashIS8_EN14dense_hash_mapIS9_jSD_NS9_14EqualsComparerINS0_8equal_toIS8_EEEENS0_9allocatorISB_EEE9SelectKeyESI_SK_E23find_position_with_hashERSA_j
GJl:_LayoutGroup_SetProperty_TisSingle_t1397266774_m793506911_gshared
Sdg:_CryptoConfig_CreateFromName_m1538277313
gKf:__ZN31OpCodes_t126150456_StaticFields15set_Prefix7_191E17OpCode_t123070264
Nve:__Z36TweenRunner_1_StartTween_m1055628540P25TweenRunner_1_t352024108222FloatTween_t1274330004PK10MethodInfo
LJp:dynCall_iiiiiiiiiiii
C4g:_InputField_set_caretPositionInternal_m3823580651
tVd:__ZN18UnityConnectClient16IsServiceEnabledEv
Jnh:_Selectable_set_interactable_m3105888815
Hrb:__ZL26KeywordSetToStringDontSortRKNSt3__26vectorIN4core12basic_stringIcNS1_20StringStorageDefaultIcEEEENS_9allocatorIS5_EEEERS5_
Bwa:__ZN6prcoreL17RemapGenericFloatI16TexFormatRGFloat17TexFormatRGBAHalfEEvPKNS_9InnerInfoE
v2:__ZN12AudioManager22CreateFMODSoundFromWWWEP10IWWWStream15FMOD_SOUND_TYPE17FMOD_SOUND_FORMATjjbbP10SampleClip
xGc:__ZNK32RendererMaterialAnimationBinding15GenerateBindingERKN4core12basic_stringIcNS0_20StringStorageDefaultIcEEEEbRN11UnityEngine9Animation14GenericBindingE
ATf:_TargetException__ctor_m4172127019
sNd:__GLOBAL__sub_I_TilemapScriptingClasses_cpp
yqm:_List_1_CheckCollection_m274117203_gshared
WEa:__ZN9Scripting11UnityEngine21GradientAlphaKeyProxy9InitProxyEv
Dma:__ZN8Remapper23GetOrGenerateInstanceIDERK26SerializedObjectIdentifier
iE:__ZN17AnimationCurveTplI8Vector3fEC2ERKS1_
aqe:_ColorTween_get_startColor_m3792586410_AdjustorThunk
xfo:__ZL25UnresolvedVirtualCall_160P12Il2CppObjectfffPK10MethodInfo
YUd:__ZN9Scripting11UnityEngine25RemoteConfigSettingsProxy9InitProxyEv
HAj:_CustomInfo__ctor_m426096741
fae:_EventSystem_ToString_m3779610692
TTi:_RecordProtocol_BeginReceiveRecord_m295321170
X3a:__ZN6Sprite8TransferI24GenerateTypeTreeTransferEEvRT_
j$c:__Z48Register_UnityEngine_Transform_SetAsFirstSiblingv
azg:_InternalEnumerator_1_System_Collections_IEnumerator_get_Current_m694606607_gshared
a4a:__ZN7SubMesh8TransferI24GenerateTypeTreeTransferEEvRT_
Ht:__ZN9Scripting11UnityEngine31AnimatorOverrideControllerProxy12CleanupProxyEv
Drp:__ZN14Il2CppIMarshalC2Ev
Rso:_NativeTypeAttribute__ctor_m133676646
YXc:__Z48Register_UnityEngine_Application_get_absoluteURLv
XJm:_Collection_1_System_Collections_IList_Contains_m296643274_gshared
d4j:_DirectoryInfo__ctor_m126519516
iOf:_MethodBase_GetMethodFromIntPtr_m3014201362
dBd:__ZNK20TextRenderingPrivate7GUIText22GetTypeVirtualInternalEv
R_c:__ZN9Transform23SetSiblingIndexInternalEib
J8c:__ZN9JSONWrite8TransferI13dynamic_arrayIaLj0EEEEvRT_PKc17TransferMetaFlags
xFp:___fseeko
Fli:_X509Extension_Equals_m1222951829
Cx:__ZN7mecanim5human12HumanPoseSubERNS0_9HumanPoseERKS1_S4_
Sep:__ZN6il2cpp8metadata15GenericMetadata15GetGenericClassEiPK17Il2CppGenericInst
eHb:__Z18Transfer_BlittableI14SafeBinaryReadLb0E10Matrix4x4fEvRK29SerializationCommandArgumentsR31RuntimeSerializationCommandInfo
jUb:__Z24GetFixedBehaviourManagerv
AAp:__ZN6il2cpp2os16ReaderWriterLockC2Ev
hKo:__ZN6il2cpp2vm10ThreadPool4WaitEP17Il2CppAsyncResultPPv
Cki:_PKCS12_Encrypt_m2617413749
ez:__ZN7mecanim9animation24CreateAnimationNodeStateERKNS_18ValueArrayConstantEbbbR20RuntimeBaseAllocator
Oni:_Activator_CreateInstance_m94526014
lDp:_vfprintf
G2c:__ZN10GUIManager12AddGUIScriptER8ListNodeI13MonoBehaviourE
W$i:_DateTime_get_Month_m1566006993
ocm:_Enumerator_System_Collections_IEnumerator_get_Current_m472556657_AdjustorThunk
zZi:_Stack_Clear_m2010200235
Kga:__ZNSt3__26__treeI19RepeatingLogMessageNS_4lessIS1_EE13stl_allocatorIS1_L18MemLabelIdentifier74ELi16EEE12__find_equalIS1_EERPNS_16__tree_node_baseIPvEERPNS_15__tree_end_nodeISC_EERKT_
YBd:_cf2_getVStore
Dfe:_PointerEventData_set_pointerPressRaycast_m1363193059
cdc:__ZN20DynamicPropertySheetD0Ev
Njn:_TextEditor_OnLostFocus_m3728191196
sZf:_SafeHandle_Dispose_m4229010569
erc:__ZN14SafeBinaryRead17RegisterConverterEPKcS1_PFbPvRS_E
l2e:__ZL77RuntimePlatform_t4159857903_CustomAttributesCacheGenerator_OSXDashboardPlayerP21CustomAttributesCache
r3b:__ZN7ApiGLES20DrawElementsIndirectE16GfxPrimitiveTypejjj
lyf:_FieldBuilder_SetValue_m828035213
YG:__ZN7mecanim6memory16ChainedAllocator7ReserveEj
K2a:__ZN15NameToObjectMapI6ShaderNSt3__23mapI4PPtrIS0_EN4core12basic_stringIcNS5_20StringStorageDefaultIcEEEENS1_4lessIS4_EENS1_9allocatorINS1_4pairIKS4_S9_EEEEEENS1_8multimapIS9_S4_NSA_IS9_EENSC_INSD_IKS9_S4_EEEEEEE4FindERSK_
Tzn:__ZN28GenericInterfaceFuncInvoker0IfE6InvokeEPK10MethodInfoP12Il2CppObject
m$c:__Z21Object_CUSTOM_DestroyP12Il2CppObjectf
q9b:__ZN8Material26ResetAllCachedMaterialDataEP6Shader
Ono:__ZN21HumanBone_t246533951811set_limit_2E22HumanLimit_t2901552972
mKd:_UNITY_TT_Get_MM_Var
sCa:__ZN9Scripting11UnityEngine3U2D23SpriteAtlasManagerProxy9InitProxyEv
pag:_ObjectManager_AddFixup_m2154325362
nNg:_Comparer_1__cctor_m3761458313_gshared
x8i:_DateTimeOffset_CompareTo_m1350732322_AdjustorThunk
Z:invoke_diddi
XL:__ZN7mecanim4hand17Hand2SkeletonPoseEPKNS0_4HandEPKNS_8skeleton8SkeletonEPKNS0_8HandPoseEPNS4_13SkeletonPoseTIN4math4trsXEEE
KPd:__ZNK2UI6Canvas13GetRenderModeEv
ezh:_PersistentCall__ctor_m1217622171
Pnn:_PatternCompiler_EmitSet_m2815529224
dkk:_Array_compare_TisCustomAttributeTypedArgument_t2723150157_m1384644047_gshared
khi:_StrongName_get_TokenAlgorithm_m1794722022
Y4c:__Z56Register_UnityEngine_GUIStyle_get_contentOffset_Injectedv
pGb:__Z18Transfer_BlittableI14SafeBinaryReadLb0EiEvRK29SerializationCommandArgumentsR31RuntimeSerializationCommandInfo
vHo:__ZN6il2cpp2vm13MetadataCache30GetPropertyDefinitionFromIndexEi
nWd:__ZN22BaseUnityConnectClient17InitializeSessionERKN4core12basic_stringIcNS0_20StringStorageDefaultIcEEEES6_N19CloudServiceHandler13InitModeFlagsE
qKe:__ZL56KeyCollection_t4251528776_CustomAttributesCacheGeneratorP21CustomAttributesCache
opl:__Z74RuntimeInvoker_RuntimeObject_Int32_t2950945753_RuntimeObject_RuntimeObjectPFvvEPK10MethodInfoPvPS4_
F1i:_Decimal_op_Implicit_m1349849065
kxm:_List_1_get_Item_m200663048_gshared
WR:__ZN15SerializeTraitsI9OffsetPtrIN7mecanim9animation23BlendDirectDataConstantEEE8TransferI24GenerateTypeTreeTransferEEvRS4_RT_
xic:__ZN15JobDataGuardian11DecreaseRefI18ShadowMapJobHeaderEEvPT_
MPp:_emscripten_glDeleteBuffers__wrapper
lzg:_InternalEnumerator_1_MoveNext_m3664960764_AdjustorThunk
vTc:__ZN13MonoBehaviour34StopCoroutineFromEnumeratorManagedE18ScriptingObjectPtr
ju:__ZN9Scripting11UnityEngine10Animations36AnimationMotionXToDeltaPlayableProxy12CleanupProxyEv
rCc:__ZN2UI13RectTransform28HandleParentHierarchyChangesEPK15TransformAccessj
Dom:_List_1__ctor_m1345008423_gshared
c$g:__Z30Transform_1_Invoke_m4084479750P23Transform_1_t4218749037P12Il2CppObjectbPK10MethodInfo
wu:__ZN16MecanimAnimation40GetReadWriteGlobalSpaceSkeletonPoseFenceEPN5Unity9ComponentE
lao:_Vector3__ctor_m1719387948_AdjustorThunk
O6f:__ZNK31OpCodes_t126150456_StaticFields14get_Brfalse_56Ev
Eed:__ZN11UnityEngine9Analytics18SceneLoadTimeEvent12SetSceneLoadERKN4core12basic_stringIcNS2_20StringStorageDefaultIcEEEEiyyyy
b0i:_DateTimeOffset__ctor_m2084804982
Uwo:_WWW__ctor_m2915079343
HGd:_UNITY_tt_face_load_pclt
ASc:__ZL34GetComponentsImplementationRecurseILb1ELi0ELi2EEbR10GameObjectbRK17CompareParametersRK39GetComponentsImplementation_ReturnValue
l3n:_UnityWebRequest_set_downloadHandler_m970510352
Gqd:__ZN10ClipperLib7Clipper24InsertLocalMinimaIntoAELEx
PDh:_Material_GetTexture_m3545614349
v9m:_TextEditor_SelectCurrentParagraph_m1964167510
I8k:__Z64RuntimeInvoker_RuntimeObject_Int32_t2950945753_Int16_t2552820387PFvvEPK10MethodInfoPvPS4_
rpo:_RemoteSettings_RemoteSettingsBeforeFetchFromServer_m4228537265
Dza:__ZL47__ManagedRegistrationHelperFunction_CameraProxyPv
KZl:_EqualityComparer_1__cctor_m4244842342_gshared
_Vf:__Z23il2cpp_codegen_get_typePFvvEP8String_tbPKc
y1g:__ZNK22InputField_t376291743123get_m_InputTextCache_44Ev
oRh:_SendMouseEvents_DoSendMouseEvents_m2140870850
mZd:__ZN14UnityAnalyticsD0Ev
hon:_PatternCompiler_EmitJump_m3915926156
XZb:__Z18IsCompressedFormat14GraphicsFormat
gTf:_PropertyInfo_SetValue_m2777755129
Iag:_SerializationEntry_get_Name_m1530029541_AdjustorThunk
OQf:_MonoMethod_GetBaseDefinition_m2844667474
H_k:__Z33il2cpp_codegen_check_add_overflowxx
tt:__ZN9Scripting11UnityEngine12Experimental10Animations20AnimationStreamProxy12CleanupProxyEv
zt:__ZN9Scripting11UnityEngine15AvatarMaskProxy12CleanupProxyEv
t2e:__ZL73RuntimePlatform_t4159857903_CustomAttributesCacheGenerator_MetroPlayerARMP21CustomAttributesCache
xEo:__ZN14dense_hash_mapI10KeyWrapperIN6il2cpp5utils13dynamic_arrayIPK10Il2CppTypeLj4EEEEPFvvENS1_8metadata19Il2CppSignatureHashENS8_14EqualsComparerINSB_22Il2CppSignatureCompareEEENSt3__29allocatorINSG_4pairIKS8_SA_EEEEE15set_deleted_keyERSJ_
D_n:__Z33Dictionary_2_get_Item_m3214317455P24Dictionary_2_t1354619006P8String_tPK10MethodInfo
r$k:_TimeSpan_op_Subtraction_m3592306516
j1l:_EqualityComparer_1_System_Collections_IEqualityComparer_GetHashCode_m1517903420_gshared
bdb:__ZN26EnlightenSystemInformation8TransferI14SafeBinaryReadEEvRT_
ykf:__ZL67ContactFilter2D_t3805203441_CustomAttributesCacheGenerator_maxDepthP21CustomAttributesCache
evc:__ZN15dense_hashtableINSt3__24pairIKiN4core17string_with_labelILi1EEEEEi18SInt32HashFunctionN14dense_hash_mapIiS5_S7_NS0_8equal_toIiEE13stl_allocatorIS6_L18MemLabelIdentifier1ELi16EEE9SelectKeyESA_SD_E13set_empty_keyERKS6_
AZb:__ZN22VertexDeclarationCacheC2Ev
iDa:__ZN9Scripting11UnityEngine9Rendering18CommandBufferProxy9InitProxyEv
BQa:__ZN27PerObjectLightCullingOutputD2Ev
Djb:__ZN12MeshRendererD0Ev
a4:__ZN12AudioManager35GetCurrentSpatializerDefinitionNameEv
tyj:_Int16_CompareTo_m3705372115
Gm:_utime
Hbf:__ZL56PlayableGraph_t3515989261_CustomAttributesCacheGeneratorP21CustomAttributesCache
F_o:__ZNSt3__26vectorIN6il2cpp2vm17TypeNameParseInfoENS_9allocatorIS3_EEE8allocateEj
H1h:_Context_NotifyDynamicSinks_m1841702879
Cmn:_Mark_get_Index_m3048692661_AdjustorThunk
ljl:__Z128RuntimeInvoker_Void_t1185182177_RuntimeObject_BooleanU26_t4125257963_SByte_t1669577662_Int32U26_t1369213839_Int32U26_t1369213839PFvvEPK10MethodInfoPvPS4_
fp:FUNCTION_TABLE_viiiiif
EMg:_DefaultComparer_Compare_m3931992727_gshared
JZg:__Z30Transform_1_Invoke_m3750720560P23Transform_1_t2448278169iP12Il2CppObjectPK10MethodInfo
ip:FUNCTION_TABLE_viiiiii
BKg:_InternalEnumerator_1_System_Collections_IEnumerator_get_Current_m1847780851_AdjustorThunk
egn:_GUILayoutUtility_get_spaceStyle_m3392862907
$Bj:_Int32_System_IConvertible_ToType_m3009233912_AdjustorThunk
c0i:_DateTimeOffset__ctor_m74032857
kmi:_SmallXmlParser_Error_m3899025466
C_h:_ConfigHandler_ParseElement_m3124222564
C0k:_Type_type_is_assignable_from_m76737532
T2a:__ZN14PlayableOutput17SetSourcePlayableEP8Playable
Vmb:__ZNSt3__26vectorIN4core12basic_stringIcNS1_20StringStorageDefaultIcEEEE13stl_allocatorIS5_L18MemLabelIdentifier13ELi16EEE8__appendEj
F3:__Z18RegisterUnityClassI9AudioClipEvPKc
KM:__ZN7mecanim9animation29MotionOutputGetDeltaTransformEPKNS0_12MotionOutputE
Ejd:__ZN24b2ChainAndCapsuleContact8EvaluateEP10b2ManifoldRK11b2TransformS4_
lWk:_EventWaitHandle__ctor_m3773182490
LSg:_Enumerator_get_CurrentValue_m3103267885_gshared
dYj:_CultureInfo_get_Parent_m672689885
owp:__ZN6il2cpp6icalls8mscorlib6System10Reflection4Emit13ModuleBuilder13RegisterTokenEP29Il2CppReflectionModuleBuilderP12Il2CppObjecti
Hqj:_X509Certificate2_GetValueAsString_m1348462142
ZXm:_SslStreamBase_NegotiateHandshake_m2455724401
YNo:__ZN6il2cpp2os4File9SetLengthEPNS0_10FileHandleExPi
YZc:__Z37RenderTexture_CUSTOM_SetSRGBReadWriteP12Il2CppObjecth
RRp:_glGetShaderInfoLog__wrapper
vdf:__ZL63SpriteBone_t303320096_CustomAttributesCacheGenerator_m_ParentIdP21CustomAttributesCache
Pg:_emscripten_glGetTexParameteriv
nPp:_glGenTextures__wrapper
fCp:__ZN6il2cpp8metadata21Il2CppGenericInstHash4HashEPK17Il2CppGenericInst
Qvc:__ZN9ShaderLab20SerializedSubProgram14ConstantBufferaSERKS1_
dgf:__ZL74SharedBetweenAnimatorsAttribute_t2857104338_CustomAttributesCacheGeneratorP21CustomAttributesCache
K$a:__ZN8PlayableD0Ev
iro:_ContactFilter2D_SetLayerMask_m3440334821
Jm:emscriptenWebGLGetBufferBinding
TCo:__ZNK26InteropDataToTypeConverterclERK17Il2CppInteropData
Tko:_CanvasGroup_IsRaycastLocationValid_m2128397950
zoh:_Slider_UpdateCachedReferences_m3259451627
lhl:__Z50RuntimeInvoker_Double_t594665363_Double_t594665363PFvvEPK10MethodInfoPvPS4_
EHa:__ZN9Scripting5Unity11Collections49NativeDisableParallelForRestrictionAttributeProxy9InitProxyEv
O4o:__ZN15dense_hashtableINSt3__24pairIK10KeyWrapperINS1_IP11Il2CppClassjEEES4_EES6_N6il2cpp8metadata14ArrayClassHashEN14dense_hash_mapIS6_S4_SB_NS6_14EqualsComparerINSA_17ArrayClassCompareEEENS0_9allocatorIS8_EEE9SelectKeyESF_SH_E6insertERKS8_
Lwe:_U3CShowU3Ec__AnonStorey1_U3CU3Em__0_m2340880019
QYd:__ZN22BaseUnityConnectClient38PrepareConfigRequestOnMainThreadStaticEPS_
onh:_Selectable_OnSetProperty_m1693943217
DBk:_ASCIIEncoding_GetString_m58523364
Z$m:_TlsStream_Flush_m3793197834
ytb:__ZN22LocalFileSystemHandler9MakeLocalER13FileEntryDatab
wqp:__ZN6il2cpp2vm8Profiler10AllocationEP12Il2CppObjectP11Il2CppClass
cpf:__ZL61Graphic_t1660335611_CustomAttributesCacheGenerator_m_MaterialP21CustomAttributesCache
bKf:__ZN31OpCodes_t126150456_StaticFields18set_Endfinally_186E17OpCode_t123070264
Sva:__Z13FormatOrderedPKcz
PFg:_InternalEnumerator_1_get_Current_m1506120701_AdjustorThunk
bkb:__ZN11TimeManager23VirtualRedirectTransferER18StreamedBinaryRead
_nh:_Selectable_IsPressed_m907486548
Lxd:__ZN14SafeBinaryRead21TransferSTLStyleArrayI10vector_mapINSt3__24pairIttEEfN20TextRenderingPrivate8FontImpl14KerningCompareENS2_9allocatorINS3_IS4_fEEEEEEEvRT_17TransferMetaFlags
$Ni:_TlsServerFinished__ctor_m1445633918
Uyj:_NumberFormatter_FastIntegerToString_m390846811
kch:__ZN21InterfaceFuncInvoker0IfE6InvokeEjP11Il2CppClassP12Il2CppObject
Vib:__ZN14CompressedMesh10GetQualityE15MeshCompression
Pjc:__ZN25DeferredRenderLoopScratchD0Ev
jA:__ZN27AnimationLayerMixerPlayable14SetInputWeightEif
YAa:__ZL54__ManagedRegistrationHelperFunction_PlayableAssetProxyPv
enl:__Z83RuntimeInvoker_Void_t1185182177_RuntimeObject_Single_t1397266774_Single_t1397266774PFvvEPK10MethodInfoPvPS4_
Aee:_PhysicsRaycaster_Raycast_m776323695
Z8n:_UnityException__ctor_m1456865679
yx:__ZN7mecanim9animation17EvaluateHumanPoseERKNS0_18ClipMuscleConstantERKNS0_15ClipMuscleInputEPKfRKNS0_12MotionOutputERNS_5human9HumanPoseE
QNo:__ZN6il2cpp2osL14FindFileHandleERK4stat
Hng:__Z44InternalEnumerator_1_get_Current_m3073360606P32InternalEnumerator_1_t2041360493PK10MethodInfo
y2d:__ZN21DownloadHandlerBufferD0Ev
hhm:__Z65Enumerator_System_Collections_IEnumerator_get_Current_m1540440674P22Enumerator_t1222580846PK10MethodInfo
bvc:__ZN15dense_hashtableINSt3__24pairIKiN4core17string_with_labelILi1EEEEEi18SInt32HashFunctionN14dense_hash_mapIiS5_S7_NS0_8equal_toIiEE13stl_allocatorIS6_L18MemLabelIdentifier1ELi16EEE9SelectKeyESA_SD_E9copy_fromERKSG_j
bha:__Z34UnregisterCreateThreadCallbackImplPFvPK23UnityProfilerThreadDescPvES2_
JNj:_CustomAttributeNamedArgument_GetHashCode_m2317130892
mnb:__ZN15ResourceManagerD0Ev
cSa:__ZN22CreateGpuProgramOutputD2Ev
gwm:_List_1_get_Item_m1378751541_gshared
zfn:_GUILayout_EndArea_m2046611416
kEc:__ZN11HaloManagerC2Ev
vR:__ZN7mecanim9animation23BlendDirectDataConstant8TransferI14SafeBinaryReadEEvRT_
mvd:__Z50Physics2D_CUSTOM_RaycastNonAlloc_Internal_InjectedRK8Vector2fS1_fRK13ContactFilterP11Il2CppArray
ZXd:__ZN11UnityEngine9Analytics18ConnectSessionInfo8TransferER9JSONWrite
gyc:__ZN9ShaderLab14SerializedPass8TransferI19StreamedBinaryWriteEEvRT_
jYl:_EqualityComparer_1__cctor_m3766928733_gshared
cnk:_SHA1CryptoServiceProvider_Finalize_m1793183797
c$i:_Convert_ToByte_m4146281512
T3l:_HashSet_1_System_Collections_Generic_ICollectionU3CTU3E_CopyTo_m408073502_gshared
dHi:_EncryptedPrivateKeyInfo_get_EncryptedData_m491452551
Ntb:__ZN12HandlerChain4OpenER13FileEntryData14FilePermission16FileAutoBehavior
Blk:_Array_InternalArray__ICollection_Add_TisPlayerLoopSystem_t105772105_m1930641144_gshared
Fyl:__Z72RuntimeInvoker_Void_t1185182177_Int32_t2950945753_RaycastHit_t1056001966PFvvEPK10MethodInfoPvPS4_
JRo:__ZN15dense_hashtableINSt3__24pairIK10KeyWrapperINS1_IPK10MethodInfoP11Il2CppClassEEEjEES9_17ReflectionMapHashIS8_EN14dense_hash_mapIS9_jSD_NS9_14EqualsComparerINS0_8equal_toIS8_EEEENS0_9allocatorISB_EEE9SelectKeyESI_SK_E6insertERKSB_
qV:__ZN9Scripting11UnityEngine2XR5Tango14GridIndexProxy9InitProxyEv
Dpb:__ZN13RendererScene23UpdatePreviousFrameDataEii
PGh:_MonoBehaviour_StopCoroutine_m615723318
QYc:__Z50Register_UnityEngine_CullingGroup_FinalizerFailurev
psk:_SecurityPermission_IsSubsetOf_m545000671
rqb:__ZN27UnloadUnusedAssetsOperationD0Ev
RZc:__Z36Texture3D_CUSTOM_Internal_CreateImplP12Il2CppObjectiii14GraphicsFormat20TextureCreationFlags
Kzc:__ZN12ShaderErrors11ShaderErrorC2EOS0_
IGp:__ZNKSt3__221__basic_string_commonILb1EE20__throw_out_of_rangeEv
Owh:_Cursor_get_lockState_m2828192107
Tem:__ZN22Enumerator_t242665817213set_current_3E25RaycastResult_t3360306849
hW:__GLOBAL__sub_I_Runtime_Video_0_cpp
kzk:_String_Format_m630303134
gFp:___ofl_add
Gnl:__Z109RuntimeInvoker_Boolean_t97287965_RuntimeObject_Int32_t2950945753_Int32_t2950945753_Int32_t2950945753_IntPtr_tPFvvEPK10MethodInfoPvPS4_
VAa:__ZL57__ManagedRegistrationHelperFunction_PlayerConnectionProxyPv
VXo:__ZNK15dense_hashtableINSt3__24pairIK10KeyWrapperIPK22Il2CppGenericParameterEPK24MonoGenericParameterInfoEES6_N6il2cpp5utils11PointerHashIS4_EEN14dense_hash_mapIS6_SA_SF_NS6_14EqualsComparerINS0_8equal_toIS5_EEEENS0_9allocatorISB_EEE9SelectKeyESK_SM_E3endEv
GP:__ZN26AnimatorOverrideController23VirtualRedirectTransferER24GenerateTypeTreeTransfer
Kwm:_List_1_AddEnumerable_m2724989594_gshared
srl:__Z82RuntimeInvoker_Vector2_t2156229523_Vector2_t2156229523_RuntimeObject_RuntimeObjectPFvvEPK10MethodInfoPvPS4_
_Vc:__Z70Register_UnityEngine_Playables_PlayableHandle_GetPlayableType_Injectedv
dFi:_ARC4Managed_TransformBlock_m1687647868
wj:_glCopyTexSubImage2D
FNp:_glActiveTexture__wrapper
R5l:_RIPEMD160Managed_CompressFinal_m497690796
KVb:__ZN18ScreenManagerWebGL13SetShowCursorEb
v7b:__ZN13DrawImmediateC2ER9GfxDevice
CDp:_frexp
sDp:_fmt_x
eSd:__ZN2UI13CanvasManager14GetRenderOrderEPKNS_6CanvasE
aHb:__Z18Transfer_BlittableI14SafeBinaryReadLb0E5RectTIfEEvRK29SerializationCommandArgumentsR31RuntimeSerializationCommandInfo
zDj:_NumberFormatter_NumberToString_m2562899600
tFd:_otv_u_C_x_Ox
bQp:_emscripten_glGenVertexArrays__wrapper
tDp:_fmt_o
$5k:_Version_Clone_m1749041863
CRb:__ZL22Transfer_ManagedObjectI18StreamedBinaryReadLb1EEvRK29SerializationCommandArgumentsR31RuntimeSerializationCommandInfo
tZg:_ShimEnumerator_get_Key_m4155849607_gshared
k6a:__ZN6prcoreL21CreateRemapAnyBlitterE13TextureFormatS0_
AIi:_RSAManaged_ExportParameters_m1754454264
vPc:__ZN17AnimationCurveTplIfE16StripInvalidKeysEv
eti:_Boolean_Equals_m535526264_AdjustorThunk
sSd:__ZNK2UI6Canvas17GetSortingLayerIDEv
XRc:__ZL12HashLen0to16PKcj
wld:__ZN14Raycast2DQuery8RunQueryEb
dfb:__ZN8Renderer24SetupNewRendererForSceneEv
v0k:_Type_internal_from_name_m1721940673
wTn:_U3CGetSingleScoreU3Ec__Iterator4_MoveNext_m2089324518
rqc:__ZN13ModuleManager4LoadEv
NNm:_Collection_1_ConvertItem_m2914830459_gshared
nRj:_Environment_get_TickCount_m2088073110
j9h:_RemotingServices_GetMethodBaseFromName_m3194612939
lad:__Z35Transfer_Blittable_FixedBufferFieldI8JSONReadtEvRK29SerializationCommandArgumentsR31RuntimeSerializationCommandInfo
tMc:__ZN14PlayableOutput6HandleEv
h3a:__ZNK6Sprite22GetTypeVirtualInternalEv
VIf:__ZN31OpCodes_t126150456_StaticFields15set_Ldsflda_124E17OpCode_t123070264
VJ:__ZN7mecanim5human9HumanGoal8TransferI19StreamedBinaryWriteEEvRT_
Y4d:__ZN13RuntimeStaticINSt3__26vectorI23UnityVRDeviceDefinition13stl_allocatorIS2_L18MemLabelIdentifier90ELi16EEEELb0EE13StaticDestroyEPv
io:FUNCTION_TABLE_iiiiiiiiiiiiii
Gso:_NativePropertyAttribute__ctor_m2033094153
Pci:_ReturnMessage_GetArg_m3510565487
kGd:_UNITY_tt_get_cmap_info
NVi:_SslClientStream_RaiseServerCertificateValidation_m3477149273
FNb:__Z29Transfer_Blittable_ArrayFieldI24GenerateTypeTreeTransfer5RectTIiEEvRT_R9ArrayInfoRK23StaticTransferFieldInfo
XWa:__ZN16ReflectionProbes8ScheduleEN18ReflectionProbeJob7JobTypeEP15ReflectionProbei
lyn:__Z30Comparison_1_Invoke_m568154215P23Comparison_1_t83093314522RaycastHit_t1056001966S1_PK10MethodInfo
WOi:_ClientSessionInfo_KeepAlive_m1020179566
Uoa:__ZN16MessageForwarder13HandleMessageEPviR11MessageData
nvb:__Z18IsDirectoryCreatedRKN4core12basic_stringIcNS_20StringStorageDefaultIcEEEE
Zrk:_String_FormatHelper_m3913915042
XNl:_Enumerator_System_Collections_IEnumerator_get_Current_m183009269_gshared
TOd:__ZN2UI13CanvasManagerD2Ev
ZMj:_ConstructorInfo__cctor_m1016079270
Eyo:__ZN15dense_hashtableINSt3__24pairIK10KeyWrapperIPKcEP11Il2CppClassEES5_N6il2cpp5utils11StringUtils12StringHasherIS4_EEN14dense_hash_mapIS5_S8_SE_NS5_14EqualsComparerINSB_13VmStringUtils21CaseSensitiveComparerEEENS0_9allocatorIS9_EEE9SelectKeyESJ_SL_E15set_deleted_keyERKS9_
zni:_AttrListImpl_get_Names_m977594476
HNj:_CustomAttributeData_GetHashCode_m3727773664
cAd:_UNITY_FT_GlyphLoader_Done
TXo:__ZN15dense_hashtableINSt3__24pairIK10KeyWrapperIPK22Il2CppGenericParameterEPK24MonoGenericParameterInfoEES6_N6il2cpp5utils11PointerHashIS4_EEN14dense_hash_mapIS6_SA_SF_NS6_14EqualsComparerINS0_8equal_toIS5_EEEENS0_9allocatorISB_EEE9SelectKeyESK_SM_E12expand_arrayEjN21dense_hash_map_traits17integral_constantIbLb0EEE
Xcf:__ZL95SceneManager_t2787271929_CustomAttributesCacheGenerator_SceneManager_GetActiveScene_m1825203488P21CustomAttributesCache
aTf:_Pointer_Box_m389276611
yFb:__ZNK17InstancingBatcher15RenderInstancesERK19ShaderPropertySheetRKNS_22RenderInstancesConfigsERK11MeshBuffersRK16DrawBuffersRange16VertexInputMasks
ocj:_StackTrace_get_FrameCount_m344690939
nck:_UnexceptionalStreamWriter_Write_m363195622
Qck:_Array_get_swapper_TisRuntimeObject_m1378919517_gshared
HAd:__ZN20TextRenderingPrivate25ReadFontFileAndAddToCacheERKN4core12basic_stringIcNS0_20StringStorageDefaultIcEEEE
wxd:__ZN9Scripting11UnityEngine18CharacterInfoProxy12CleanupProxyEv
jHd:_tt_cmap14_char_var_index
E7:__ZNSt3__26__treeINS_12__value_typeIN19CloudServiceHandler11ServiceTypeEPS2_EENS_19__map_value_compareIS3_S5_NS_4lessIS3_EELb1EEE13stl_allocatorIS5_L18MemLabelIdentifier88ELi16EEE12__find_equalIS3_EERPNS_16__tree_node_baseIPvEENS_21__tree_const_iteratorIS5_PNS_11__tree_nodeIS5_SG_EEiEERPNS_15__tree_end_nodeISI_EESJ_RKT_
yro:_Physics2D_Raycast_m1700114981
O5g:_Selectable_OnPointerDown_m1086067264
pLd:_psh_globals_new
Vue:_Dropdown_SetupTemplate_m628218778
b2j:_Guid_Equals_m3683678873_AdjustorThunk
_Vk:_Thread_GetCompressedStack_m2923422412
sFh:_Matrix4x4_MultiplyPoint3x4_m4145063176
Loj:_X509BasicConstraintsExtension_ToString_m1809935297
tzb:__ZN9GfxDevice20SetMaxBufferedFramesEi
vRg:__Z36KeyValuePair_2_get_Value_m1669764045P26KeyValuePair_2_t3842366416PK10MethodInfo
bgd:__ZN10Collider2D19WakeAllBodyContactsEv
mJl:_GameObject_GetComponents_TisRuntimeObject_m1246177135_gshared
WHf:__ZN31OpCodes_t126150456_StaticFields15set_Ldind_I2_71E17OpCode_t123070264
gFj:_MethodAccessException__ctor_m3542088436
zsc:__Z23ConvertIntegerToTypePtrIsEbPvR14SafeBinaryRead
Qhd:__ZN12b2MouseJoint11ShiftOriginERK6b2Vec2
Kwo:__ZN6il2cpp2vm5Class12HasAttributeEP11Il2CppClassS3_
ixi:_ArrayListWrapper_get_Capacity_m51087796
y_c:__Z43Transform_CUSTOM_set_localPosition_InjectedP12Il2CppObjectRK8Vector3f
$Fb:__ZN15SerializeTraitsI11MonoManagerE8TransferI18StreamedBinaryReadEEvRS0_RT_
EYl:_EqualityComparer_1_System_Collections_IEqualityComparer_GetHashCode_m2230215241_gshared
ksf:__ZL60ContentSizeFitter_t3850442145_CustomAttributesCacheGeneratorP21CustomAttributesCache
Qto:__ZN15dense_hashtableINSt3__24pairIK10KeyWrapperIPK22Il2CppGenericParameterEP11Il2CppClassEES6_N6il2cpp5utils11PointerHashIS4_EEN14dense_hash_mapIS6_S9_SE_NS6_14EqualsComparerINS0_8equal_toIS5_EEEENS0_9allocatorISA_EEE9SelectKeyESJ_SL_EC2ERKSO_j
LBi:_Hashtable_Contains_m2145146412
m1e:__ZL64UnmarshalledAttribute_t1517743549_CustomAttributesCacheGeneratorP21CustomAttributesCache
Qya:__ZN6prcoreL29inner_stretch_rgb565_bilinearEPKNS_9InnerInfoE
$Qg:_Enumerator__ctor_m1195706188_AdjustorThunk
VDf:_TypeBuilder__ctor_m3644689907
RAh:_MaterialEffectPlayable_Equals_m3750885802
vOo:__ZNK15dense_hashtableINSt3__24pairIK10KeyWrapperINS1_IPK14Il2CppAssemblyP11Il2CppClassEEEjEES9_17ReflectionMapHashIS8_EN14dense_hash_mapIS9_jSD_NS9_14EqualsComparerINS0_8equal_toIS8_EEEENS0_9allocatorISB_EEE9SelectKeyESI_SK_E12test_deletedEj
pfi:_RemotingConfiguration_IsRemotelyActivatedClientType_m4117048589
Jyj:_Int32_FindCurrency_m3541026887
yln:_Interval_CompareTo_m3282557545
eIf:__ZN31OpCodes_t126150456_StaticFields15set_Stind_I1_81E17OpCode_t123070264
PCe:__ZN42HorizontalOrVerticalLayoutGroup_t72972557026set_m_ChildControlWidth_15Eb
Wic:__ZNK14RenderSettings19GetFlatAmbientColorEv
hTa:__ZN8DrawUtil24DrawMeshRawFromNodeQueueERK15RenderNodeQueuej16VertexInputMasksi
gC:__ZNK27StateMachineBehaviourPlayer15IsSenderEnabledEv
HSo:__ZN6il2cpp2gc19AppendOnlyGCHashMapINSt3__24pairIPK11Il2CppImageP11Il2CppClassEEP22Il2CppReflectionModule17ReflectionMapHashIS9_ENS2_8equal_toIS9_EEE11TryGetValueERKS9_PSB_
V7l:_RijndaelManagedTransform_TransformBlock_m1610137419
d$c:__Z40Register_UnityEngine_Transform_SetParentv
Vao:__ZNK32Vector3_t3722313464_StaticFields14get_upVector_7Ev
vcb:__ZN14Texture2DArray17UploadToGfxDeviceEv
nmp:___cxx_global_var_init_43668
XZ:__Z14FMODMemoryFreePvjPKc
jgm:_Enumerator__ctor_m2029608698_gshared
skm:_List_1__ctor_m4004500203_gshared
Fkn:_InterpreterFactory_NewInstance_m2792693614
sco:_NetFxCoreExtensions_GetMethodInfo_m444570327
m0k:_Type_get_IsSystemType_m624798880
aGh:_Mesh_SetNormals_m2521889643
Q$n:__ZN18VirtActionInvoker3IffbE6InvokeEjP12Il2CppObjectffb
DCd:_cf2_glyphpath_moveTo
jUf:_TypeDelegator_IsPointerImpl_m458295709
ysd:__ZNK13BoxCollider2D22GetTypeVirtualInternalEv
b_c:__Z51Register_UnityEngine_Texture_get_texelSize_Injectedv
DYa:__ZN11HaloManager7AddHaloENS_9OwnerTypeE
By:__ZN7mecanim23TransformValueArrayLoopEiiiRKN4math4trsXES3_RNS_10ValueArrayEf
APi:_ClientSessionInfo_Finalize_m2165787049
c2c:__ZN5IMGUI14GUIWindowStateD2Ev
kNi:_ClientContext_Clear_m1774063253
wOc:__ZN4Mesh17SetIndicesComplexEPKvjj16GfxPrimitiveTypeij
A7i:_DateTime_AddSeconds_m332574389_AdjustorThunk
M8n:_RequestAtlasCallback_Invoke_m378128467
Jti:_Byte_System_IConvertible_ToSByte_m1869482168
j6o:__GLOBAL__sub_I_Assembly_cpp
Xel:__Z99RuntimeInvoker_RuntimeObject_RuntimeObject_RuntimeObject_StreamingContext_t3711869237_RuntimeObjectPFvvEPK10MethodInfoPvPS4_
LOn:_DisplayScore_Start_m1393871183
Inb:__ZN15SerializeTraitsI13dynamic_arrayIN15ResourceManager10DependencyELj0EEE8TransferI24GenerateTypeTreeTransferEEvRS3_RT_
BTb:__ZN10MonoScript8TransferI19StreamedBinaryWriteEEvRT_
asg:__Z37InternalEnumerator_1__ctor_m819716934P32InternalEnumerator_1_t1291559127P11Il2CppArrayPK10MethodInfo
QL:__ZN7mecanim5human10RetargetToEPKNS0_5HumanEPKNS0_9HumanPoseES6_RKN4math4trsXEPS4_PNS_8skeleton13SkeletonPoseTIS8_EESF_
uy:__ZN7mecanim9animation8SeekClipERKNS0_12StreamedClipERNS0_18StreamedClipMemoryEf
nCh:_GameObject_Internal_AddComponentWithType_m3797731663
bh:_emscripten_glIsTexture
mI:__ZN24CompressedAnimationCurveaSERKS_
aym:_List_1_CheckIndex_m3933537097_gshared
Wg:_emscripten_glHint
aWn:_Check_SourceAndPredicate_m2332465641
tkf:__ZL74ContactFilter2D_t3805203441_CustomAttributesCacheGenerator_useOutsideDepthP21CustomAttributesCache
iJd:_ft_var_readpackeddeltas
btp:_GC_should_collect
f4d:__ZL58__ManagedRegistrationHelperFunction_VideoClipPlayableProxyPv
b3k:_UInt32_System_IConvertible_ToInt64_m2261037378
flo:_CanvasRenderer_EnableRectClipping_Injected_m1138624799
Gd:_SDL_UpperBlit
OWa:__Z35GetTextureDecodeValuesWithIntensity16TextureUsageMode17TextureColorSpace10ColorSpacef
sFa:__ZN9Scripting11UnityEngine12Experimental9Rendering16CullResultsProxy9InitProxyEv
Gfe:__ZNK28PointerEventData_t380790109244get_U3CeligibleForClickU3Ek__BackingField_10Ev
ZYo:__ZN15dense_hashtableINSt3__24pairIK10KeyWrapperINS1_IPK9EventInfoP11Il2CppClassEEEjEES9_17ReflectionMapHashIS8_EN14dense_hash_mapIS9_jSD_NS9_14EqualsComparerINS0_8equal_toIS8_EEEENS0_9allocatorISB_EEE9SelectKeyESI_SK_E15set_deleted_keyERKSB_
i0c:__ZL55__ManagedRegistrationHelperFunction_GUIScrollGroupProxyPv
wdp:__ZN6il2cpp2vm5Image20EmbeddedResourceDataC2ENS0_22EmbeddedResourceRecordEPv
vWj:_GregorianCalendar__ctor_m979779718
eVi:_SslClientStream__ctor_m2402546929
sUb:__ZN14SafeBinaryRead20OverrideRootTypeNameEPKc
Lfj:_DictionaryNodeEnumerator_get_Entry_m2309234501
Qna:__ZN14FileCacherRead16UnlockCacheBlockEj
hem:_Enumerator_Dispose_m951715887_AdjustorThunk
Ktg:_InternalEnumerator_1_System_Collections_IEnumerator_Reset_m521819017_AdjustorThunk
$6m:_Event_set_character_m1015181207
GOp:_emscripten_glVertexAttrib1f__wrapper
eQ:__ZN26AnimatorOverrideController8TransferI24GenerateTypeTreeTransferEEvRT_
Qha:__ZN10InstancingL21OnGraphicsCapsChangedEv
l9e:__ZL101SystemInfo_t3561985952_CustomAttributesCacheGenerator_SystemInfo_GetOperatingSystemFamily_m1440411909P21CustomAttributesCache
OZk:_WaitHandle_get_Handle_m3260446580
Ggm:_Enumerator_VerifyState_m1745883925_AdjustorThunk
dUo:__ZN15dense_hashtableINSt3__24pairIK10KeyWrapperINS1_IPK12PropertyInfoP11Il2CppClassEEEjEES9_17ReflectionMapHashIS8_EN14dense_hash_mapIS9_jSD_NS9_14EqualsComparerINS0_8equal_toIS8_EEEENS0_9allocatorISB_EEE9SelectKeyESI_SK_E13clear_deletedER30dense_hashtable_const_iteratorISB_S9_SD_SM_SI_SK_E
Gh:_emscripten_glUniform1f
PXi:_SortedList__ctor_m1261191695
c2o:__ZN6il2cpp2vm6Thread28GetThreadStaticDataForThreadEiP12Il2CppThread
PAd:__Z20ParseImageParametersR11UTF16StringRiRN20TextRenderingPrivate16TextFormatChangeE
$rf:__ZL55CanvasScaler_t2767979955_CustomAttributesCacheGeneratorP21CustomAttributesCache
Ih:_emscripten_glUniform1i
Zdd:__ZN9Scripting11UnityEngine27ParticleSystemRendererProxy12CleanupProxyEv
uje:_StandaloneInputModule_GetRawMoveVector_m2737091079
bMb:__Z18Transfer_BlittableI24GenerateTypeTreeTransferLb1EN4math12int3_storageEEvRK29SerializationCommandArgumentsR31RuntimeSerializationCommandInfo
ukh:__Z14bankers_roundff
tSo:__ZN15dense_hashtableINSt3__24pairIK10KeyWrapperINS1_IPK10MethodInfoP11Il2CppClassEEEjEES9_17ReflectionMapHashIS8_EN14dense_hash_mapIS9_jSD_NS9_14EqualsComparerINS0_8equal_toIS8_EEEENS0_9allocatorISB_EEE9SelectKeyESI_SK_E12expand_arrayEjN21dense_hash_map_traits17integral_constantIbLb0EEE
u8:__ZN11UnityEngine15CloudWebService16SessionContainer20RestoreSessionHeaderERKN4core12basic_stringIcNS2_20StringStorageDefaultIcEEEES8_RNS0_13SessionHeaderE
czp:__ZN6il2cpp2os12Cryptography23GetCryptographyProviderEv
Muo:__ZN24dense_hashtable_iteratorINSt3__24pairIK10KeyWrapperIPK22Il2CppGenericParameterEP11Il2CppClassEES6_N6il2cpp5utils11PointerHashIS4_EEN14dense_hash_mapIS6_S9_SE_NS6_14EqualsComparerINS0_8equal_toIS5_EEEENS0_9allocatorISA_EEE9SelectKeyESJ_SL_E30advance_past_empty_and_deletedEv
$Qm:_ReadOnlyCollection_1_System_Collections_IEnumerable_GetEnumerator_m3042843502_gshared
_dl:__Z151RuntimeInvoker_RuntimeObject_Int32_t2950945753_RuntimeObject_ObjectU5BU5DU26_t712384779_RuntimeObject_RuntimeObject_RuntimeObject_ObjectU26_t2146539884PFvvEPK10MethodInfoPvPS4_
lYd:__ZN8JSONRead19TransferSTLStyleMapINSt3__23mapIN4core12basic_stringIcNS3_20StringStorageDefaultIcEEEEN11UnityEngine9Analytics16LimitEventConfigENS1_4lessIS7_EE13stl_allocatorINS1_4pairIKS7_SA_EEL18MemLabelIdentifier6ELi16EEEEEEvRT_17TransferMetaFlags
ITc:__ZN9BlobWriteC2ER13dynamic_arrayIhLj16EE24TransferInstructionFlags19BuildTargetPlatform
mne:_CanvasUpdateRegistry__ctor_m2005397069
Xla:__ZN14MessageHandler3GetEv
npb:__ZL19BlendLightProbesJobP19BlendProbesJobInputj
cvg:__Z74InternalEnumerator_1_System_Collections_IEnumerator_get_Current_m548105685P32InternalEnumerator_1_t1747214298PK10MethodInfo
wah:_LayoutGroup_SetLayoutInputForAxis_m2458344630
ef:_emscripten_glAttachShader
Xea:__Z40DebugStringToFilePostprocessedStacktraceRK21DebugStringToFileData
JLg:__Z44InternalEnumerator_1_get_Current_m2313784098P32InternalEnumerator_1_t2086890089PK10MethodInfo
rFe:_Image__cctor_m1927508576
fxc:__ZNSt3__26vectorIN4core12basic_stringIcNS1_20StringStorageDefaultIcEEEENS_9allocatorIS5_EEE6assignIPS5_EENS_9enable_ifIXaasr21__is_forward_iteratorIT_EE5valuesr16is_constructibleIS5_NS_15iterator_traitsISC_E9referenceEEE5valueEvE4typeESC_SC_
d4n:_UploadHandler_Dispose_m3057340132
z5i:_CurrentSystemTimeZone_GetDaylightChanges_m2394763749
qgn:__ZNK26GUILayoutGroup_t215778969523get_m_ChildMinHeight_24Ev
reb:__ZThn32_N8Renderer15AddAsRenderNodeER15RenderNodeQueueRK20DeprecatedSourceData
Vwd:__ZN9Scripting11UnityEngine12TerrainProxy9InitProxyEv
n4b:__ZN13dynamic_arrayIN18GlslGpuProgramGLES9GLProgramELj0EE6insertEPS1_jRKS1_
JKg:_InternalEnumerator_1_get_Current_m3331252162_AdjustorThunk
BXn:_EventTrigger__ctor_m3931360164
JGb:__Z18Transfer_BlittableI14SafeBinaryReadLb0E11QuaternionfEvRK29SerializationCommandArgumentsR31RuntimeSerializationCommandInfo
vsd:__ZN13BoxCollider2D16CheckConsistencyEv
iXb:__Z21BeginSplashScreenFadev
lsb:__ZN12ImmediatePtrI9TransformE8TransferI18StreamedBinaryReadEEvRT_
Eea:_tlsf_walk_heap
zdl:__Z49RuntimeInvoker_Void_t1185182177_OpCode_t123070264PFvvEPK10MethodInfoPvPS4_
XPl:_Dictionary_2_System_Collections_Generic_ICollectionU3CSystem_Collections_Generic_KeyValuePairU3CTKeyU2CTValueU3EU3E_Add_m3401902714_gshared
ogf:__ZL59AnimatorClipInfo_t3156717155_CustomAttributesCacheGeneratorP21CustomAttributesCache
RQh:_SceneManager_LoadScene_m2298600132
yb:invoke_vif
wb:invoke_vid
FCg:_InternalEnumerator_1__ctor_m2202456613_AdjustorThunk
Lb:invoke_vii
$bc:__ZNK12ImageFilters8DoRenderER17ShaderPassContextP13RenderTextureS3_RKNSt3__26vectorI11ImageFilterNS4_9allocatorIS6_EEEE
kLa:__ZN12TLSAllocatorI14StackAllocatorE16ThreadInitializeEP13BaseAllocator
Jfl:__Z82RuntimeInvoker_Boolean_t97287965_SByte_t1669577662_RuntimeObject_SByte_t1669577662PFvvEPK10MethodInfoPvPS4_
Ezb:__ZN9GfxDevice32UpdateStereoViewProjectionMatrixE21MonoOrStereoscopicEye
rkb:__ZN12InputManager23VirtualRedirectTransferER18StreamedBinaryRead
Naa:__Z29GetCloudWebServicesModuleSpecv
jTd:__Z41CanvasRenderer_CUSTOM_DisableRectClippingP12Il2CppObject
lHj:_MonoType_GetConstructorImpl_m441167626
ynp:__ZN6il2cpp6icalls8mscorlib6System13GlobalizationL24string_invariant_compareEP12Il2CppStringiiS5_iii
WBn:__ZN23GenericVirtFuncInvoker1Ib25RaycastResult_t3360306849E6InvokeEPK10MethodInfoP12Il2CppObjectS0_
WEm:_Collection_1_IsFixedSize_m3709118201_gshared
Qxb:__ZN25SingleBlockMemoryFileDataD0Ev
HV:__ZNSt3__26vectorI14ConstantStringNS_9allocatorIS1_EEE6assignINS_11__wrap_iterIPS1_EEEENS_9enable_ifIXaasr21__is_forward_iteratorIT_EE5valuesr16is_constructibleIS1_NS_15iterator_traitsISA_E9referenceEEE5valueEvE4typeESA_SA_
g8:__ZN11UnityEngine15CloudWebService16SessionContainer21ConvertFromFolderTimeERKN4core12basic_stringIcNS2_20StringStorageDefaultIcEEEEPjPt
kfd:__Z18RegisterUnityClassI27PerformanceReportingManagerEvPKc
VRb:__Z19TransferField_ArrayI18StreamedBinaryRead27Converter_SimpleNativeClassI17AnimationCurveTplIfEEEvRK23StaticTransferFieldInfoR31RuntimeSerializationCommandInfoRT0_
tIb:__ZNSt3__26vectorI8GUIStyle13stl_allocatorIS1_L18MemLabelIdentifier1ELi16EEE7reserveEj
Zhb:__ZN4Mesh23VirtualRedirectTransferER18StreamedBinaryRead
Lmk:_Array_InternalArray__ICollection_CopyTo_TisKeyframe_t4206410242_m2132255743_gshared
j7o:__ZN6il2cpp6icalls8mscorlib6System9Threading6Thread27GetSerializedCurrentCultureEP12Il2CppThread
I7l:_RijndaelTransform_SubByte_m3037693507
kLo:__ZNSt3__26__treeIP11Il2CppClassNS_4lessIS2_EENS_9allocatorIS2_EEE7destroyEPNS_11__tree_nodeIS2_PvEE
eBc:__Z31CalculateHierarchyTransformType23TransformAccessReadOnly
vZ:__ZN4FMOD8ChannelI11setPositionEjj
UCh:_Input_INTERNAL_CALL_GetTouch_m3481893561
Etp:_GC_set_fl_marks
Imb:__ZNSt3__26vectorIN30RuntimeInitializeOnLoadManager15ClassMethodInfoE13stl_allocatorIS2_L18MemLabelIdentifier13ELi16EEE7reserveEj
Hzb:__ZN9GfxDevice17SetStereoViewportE15StereoscopicEyeRK5RectTIiE
lva:__ZN17BaseObjectManager13StaticDestroyEPv
Tca:__GLOBAL__sub_I_Runtime_Graphics_Mesh_1_cpp
BUk:_UTF7Decoder_GetChars_m3413809261
cla:__ZN12CachedReader8InitReadER15CacheReaderBasejj
kxf:_EnumBuilder_GetEvent_m4074915332
Qao:_Vector3_get_forward_m3100859705
wX:__ZN4FMOD6Reverb13setPropertiesEPK22FMOD_REVERB_PROPERTIES
vFa:__ZN9Scripting11UnityEngine12Experimental9Rendering21CoreCameraValuesProxy12CleanupProxyEv
Ldc:__ZN9DepthPass13PrepareSubsetEjRK10RenderNodeifRK17ShaderReplaceData
cyk:_String_IndexOf_m3406607758
Yvc:__ZN9ShaderLab20SerializedSubProgram16TextureParameter8TransferI14SafeBinaryReadEEvRT_
bwd:__ZN9Scripting11UnityEngine26ControllerColliderHitProxy12CleanupProxyEv
Oan:_TextEditor_MoveGraphicalLineStart_m3220976677
MOc:__Z35SetMeshComponentFromArrayFromScriptR4Mesh30InternalScriptingShaderChannel34InternalScriptingVertexChannelTypei17ScriptingArrayPtri
BDb:__Z22GetRenderTextureFormat14GraphicsFormat
Xq:__ZN4core20StringStorageDefaultIcE6assignEPKcj
ypc:__ZN23TextureStreamingManager6UpdateEv
gOb:__Z15Transfer_StringI19StreamedBinaryWriteLb0EEvRK29SerializationCommandArgumentsR31RuntimeSerializationCommandInfo
nDi:_BigInteger_ModPow_m3776562770
vhg:_KeyedHashAlgorithm_get_Key_m1843505301
nhp:__ZN15dense_hashtableINSt3__24pairIK10KeyWrapperIP12Il2CppObjectEN6il2cpp2gc9CachedCCWEEES5_NS7_5utils11PointerHashIS3_EEN14dense_hash_mapIS5_S9_SD_NS5_14EqualsComparerINS0_8equal_toIS4_EEEENS0_9allocatorISA_EEE9SelectKeyESI_SK_E3endEv
YDa:__ZN9Scripting11UnityEngine9Playables22PlayableBehaviourProxy9InitProxyEv
RTi:_RecordProtocol_ProcessChangeCipherSpec_m15839975
zwi:_ArrayList_IndexOf_m305368842
Inc:__ZN6Camera6SetFarEf
n1f:_FormatterConverter_ToBoolean_m1680758923
mQc:__ZNK17AnimationCurveTplI11QuaternionfE13EvaluateClampEfPNS1_5CacheE
Aya:__ZN6prcoreL12RemapGenericI17TexFormatABGR888817TexFormatARGB8888EEvPKNS_9InnerInfoE
JLa:__ZN11GameManager17MainThreadCleanupEv
vOm:_ReadOnlyCollection_1__ctor_m1345363288_gshared
IUd:__Z50Register_UnityEngine_UISystemProfilerApi_EndSamplev
$hp:__ZN6il2cpp2vm27StacktraceSentryMethodStackC2Ev
gRc:__ZN19RuntimeSceneManager32LoadSceneAsyncByNameOrBuildIndexERKN4core12basic_stringIcNS0_20StringStorageDefaultIcEEEEi16SceneLoadingModeb
MGg:_InternalEnumerator_1_System_Collections_IEnumerator_Reset_m1775752715_AdjustorThunk
tb:invoke_vffff
O3i:_Convert_ToSingle_m2891972375
P1e:__ZL91Application_t1852185770_CustomAttributesCacheGenerator_Application_get_isPlaying_m100394690P21CustomAttributesCache
SJg:__Z41InternalEnumerator_1_MoveNext_m3686444574P31InternalEnumerator_1_t669594426PK10MethodInfo
czm:_List_1_GetEnumerator_m707038700_gshared
Opd:__ZN10Collider2D12AddToManagerEv
r4f:_SerializationCallbacks_GetSerializationCallbacks_m2939476649
MId:_UNITY_tt_slot_init
Z8b:__ZZ23InitPlayerLoopCallbacksvEN41PostLateUpdateUpdateResolutionRegistrator7ForwardEv
dYg:_KeyCollection_GetEnumerator_m1168803204_gshared
XSb:__Z25scripting_array_class_get17ScriptingClassPtrj
l8c:__ZL22Transfer_ManagedObjectI9JSONWriteLb1EEvRK29SerializationCommandArgumentsR31RuntimeSerializationCommandInfo
X1:__ZNK10SampleClip22GetTypeVirtualInternalEv
BAb:__ZN9GfxDevice20DestroyRenderSurfaceER12ObjectHandleI17RenderSurface_TagP17RenderSurfaceBaseE
ejh:__ZN22ScrollRect_t413785581413set_m_Rect_35EP25RectTransform_t3704657025
Pp:__ZN9Scripting11UnityEngine2AI12NavMeshProxy12CleanupProxyEv
xBc:__ZL24PrepareSpriteRenderNodesILb1EEvR35RenderNodeQueuePrepareThreadContext
fri:_Array_slow_swapper_m4116724811
ymc:__ZN12_GLOBAL__N_15qAsinEff
jsg:_InternalEnumerator_1_System_Collections_IEnumerator_get_Current_m2629988057_AdjustorThunk
lLa:__ZN12TLSAllocatorI14StackAllocatorE13ThreadCleanupEv
MSl:_Dictionary_2_get_Item_m2136868513_gshared
gfb:__ZN14SafeBinaryRead21TransferSTLStyleArrayI13dynamic_arrayI8Vector4fLj0EEEEvRT_17TransferMetaFlags
Mpp:__ZThn4_N6il2cpp2vm13ComObjectBase16MarshalInterfaceEP13Il2CppIStreamRK10Il2CppGuidPvjS7_j
wXi:_Queue_Clone_m178259971
Stc:__Z27FindActiveTransformWithPathPKc
VSm:_ReadOnlyCollection_1_System_Collections_IList_Remove_m4169110229_gshared
H2k:_UInt16_ToString_m3020002356
vbh:_LayoutRebuilder_LayoutComplete_m68578143
_bo:_WaitForSeconds_t1699091251_marshal_pinvoke
_mk:_SHA1Internal_Initialize_m499810128
Qfc:__ZNK6Camera7GetNearEv
Ayf:_GenericTypeParameterBuilder_GetConstructorImpl_m863833310
ssp:_GC_size
RWg:_Enumerator_get_Current_m3687673883_AdjustorThunk
W3b:__ZN7ApiGLES11UnmapBufferEjN2gl12BufferTargetE
Eqp:__ZN6il2cpp5utilsL24Utf32CharToSurrogatePairEjRA2_Ds
M8a:__Z25GetNextAllowedTextureSizeib13TextureFormat
UVb:__ZN20LocalFileSystemWebGL4CopyER13FileEntryDataS1_
QBa:__ZL68__ManagedRegistrationHelperFunction_UnitySynchronizationContextProxyPv
uba:__ZN19CloudServiceHandler6RetainEv
pPm:_ReadOnlyCollection_1_System_Collections_IList_IndexOf_m198887188_gshared
Jmk:_Array_InternalArray__ICollection_CopyTo_TisRaycastResult_t3360306849_m4097636815_gshared
ZKl:_Component_GetComponent_TisRuntimeObject_m2906321015_gshared
ssl:__Z71RuntimeInvoker_Vector2_t2156229523_Vector2_t2156229523_Rect_t2360479859PFvvEPK10MethodInfoPvPS4_
M3c:__Z36Event_CUSTOM_Internal_SetNativeEventPv
BTk:_UTF32Encoding_GetBytes_m3180303867
NWc:__Z51GraphicsFormatUtility_CUSTOM_GetRenderTextureFormat14GraphicsFormat
Uim:_Enumerator_System_Collections_IEnumerator_Reset_m146364719_AdjustorThunk
Fqb:__Z34scripting_liveness_calculation_endPv
xui:_Char_GetDataTablePointers_m754571594
xlp:__ZN6il2cpp2os6ThreadC2Ev
hFc:__ZN28ReflectionProbeAnchorManager7CleanupEv
M8i:_DateTimeOffset_get_UtcDateTime_m1021718282_AdjustorThunk
WTo:__ZN14dense_hash_mapI10KeyWrapperINSt3__24pairIPK12PropertyInfoP11Il2CppClassEEEj17ReflectionMapHashIS8_ENS9_14EqualsComparerINS1_8equal_toIS8_EEEENS1_9allocatorINS2_IKS9_jEEEEE6insertERKSI_
Nx:__ZN21AnimationClipPlayable22ProcessAnimationNoClipEPK35AnimationPlayableEvaluationConstantPK32AnimationPlayableEvaluationInputP33AnimationPlayableEvaluationOutput
Rej:_HybridDictionary_get_Count_m1166314536
U$m:_TlsStream_Write_m1412844442
P9c:__Z18Transfer_BlittableI8JSONReadLb0E8Vector3fEvRK29SerializationCommandArgumentsR31RuntimeSerializationCommandInfo
TH:__ZN13AnimationClip12Vector3Curve8TransferI14SafeBinaryReadEEvRT_
TEh:_Matrix4x4__ctor_m53065545_AdjustorThunk
A1o:__ZN6il2cpp2vm6Thread6DetachEP12Il2CppThread
W0m:_GeneralNames_get_DNSNames_m3788548987
P8e:__ZL52Resources_t2942265397_CustomAttributesCacheGeneratorP21CustomAttributesCache
ELd:_Render_Single_Pass
cqk:_SymmetricAlgorithm_get_IV_m1875559108
mv:__ZN7mecanim8skeleton30SkeletonBuildReverseIndexArrayEPiPKiPKNS0_8SkeletonES6_
C1c:__Z19GetGUIBlendMaterialv
YEj:_Math_Round_m3018379666
Hmp:__ZN6il2cpp2os10ThreadImpl5SleepEjb
rPm:_ReadOnlyCollection_1_System_Collections_IList_Remove_m1965826685_gshared
Z9b:__ZN10GUITexture18AlignPointToDeviceERK8Vector2fRS0_
Shf:__ZL82LayoutCache_t78309876_CustomAttributesCacheGenerator_LayoutCache__ctor_m3885940174P21CustomAttributesCache
Hfk:_PlayableHandle_IsPlayableOfType_TisRuntimeObject_m503495943_AdjustorThunk
wQ:__ZN18AnimatorController23VirtualRedirectTransferER24GenerateTypeTreeTransfer
DPp:_glBindSampler__wrapper
d8b:__ZNSt3__26vectorIN20ArchiveStorageHeader12StorageBlockE13stl_allocatorIS2_L18MemLabelIdentifier55ELi16EEE8__appendEj
Ci:_emscripten_set_mouseup_callback
oEh:_Mathf_Clamp_m3350697880
mUg:_Enumerator__ctor_m2243569349_gshared
Yfl:__Z165RuntimeInvoker_Void_t1185182177_UInt32U26_t3735378166_Int32_t2950945753_UInt32U26_t3735378166_Int32_t2950945753_Int32_t2950945753_Int32_t2950945753_Int32_t2950945753PFvvEPK10MethodInfoPvPS4_
sok:_SHA384Managed_processWord_m3832940157
Rjo:_TextGenerator_Populate_Internal_Injected_m1708852755
yqn:_CompositeExpression__ctor_m2434860303
tuj:_X509ChainElementCollection_System_Collections_IEnumerable_GetEnumerator_m3829089536
NVb:__ZNK18ScreenManagerWebGL8GetWidthEv
FPh:_ReflectionProbe_CallReflectionProbeEvent_m1520775591
pNl:__Z59Enumerator_System_Collections_IEnumerator_Reset_m4283504067P21Enumerator_t572278398PK10MethodInfo
cU:__ZN7mecanim5human21ComputeHierarchicMassEiPf
U1:__ZN10SampleClipD2Ev
pCn:_Predicate_1_Invoke_m2389850270_gshared
o6f:_SerializationObjectManager_RegisterObject_m951822324
$pb:__Z13GetGISettingsv
eba:__ZN11UnityEngine15CloudWebService20WebRequestRestClientC2Ev
lEd:_cff_cmap_unicode_init
dNd:__Z31Font_CUSTOM_Internal_CreateFontP12Il2CppObjectP12Il2CppString
pDm:_Collection_1_IsValidItem_m3080586124_gshared
Zue:_DropdownItem_set_text_m3702712387
yoe:_ClipperRegistry_Register_m2407166513
us:__ZL22GetComponentsInParentsRK10GameObjectPFbRKN5Unity9ComponentEERN4core8hash_setIPS3_NS8_4hashISA_EENSt3__28equal_toISA_EEEE
dVo:__ZN15dense_hashtableINSt3__24pairIK10KeyWrapperINS1_IPK9EventInfoP11Il2CppClassEEEjEES9_17ReflectionMapHashIS8_EN14dense_hash_mapIS9_jSD_NS9_14EqualsComparerINS0_8equal_toIS8_EEEENS0_9allocatorISB_EEE9SelectKeyESI_SK_E12resize_deltaEjj
kPf:_MonoCMethod_Invoke_m2700167622
EWi:_KeyMarker__cctor_m2590194914
bzp:__ZN6il2cpp8metadata14Il2CppTypeHash4HashEPK10Il2CppType
nAp:__ZN6il2cpp2os13SemaphoreImplC2Eii
J5k:_Version__ctor_m872301635
k6c:__ZL58__ManagedRegistrationHelperFunction_NativeInputSystemProxyPv
Tjo:_TextGenerator_PopulateWithErrors_m1222498386
pWo:__ZN6il2cpp2vm10Reflection27GetCustomAttributesCacheForEPK10MethodInfo
lR:__ZN7mecanim12statemachine13StateConstant8TransferI14SafeBinaryReadEEvRT_
t1b:__ZN11ContextGLES6CreateEi
q8g:_U3CMouseDragOutsideRectU3Ec__Iterator1_Dispose_m267465418
V9i:_Decimal_CompareTo_m3502307243_AdjustorThunk
Pjh:__ZNK22ScrollRect_t413785581417get_m_Velocity_25Ev
FLa:__ZN14StackAllocator16FrameMaintenanceEb
Rab:__Z18ReadStringFromFilePN4core17string_with_labelILi1EEERKNS_12basic_stringIcNS_20StringStorageDefaultIcEEEE
I8c:__ZN9JSONWrite8TransferI13dynamic_arrayIjLj0EEEEvRT_PKc17TransferMetaFlags
Boa:__ZNK10GameObject20QueryComponentByTypeEPKN5Unity4TypeE
p9i:_Decimal_System_IConvertible_ToInt32_m1488426794_AdjustorThunk
xPa:__ZN6Camera8TransferI19StreamedBinaryWriteEEvRT_
IFj:_MonoCustomAttrs_IsUserCattrProvider_m2878058089
Lpf:__ZL71InputField_t3762917431_CustomAttributesCacheGenerator_m_HideMobileInputP21CustomAttributesCache
P4n:_UploadHandler_Finalize_m3322774190
YEo:__ZNK14dense_hash_setI10KeyWrapperIPK19Il2CppGenericMethodEN6il2cpp8metadata23Il2CppGenericMethodHashENS4_14EqualsComparerINS6_26Il2CppGenericMethodCompareEEENSt3__29allocatorIS4_EEE3endEv
CN:__ZN25RuntimeAnimatorController23DestroyCustomControllerEPN7mecanim9animation18ControllerConstantER20RuntimeBaseAllocator
Z7a:__ZN11TextureData5ResetEv
RVc:__Z53Register_UnityEngine_GameObject_get_activeInHierarchyv
Gqk:_ToBase64Transform_InternalTransformFinalBlock_m360524956
Fni:_ActivationContext_Dispose_m2038725770
Kja:__ZL30InitializeCoreScriptingClassesv
GBg:_InternalEnumerator_1_Dispose_m630370856_AdjustorThunk
gj:_glBlitFramebuffer
zRo:__ZN6il2cpp2vm10Reflection15GetMethodObjectEPK10MethodInfoP11Il2CppClass
$Jb:__Z35Transfer_Blittable_SingleValueFieldI14SafeBinaryReadhEvRT_R17GeneralMonoObjectRK23StaticTransferFieldInfo
hhi:_Buffer_ByteLengthInternal_m1388208719
Njo:__ZN25TextGenerator_t321186386620set_m_LastSettings_2E34TextGenerationSettings_t1351628751
j5a:__ZNK12CubemapArray22GetTypeVirtualInternalEv
vo:FUNCTION_TABLE_vif
to:FUNCTION_TABLE_vid
B2h:_ContextAttribute_GetPropertiesForNewContext_m1632930262
Io:FUNCTION_TABLE_vii
Qqb:__Z40scripting_liveness_calculation_from_root18ScriptingObjectPtrPv
Nff:__ZL102UnityWebRequest_t463507806_CustomAttributesCacheGenerator_UnityWebRequest_get_isModifiable_m4181352937P21CustomAttributesCache
uCj:_Int32_TryParse_m135955795
mSc:__ZN17Gradient_Bindings4InitEv
n_d:__ZN11UnityEngine9Analytics18ConnectSessionInfoC2Ev
x$a:__ZN7Texture23VirtualRedirectTransferER24GenerateTypeTreeTransfer
hzd:_UNITY_FT_Set_Transform
wgb:__ZN14SpriteRenderer16CheckConsistencyEv
gPp:_glDeleteFramebuffers__wrapper
Bbl:__Z220RuntimeInvoker_Boolean_t97287965_RuntimeObject_Int32U26_t1369213839_Int32_t2950945753_Int32_t2950945753_Int32_t2950945753_RuntimeObject_SByte_t1669577662_Int32_t2950945753_ContractionU26_t961830454_ContextU26_t3937453398PFvvEPK10MethodInfoPvPS4_
dy:__ZN7mecanim6memory13HeapAllocator8AllocateEjj
wCd:_cff_blend_build_vector
Jmj:_WebHeaderCollection_ToString_m1263025316
hSf:_GetterAdapter_Invoke_m3767885970
Sqm:_List_1__ctor_m747758800_gshared
j_c:__Z44Register_UnityEngine_RenderTexture_set_widthv
NAk:_String_CreateString_m2818852475
Zxn:__Z31Comparison_1_Invoke_m1103021447P24Comparison_1_t237543247119Color32_t2600501292S1_PK10MethodInfo
gdm:_Enumerator_get_Current_m335492761_AdjustorThunk
lKc:__Z22GenerateBoxTilingShapeP22GenerateTilingAreaInfo
cdb:__ZN28EnlightenRendererInformation8TransferI14SafeBinaryReadEEvRT_
Zko:_CanvasRenderer_get_hasMoved_m2236392341
bjb:__ZN14SharedMeshData14GetBoneWeightsEi
VHh:_MessageEvent__ctor_m1231650089
htb:__ZNK15Lz4Decompressor16DecompressMemoryEPKvPjPvS2_
eHd:_UNITY_tt_face_build_cmaps
RRo:__ZN15dense_hashtableINSt3__24pairIK10KeyWrapperINS1_IPK10MethodInfoP11Il2CppClassEEEjEES9_17ReflectionMapHashIS8_EN14dense_hash_mapIS9_jSD_NS9_14EqualsComparerINS0_8equal_toIS8_EEEENS0_9allocatorISB_EEE9SelectKeyESI_SK_E13clear_deletedER30dense_hashtable_const_iteratorISB_S9_SD_SM_SI_SK_E
xU:__ZN21AnimationHandleBinderC2Ev
au:__ZN9Scripting11UnityEngine10Animations21ConstraintSourceProxy9InitProxyEv
WJc:__ZN4core8hash_mapINS_12basic_stringIcNS_20StringStorageDefaultIcEEEE10vector_setI4PPtrI11SpriteAtlasENSt3__24lessIS8_EE13stl_allocatorIS8_L18MemLabelIdentifier81ELi16EEENS_4hashIS4_EENS9_8equal_toIS4_EEEixERKS4_
mtd:__ZN11Rigidbody2D8TransferI24GenerateTypeTreeTransferEEvRT_
j2a:__Z35UnityPropertySheet_MakeSortedColorsRKNSt3__23mapIN9ShaderLab16FastPropertyNameE10ColorRGBAfNS_4lessIS2_EENS_9allocatorINS_4pairIKS2_S3_EEEEEER10vector_mapIS2_S3_S5_NS6_INS7_IS2_S3_EEEEE
Xn:FUNCTION_TABLE_iiiiiiffiiiiiiiiiffffiii
BGd:_UNITY_tt_face_load_os2
PCl:_Array_InternalArray__ICollection_CopyTo_TisUICharInfo_t75501106_m4268526610_gshared
Mob:__ZN11TimeManager21DidFinishLoadingSceneEv
vJb:__Z29Transfer_Blittable_ArrayFieldI14SafeBinaryRead8Vector4fEvRT_R9ArrayInfoRK23StaticTransferFieldInfo
wjp:__GLOBAL__sub_I_BoehmGC_cpp
BRo:__ZN6il2cpp2gc19AppendOnlyGCHashMapINSt3__24pairIPK10MethodInfoP11Il2CppClassEEP22Il2CppReflectionMethod17ReflectionMapHashIS9_ENS2_8equal_toIS9_EEE3AddERKS9_SB_
xD:__ZN11UnityEngine9Animation32CreateAnimatorGenericBindingsOptERKNS0_20AnimationSetBindingsER9TransformPKN7mecanim9animation14AvatarConstantEPKNS0_21AvatarBindingConstantEbR20RuntimeBaseAllocatorR8Animator
CP:__ZNK26AnimatorOverrideController22GetTypeVirtualInternalEv
MMj:_Default_check_arguments_m3882727959
Qlh:__ZN21Scrollbar_t149444723318set_m_Direction_19Ei
$Uk:_UTF8Encoding_GetMaxCharCount_m3762459613
mbg:_StreamingContext_get_Context_m541495931_AdjustorThunk
cCf:_ModuleBuilder_RegisterToken_m4166846047
kkp:__ZNSt3__218uninitialized_fillIPNS_4pairIK10KeyWrapperIPcES3_EES6_EEvT_S8_RKT0_
Q8b:__ZZ23InitPlayerLoopCallbacksvEN51PostLateUpdateUpdateCustomRenderTexturesRegistrator7ForwardEv
_fh:_RawImage_OnPopulateMesh_m1115858855
jIo:__ZN6il2cpp2vm13MetadataCache25GetStringLiteralFromIndexEi
voi:_Hashtable_ToPrime_m33531354
my:__ZN7mecanim9animation12EvaluateClipEPKNS0_4ClipEPKNS0_9ClipInputEPNS0_10ClipMemoryEPNS0_10ClipOutputE
_Aa:__ZL54__ManagedRegistrationHelperFunction_PlayableGraphProxyPv
o5:__ZN11AudioModule6UpdateEv
XXg:_KeyCollection_System_Collections_Generic_ICollectionU3CTKeyU3E_Remove_m2555909644_gshared
ppp:__ZN4utf88internal19is_code_point_validIjEEbT_
lBd:__ZN20TextRenderingPrivate7GUIText18GetFontAndMaterialEv
$Nm:_ReadOnlyCollection_1_System_Collections_ICollection_CopyTo_m1552247304_gshared
Tjp:__ZN15dense_hashtableINSt3__24pairIK10KeyWrapperIPcES3_EES4_N6il2cpp5utils15PassThroughHashIS3_EEN14dense_hash_mapIS4_S3_SA_NS4_14EqualsComparerINS0_8equal_toIS3_EEEENS0_9allocatorIS6_EEE9SelectKeyESF_SH_E5clearEv
ejk:_Array_InternalArray__IndexOf_TisInt32_t2950945753_m738632427_gshared
fV:__ZL65__ManagedRegistrationHelperFunction_MeshReconstructionServerProxyPv
jem:_Enumerator_VerifyState_m2621680056_AdjustorThunk
sPd:__ZN2UI6Canvas23VirtualRedirectTransferER18StreamedBinaryRead
O7j:_MemoryStream_set_Position_m3169779190
Amc:__ZN13RenderManager29SetCurrentCameraAndStackStateEP6CameraP25CameraStackRenderingState
Kbe:_ExecuteEvents_get_scrollHandler_m2659345019
eMa:__ZNSt3__26__treeINS_12__value_typeIjN4core12basic_stringIcNS2_20StringStorageDefaultIcEEEEEENS_19__map_value_compareIjS7_NS_4lessIjEELb1EEE13stl_allocatorIS7_L18MemLabelIdentifier7ELi16EEE7destroyEPNS_11__tree_nodeIS7_PvEE
b7f:__ZNK31OpCodes_t126150456_StaticFields14get_Ldflda_121Ev
nd:_JS_WebRequest_Release
iaf:__ZL85Time_t2420636075_CustomAttributesCacheGenerator_Time_t2420636075____time_PropertyInfoP21CustomAttributesCache
S8:__ZN11UnityEngine15CloudWebService14DataErrorEventD0Ev
l9o:__ZN6il2cpp6icalls8mscorlib6System4Type20internal_from_handleEi
S0h:_Context__ctor_m254302079
o5o:__ZN6il2cpp2vm9Exception25RaiseOutOfMemoryExceptionERKNS_5utils10StringViewIDsEEP19Il2CppSequencePoint
Ldb:__ZN19ShaderPropertySheet16SetArrayPropertyEN9ShaderLab16FastPropertyNameENS_12PropertyTypeEPKvj
Lmh:_Selectable_FindSelectable_m2348614027
BCk:_DecoderReplacementFallbackBuffer_GetNextChar_m2858228391
oab:__ZN23TextureStreamingManager17SetFeatureEnabledEb
Owe:_DropdownItem_OnPointerEnter_m1492957598
cyd:__ZN13dynamic_arrayIN20TextRenderingPrivate8FontImpl13CharacterInfoELj0EE18resize_initializedEj12ResizePolicy
Zde:__ZN30RaycastHit2DU5BU5D_t428665156021GetAddressAtUncheckedEj
qXd:__ZN11UnityEngine15PlatformWrapper16GetApplicationIdEv
p7o:__ZN6il2cpp6icalls8mscorlib6System2IO6MonoIO16get_ConsoleErrorEv
TId:_UNITY_TT_Get_VMetrics
RYn:_AnalyticsEventTracker_OnDestroy_m3032713758
Zxi:_SimpleEnumerator__cctor_m2844299657
tEj:_LocalDataStoreSlot__ctor_m4104083971
nTm:_ReadOnlyCollection_1_System_Collections_Generic_IListU3CTU3E_RemoveAt_m3849058645_gshared
h6n:_AudioSource_ReadExtensionName_m725112169
O4m:_X509CertificateEnumerator_System_Collections_IEnumerator_Reset_m2039524926
dhc:__Z20SetupObjectLightmapsRK26SharedLightmapSettingsDataRK15LightmapIndicesR17ShaderPassContextb
Z$a:__ZN7Texture21GetMasterTextureLimitEv
Ckb:__ZN13dynamic_arrayI9InputAxisLj0EE18resize_initializedEj12ResizePolicy
uoc:__Z12CanAddScriptR10GameObject17ScriptingClassPtrPS1_S2_
Xsg:__Z44InternalEnumerator_1_get_Current_m2128158355P32InternalEnumerator_1_t3855323497PK10MethodInfo
xgm:__Z59Enumerator_System_Collections_IEnumerator_Reset_m2355925297P22Enumerator_t3123848928PK10MethodInfo
Eia:__ZN9ShaderLabL25StaticInitializeShaderLabEPv
Q:Math_max
AEa:__ZN9Scripting11UnityEngine8LODProxy9InitProxyEv
MRh:_HitInfo_SendMessage_m1343099429_AdjustorThunk
O3d:__Z64Register_UnityEngine_Networking_UnityWebRequest_get_isModifiablev
l7n:__Z26List_1_set_Item_m845928814P17List_1_t242016280iP32AudioSourceExtension_t3064908834PK10MethodInfo
Zwk:_Single_CompareTo_m2785801815_AdjustorThunk
Plp:__ZN6il2cpp2os6Thread16GetCurrentThreadEv
BJf:__ZN31OpCodes_t126150456_StaticFields17set_Stelem_R8_158E17OpCode_t123070264
n7d:__Z60Component_GetComponents_TisBaseInput_t3630163547_m2590144445P21Component_t1923634451PK10MethodInfo
UKl:_Array_InternalArray__get_Item_TisVector2_t2156229523_m2502961026_gshared
ZDl:_Array_InternalArray__Insert_TisUILineInfo_t4195266810_m3191124053_gshared
OJc:__ZN10GameObject13ComponentPair15SetComponentPtrEPN5Unity9ComponentE
F2n:_CertificateHandler_ValidateCertificateNative_m2315002656
r0c:__ZN9Scripting11UnityEngine15TextEditorProxy9InitProxyEv
Gui:_Char_System_IConvertible_ToDateTime_m3564102661
lW:__ZN13RuntimeStaticINSt3__26vectorI12WebCamDeviceNS0_9allocatorIS2_EEEELb0EE13StaticDestroyEPv
f3a:__ZN6Sprite17MainThreadCleanupEv
IRp:_glBlendFuncSeparate__wrapper
x$:__ZN10AudioMixer14UpdateMuteSoloEv
qRa:__ZN12BaseRenderer25FlattenSharedMaterialDataILb0EEEbRKS_R22PerThreadPageAllocatorR10RenderNode
CWg:__Z28Enumerator__ctor_m2471152669P21Enumerator_t314722136P23Dictionary_2_t132545152PK10MethodInfo
T5e:__ZL101MonoBehaviour_t3962482529_CustomAttributesCacheGenerator_MonoBehaviour_StartCoroutine_Auto_m594129169P21CustomAttributesCache
Bc:_JS_Eval_ClearTimeout
NEb:__ZN7ApiGLES16SetPatchVerticesEi
Blp:__ZN6il2cpp5utils13dynamic_arrayIPNS_2os6ThreadELj4EE7reserveEj
itn:_CharacterClass_Compile_m3296067317
aS:__ZN18StreamedBinaryRead21TransferSTLStyleArrayI10vector_mapI8StateKey10StateRangeNSt3__24lessIS2_EENS4_9allocatorINS4_4pairIS2_S3_EEEEEEEvRT_17TransferMetaFlags
Wkp:__ZN6il2cpp2gc16GarbageCollector16InvokeFinalizersEv
Iti:_Byte_System_IConvertible_ToInt64_m285584218_AdjustorThunk
HNh:_Rect_get_size_m477575021_AdjustorThunk
wuo:__ZN6il2cpp2vm5Class20FromGenericParameterEPK22Il2CppGenericParameter
Sba:__ZN19CloudServiceHandler11FlushEventsEv
Cua:__ZN15GlobalCallbacksC2Ev
A9h:_MethodCall_System_Runtime_Remoting_Messaging_IInternalMessage_set_Uri_m1919576807
cid:__ZN7b2World10CreateBodyEPK9b2BodyDef
uPa:__ZN6Camera8TransferI18StreamedBinaryReadEEvRT_
Svp:_GC_add_ext_descriptor
CPg:_Comparer_1_System_Collections_IComparer_Compare_m2016223770_gshared
jil:__Z74RuntimeInvoker_DateTime_t3738529785_DateTime_t3738529785_Int32_t2950945753PFvvEPK10MethodInfoPvPS4_
VAd:_UNITY_FT_New_Memory_Face
NGm:_Collection_1_System_Collections_IList_IndexOf_m3271188411_gshared
mR:__ZN14SafeBinaryRead21TransferSTLStyleArrayI22OffsetPtrArrayTransferI9OffsetPtrIN7mecanim9animation17BlendTreeConstantEEEEEvRT_17TransferMetaFlags
GCa:__ZN9Scripting11UnityEngine19SetupCoroutineProxy9InitProxyEv
yF:__ZN7mecanim9animation18CreateConstantClipERNS0_12ConstantClipEjR20RuntimeBaseAllocator
zyd:__ZN20TextRenderingPrivate21TextMeshGeneratorImpl5FlushEv
n4j:_MonoIO_GetFileStat_m678141354
ate:__Z15CastclassSealedP12Il2CppObjectP11Il2CppClass
L9i:_Decimal_IsZero_m4250358244_AdjustorThunk
ock:_UnmanagedMemoryStream_get_CanRead_m3770815400
hnc:__ZN16ReflectionProbes40UpdateRealtimeReflectionProbesTimeslicedEv
v3a:__ZN14SafeBinaryRead21TransferSTLStyleArrayI13dynamic_arrayI8Vector2fLj0EEEEvRT_17TransferMetaFlags
Y_i:_Decimal_u64_m3374804932
rmb:__ZNK30RuntimeInitializeOnLoadManager22GetTypeVirtualInternalEv
rDo:__ZN15dense_hashtableINSt3__24pairIK10KeyWrapperIN6il2cpp5utils13dynamic_arrayIPK10Il2CppTypeLj4EEEEPFvvEEESA_NS3_8metadata19Il2CppSignatureHashEN14dense_hash_mapISA_SD_SG_NSA_14EqualsComparerINSF_22Il2CppSignatureCompareEEENS0_9allocatorISE_EEE9SelectKeyESK_SM_E12resize_deltaEjj
RFc:__ZN16ReflectionProbes15InitializeClassEv
b9:__ZN13dynamic_arrayIN11UnityEngine15CloudWebService14DataErrorEvent15FileErrorDetailELj0EE18resize_initializedEj12ResizePolicy
_Rh:_Sprite_GetTextureRect_Injected_m333481368
ZQm:_ReadOnlyCollection_1_System_Collections_ICollection_CopyTo_m2527663815_gshared
x9h:_MethodCall__ctor_m2820791328
Cbp:__ZN6il2cpp2vm5Image9GetCorlibEv
Yao:_Vector3_get_left_m2428419009
dip:__ZN6il2cpp2vm11MethodStack17GetStackFramesRawEv
fjo:__Z23List_1__ctor_m808270210P18List_1_t1547575848iPK10MethodInfo
obe:_ExecuteEvents_Execute_m113814934
Lpa:__ZN13RuntimeStaticINSt3__23mapIN4core12basic_stringIcNS2_20StringStorageDefaultIcEEEES6_NS0_4lessIS6_EE13stl_allocatorINS0_4pairIKS6_S6_EEL18MemLabelIdentifier13ELi16EEEELb0EE13StaticDestroyEPv
bwh:_Coroutine_ReleaseCoroutine_m947702340
cQg:_Enumerator_System_Collections_IEnumerator_get_Current_m2979767597_AdjustorThunk
KFn:__ZN30GenericInterfaceActionInvoker1I17Color_t2555686324E6InvokeEPK10MethodInfoP12Il2CppObjectS0_
ojg:_MD5CryptoServiceProvider_ProcessFinalBlock_m2241588515
xkh:_ScrollRect_GetBounds_m449872505
Qk:_glIsVertexArray
Fmi:_SmallXmlParser_Read_m3485223434
Zcn:_GUILayoutUtility_LayoutFreeGroup_m2955697397
xyj:_Int16_Parse_m2276856944
ZAg:_InternalEnumerator_1__ctor_m3443175323_AdjustorThunk
ga:invoke_fff
uFp:_mbsinit
lLp:b14
LBo:__ZN14dense_hash_setI10KeyWrapperIPK19Il2CppGenericMethodEN6il2cpp8metadata23Il2CppGenericMethodHashENS4_14EqualsComparerINS6_26Il2CppGenericMethodCompareEEENSt3__29allocatorIS4_EEED2Ev
TZc:__Z34RenderTexture_Get_Custom_PropWidthP12Il2CppObject
nPd:__ZN2UI6Canvas17MainThreadCleanupEv
tya:__ZN6prcoreL12RemapGenericI17TexFormatARGB155517TexFormatRGBA8888EEvPKNS_9InnerInfoE
VLf:_TypeBuilder_HasElementTypeImpl_m1871001960
Xya:__ZL50__ManagedRegistrationHelperFunction_AllocatorProxyPv
LFl:_Array_Resize_TisVector2_t2156229523_m3382835435_gshared
gFb:__ZN7ApiGLES13CreateProgramEv
$6a:__ZN4crnd12crn_unpackerD2Ev
Ah:_emscripten_glTexImage2D
qNg:_Comparer_1_System_Collections_IComparer_Compare_m2537217645_gshared
qTa:__ZN16MeshVertexFormat20GetVertexDeclarationER9GfxDevice16VertexInputMasksPKS_
zja:__ZN18ScriptingArguments9AddStringEPKc
Hvi:_Char_ToString_m3588025615
_u:__ZN11UnityEngine9Animation30CreateAvatarBindingConstantOptER9TransformPKN7mecanim9animation14AvatarConstantER20RuntimeBaseAllocator
R5a:__ZL23stbir__resize_arbitraryPvPKviiiS_iiiffffPfiij14stbir_datatype12stbir_filterS4_10stbir_edgeS5_16stbir_colorspace
Tda:__Z15strcpy_truncatePcPKcjj
yMb:__Z18Transfer_BlittableI24GenerateTypeTreeTransferLb1E8Vector4fEvRK29SerializationCommandArgumentsR31RuntimeSerializationCommandInfo
pLp:b18
km:_pthread_detach
_Da:__ZN9Scripting11UnityEngine9Playables18PlayableAssetProxy9InitProxyEv
gye:_FontUpdateTracker_UntrackText_m1981515690
aGb:__ZN11MonoManager8TransferI19StreamedBinaryWriteEEvRT_
Ntf:__ZL64AnalyticsEventTracker_t2285229262_CustomAttributesCacheGeneratorP21CustomAttributesCache
xMc:__ZN15DirectorManager20ScheduleGraphDestroyERK14HPlayableGraph
MSb:__ZNSt3__213__stable_sortIRN10vector_mapI17ScriptingClassPtrPKN5Unity4TypeENS_4lessIS2_EENS_9allocatorINS_4pairIS2_S6_EEEEE13value_compareENS_11__wrap_iterIPSB_EEEEvT0_SJ_T_NS_15iterator_traitsISJ_E15difference_typeEPNSM_10value_typeEi
EIk:_SimpleCollator_FillSurrogateSortKeyRaw_m725998232
pql:__Z224RuntimeInvoker_Void_t1185182177_Rect_t2360479859_RuntimeObject_SByte_t1669577662_SByte_t1669577662_SByte_t1669577662_SByte_t1669577662_SByte_t1669577662_Int32_t2950945753_Int32_t2950945753_Color_t2555686324_Color_t2555686324PFvvEPK10MethodInfoPvPS4_
ytm:_List_1_AddEnumerable_m1284696147_gshared
Blj:_IPAddress_Equals_m1823478787
b2h:_Context_CreateNewContext_m3053563976
Gxc:__ZN9ShaderLab25SerializedTextureProperty8TransferI24GenerateTypeTreeTransferEEvRT_
zZo:__ZN6il2cpp2gc19AppendOnlyGCHashMapINSt3__24pairIPK14Il2CppAssemblyP11Il2CppClassEEP24Il2CppReflectionAssembly17ReflectionMapHashIS9_ENS2_8equal_toIS9_EEEC2Ev
RFa:__ZN9Scripting11UnityEngine12Experimental9Playables27MaterialEffectPlayableProxy12CleanupProxyEv
Cca:__GLOBAL__sub_I_Runtime_Camera_RenderLoops_2_cpp
gLh:_PlayableOutputHandle_Equals_m2815498676_AdjustorThunk
Eyh:_InvokableCall_remove_Delegate_m1376110510
AW:__ZN20DiagnosticSwitchEnumI14FMODDebugTypesE20ApplyPersistentValueEv
KBi:_Hashtable_Clear_m3112193608
pup:_GC_block_was_dirty
JUk:_UTF8Encoding_InternalGetByteCount_m771565606
Rap:__ZNK15dense_hashtableINSt3__24pairIK10KeyWrapperIP14Il2CppIUnknownEjEES5_N6il2cpp5utils11PointerHashIS3_EEN14dense_hash_mapIS5_jSB_NS5_14EqualsComparerINS0_8equal_toIS4_EEEENS0_9allocatorIS7_EEE9SelectKeyESG_SI_E12test_deletedEj
Nad:__Z18Transfer_BlittableI8JSONReadLb1EyEvRK29SerializationCommandArgumentsR31RuntimeSerializationCommandInfo
DJ:__ZN13AnimationClip8TransferI19StreamedBinaryWriteEEvRT_
e5e:__ZL51GUILayer_t2783472903_CustomAttributesCacheGeneratorP21CustomAttributesCache
sTa:__ZN9GfxDevice20GetVertexDeclarationERK18VertexChannelsInfoNS_30VertexDeclarationMRUCacheIndexE
qhk:_Array_InternalArray__IEnumerable_GetEnumerator_TisUInt64_t4134040092_m1382862496_gshared
hh:_emscripten_glMatrixMode
Geh:_MaskableGraphic_UnityEngine_UI_IClippable_get_gameObject_m1739855597
Yvk:_SecurityFrame_get_Assembly_m2874566710
E1j:_Guid__ctor_m3562600567_AdjustorThunk
a8:__ZN11UnityEngine15CloudWebService14DataDispatcher16PrepareDataBlockERNS0_16SessionContainerE
Y6b:__ZN18GfxFramebufferGLES5ClearE13GfxClearFlagsRK10ColorRGBAffib
Eta:__ZN13PlayableGraphD2Ev
Gkk:_MonoProperty_StaticGetterAdapterFrame_TisRuntimeObject_m4131530968_gshared
SAa:__ZL53__ManagedRegistrationHelperFunction_MeshRendererProxyPv
Iyg:_InternalEnumerator_1_get_Current_m2316281569_gshared
vdc:__ZL12DepthPassJobPN21GfxDeviceAsyncCommand10ArgScratchEPKNS_3ArgE
_vc:__ZNSt3__26vectorIN9ShaderLab20SerializedSubProgram16TextureParameterENS_9allocatorIS3_EEE6assignINS_11__wrap_iterIPS3_EEEENS_9enable_ifIXaasr21__is_forward_iteratorIT_EE5valuesr16is_constructibleIS3_NS_15iterator_traitsISC_E9referenceEEE5valueEvE4typeESC_SC_
vzm:_List_1_set_Item_m822941211_gshared
HGh:_MonoBehaviour_IsInvoking_m3285132449
Ddd:__ZN5Unity9rapidjson6WriterI16TempBufferWriterNS0_4UTF8IcEES4_13JSONAllocatorE11WriteDoubleEd
HVd:__ZThn1172_N18UnityConnectClientD0Ev
p3n:_UnityWebRequest_GetWebErrorString_m4076320575
hYk:_Thread_SetCachedCurrentUICulture_m1729523031
CDb:__ZN14GfxDeviceStats16CopyAllDrawStatsERKS_
Mlf:__ZL70EventSystem_t1003666588_CustomAttributesCacheGenerator_m_FirstSelectedP21CustomAttributesCache
go:FUNCTION_TABLE_iiiiiiiiiiii
Vsm:_List_1_get_Item_m1686506901_gshared
F5a:__ZN6prcore9BlitImageERK14ImageReferenceRS0_13ImageBlitMode
jVa:__ZN16GraphicsSettingsD0Ev
pfa:__Z12FormatBufferPciPKcz
q9o:__ZN6il2cpp6icalls8mscorlib6SystemL52FormatExceptionMessageForNonConstructableGenericTypeEPK10Il2CppTypeRKNSt3__26vectorIS5_NS6_9allocatorIS5_EEEE
WVd:__ZNSt3__26__treeINS_12__value_typeIN4core12basic_stringIcNS2_20StringStorageDefaultIcEEEE14CallbackArray3IRKS6_R8JSONReadbEEENS_19__map_value_compareIS6_SD_NS_4lessIS6_EELb1EEE13stl_allocatorISD_L18MemLabelIdentifier6ELi16EEE7destroyEPNS_11__tree_nodeISD_PvEE
n:cttz_i8
kCd:_UNITY_FT_GlyphLoader_Add
Gsg:__Z75InternalEnumerator_1_System_Collections_IEnumerator_get_Current_m2742943179P31InternalEnumerator_1_t350626606PK10MethodInfo
coi:_AppDomain_InternalPopDomainRef_m412593501
CHf:__ZN31OpCodes_t126150456_StaticFields15set_Bge_Un_S_51E17OpCode_t123070264
ZZh:_ServerIdentity_OnLifetimeExpired_m3729485875
Z6n:_AudioListener_INTERNAL_CALL_ReadExtensionPropertyName_m330480156
a4i:_Convert_ToUInt16_m867476252
ki:_emscripten_glViewport
_Jc:__Z21GenerateTilingAreaJobP22GenerateTilingAreaInfoj
rqp:__ZN6il2cpp6icalls8mscorlib6System15MonoCustomAttrs17IsDefinedInternalEP12Il2CppObjectP20Il2CppReflectionType
Dhb:__ZNK16MeshVertexFormat26GetVertexDeclarationSpriteER9GfxDevice16VertexInputMasksjb
Wno:_SkeletonBone_t4134054672_marshal_pinvoke_back
BCp:__Z18RegisterAllClassesv
GDd:_cff_parse_font_bbox
KFk:_MSCompatUnicodeTable_Category_m1834196420
JAg:__Z44InternalEnumerator_1_get_Current_m1408339225P32InternalEnumerator_1_t2576641779PK10MethodInfo
Yal:__Z85RuntimeInvoker_Void_t1185182177_Int32_t2950945753_Int32_t2950945753_Int32_t2950945753PFvvEPK10MethodInfoPvPS4_
bdj:_Double_CompareTo_m3151899116
OBp:__ZN6il2cpp2os5Event5ResetEv
UGd:_tt_name_ascii_from_other
Qbk:_TextWriter_Write_m2252948084
z0n:_ToggleGroup__ctor_m3308114662
Eka:__ZN18AwakeFromLoadQueue28InvokePersistentManagerAwakeEPNS_4ItemEj17AwakeFromLoadMode
BGl:_Array_Sort_TisUILineInfo_t4195266810_m3737783007_gshared
cKh:_PlayableAsset_Internal_CreatePlayable_m2550417712
gx:__ZNK17AnimationPlayable27GetNextCompatibleDescendantEj
WAd:__ZN13dynamic_arrayIN4core17string_with_labelILi35EEELj0EE6insertEPS2_jRKS2_
gjf:__ZL64GUIUtility_t1868551600_CustomAttributesCacheGenerator_s_SkinModeP21CustomAttributesCache
x_j:_GregorianCalendar_GetMonth_m3359423849
H8f:_ObjectWriter_BlockWrite_m827549826
cod:__ZN34b2SolveDiscreteIslandBodySleepTask7TaskJobEPS_j
Sll:__Z50RuntimeInvoker_Ray_t3785851493_Vector3_t3722313464PFvvEPK10MethodInfoPvPS4_
mWb:__Z25SetNeedToPerformRenderingb
ZUo:__ZN14dense_hash_mapI10KeyWrapperINSt3__24pairIPK9EventInfoP11Il2CppClassEEEj17ReflectionMapHashIS8_ENS9_14EqualsComparerINS1_8equal_toIS8_EEEENS1_9allocatorINS2_IKS9_jEEEEE3endEv
oYd:__ZN8JSONRead12TransferPairINSt3__24pairIN4core12basic_stringIcNS3_20StringStorageDefaultIcEEEEN11UnityEngine9Analytics16LimitEventConfigEEEEEvRT_17TransferMetaFlagsPKN5Unity9rapidjson12GenericValueINSG_4UTF8IcEE13JSONAllocatorEE
LMa:__ZN10GameObjectD2Ev
Jdc:__ZN14qsort_internal30FindAndMovePivotToLastPositionIP15RODataDepthPassi17ROSorterDepthPassEEvT_S4_T0_T1_
EFj:_MonoCustomAttrs__cctor_m4000462365
emc:__ZN12CullingGroup10SendEventsEPK17CullingGroupEventj
Ooc:__ZN19CustomRenderTexture4TickEf
rMl:_Transform_1_BeginInvoke_m942628308_gshared
_gk:_Array_InternalArray__IEnumerable_GetEnumerator_TisCustomAttributeTypedArgument_t2723150157_m1333528454_gshared
tge:_PointerInputModule__ctor_m3728889932
seb:__ZThn32_NK8Renderer8GetLayerEv
A6m:_X509Extension_Equals_m1779194186
VPa:__ZN9Coroutine16CleanupCoroutineEPv
LDd:_cff_parse_vsindex
nvk:_SecurityException_GetObjectData_m1968030344
v_o:__ZNSt3__26vectorIiNS_9allocatorIiEEEC2ERKS3_
Kyj:_Int32_ValidDigit_m1059003769
P2n:_DownloadHandler_Dispose_m2747726581
dRp:_emscripten_glTexParameterfv__wrapper
U9g:_LayoutGroup_get_rectTransform_m442863741
QGb:__Z18Transfer_BlittableI14SafeBinaryReadLb1E9BoundsIntEvRK29SerializationCommandArgumentsR31RuntimeSerializationCommandInfo
WCc:__ZN2UI13RectTransform17GetLocalPositionZEv
oUc:__Z57Register_UnityEngine_RectTransform_set_anchorMin_Injectedv
D0o:_il2cpp_method_get_param_count
npa:__ZNK5Unity4Type21FindAllDerivedClassesER13dynamic_arrayIPKS0_Lj0EENS0_17TypeFilterOptionsE
JUo:__ZNK15dense_hashtableINSt3__24pairIK10KeyWrapperINS1_IPK12PropertyInfoP11Il2CppClassEEEjEES9_17ReflectionMapHashIS8_EN14dense_hash_mapIS9_jSD_NS9_14EqualsComparerINS0_8equal_toIS8_EEEENS0_9allocatorISB_EEE9SelectKeyESI_SK_E3endEv
qWd:__ZN22BaseUnityConnectClient14AppRunningTickEj
M_c:__Z40Transform_CUSTOM_TransformPoint_InjectedP12Il2CppObjectRK8Vector3fRS1_
Mdk:_Array_InternalArray__ICollection_Contains_TisSByte_t1669577662_m926034270_gshared
RKd:_ps_dimension_done
q9f:_MessageFormatter_GetExtraProperties_m305191653
orb:__ZN12ScriptMapper23VirtualRedirectTransferER18StreamedBinaryRead
Ncb:__ZN16LightmapSettings8TransferI14SafeBinaryReadEEvRT_
o1b:__ZN17BufferManagerGLES13ReleaseBufferEP14DataBufferGLES
jLi:_CipherSuite_Write_m1172814058
rbk:_SynchronizedWriter_Write_m301917713
Ngk:_Array_InternalArray__IEnumerable_GetEnumerator_TisKeyValuePair_2_t1377593753_m4153773959_gshared
NLg:_InternalEnumerator_1_System_Collections_IEnumerator_get_Current_m660599465_AdjustorThunk
CIp:dynCall_dii
Kad:__Z18Transfer_BlittableI8JSONReadLb1EjEvRK29SerializationCommandArgumentsR31RuntimeSerializationCommandInfo
UQb:__Z18Transfer_BlittableI18StreamedBinaryReadLb1E5RectTIfEEvRK29SerializationCommandArgumentsR31RuntimeSerializationCommandInfo
mka:__ZNK27SharedObjectDeleteReleaseOpI10UnitySceneEclEPS0_10MemLabelId
G5f:_SerializationObjectManager_RaiseOnSerializedEvent_m272248422
axh:_Debug_LogWarning_m3752629331
HVm:_ReadOnlyCollection_1_System_Collections_Generic_IListU3CTU3E_RemoveAt_m4037795630_gshared
X0:__Z30GetAudioSpatializerDefinitionsR13dynamic_arrayIP29AudioEffectInternalDefinitionLj0EE31UnityAudioEffectDefinitionFlags
h3g:__ZN22InputField_t376291743134get_address_of_m_CaretBlinkRate_37Ev
dme:_U3COnFinishSubmitU3Ec__Iterator0_Reset_m3632769946
vp:stackSave
Maa:__ZN5Unity9rapidjson15GenericDocumentINS0_4UTF8IcEE13JSONAllocatorNS0_12CrtAllocatorEE6StringEPKcjb
gqe:_ColorTween_get_targetColor_m1724075482_AdjustorThunk
kLd:_ps_dimension_end
uYc:__Z41Register_UnityEngine_Mesh_Internal_Createv
Dgb:__ZN14SpriteRenderer23VirtualRedirectTransferER24GenerateTypeTreeTransfer
SZg:__Z30Transform_1_Invoke_m1839683782P23Transform_1_t3690794193iP12Il2CppObjectPK10MethodInfo
Hld:__ZNSt3__27__sort3IRN18Overlap2DQueryBase29ColliderHitsByDepthComparitorEPP10Collider2DEEjT0_S7_S7_T_
Egm:_Enumerator_Dispose_m2498245804_AdjustorThunk
i_i:_Console_Open_m3077673205
$4m:_X509StoreManager_get_CurrentUser_m4040993045
Onc:__ZN6Camera9SetAspectEf
ajk:_Array_InternalArray__IndexOf_TisDateTime_t3738529785_m2463359116_gshared
Ub:invoke_viiffiii
lOp:_emscripten_glBindVertexArray__wrapper
Sip:__ZN6il2cpp6icalls8mscorlib6System4Enum19get_underlying_typeEP20Il2CppReflectionType
hrn:_Parser_IsECMAScript_m674158805
wWh:_CADMessageBase_UnmarshalArgument_m2058572696
JNa:__ZN9Transform37InitializeTransformHierarchyRecursiveER18TransformHierarchyRii
rFb:__ZN26SinglePassStereoSupportExt23SetupStereoMatrixParamsE21MonoOrStereoscopicEye24BuiltinShaderMatrixParamRK10Matrix4x4f
iWm:_ReadOnlyCollection_1_System_Collections_Generic_ICollectionU3CTU3E_Clear_m3810106454_gshared
nCb:__ZN9GfxDevice23CreateAsyncReadbackDataEv
nFp:_fscanf
q1d:__ZNK25UnityWebRequestJavaScript16GetUploadedBytesEv
i4:__Z46AudioListener_CUSTOM_GetNumExtensionPropertiesP12Il2CppObject
RKo:__ZN6il2cpp6icalls8mscorlib6SystemL16CheckMemberMatchI9FieldInfoNS_5utils10functional6FilterINSt3__212basic_stringIcNS8_11char_traitsIcEENS8_9allocatorIcEEEENS5_13VmStringUtils23CaseInsensitiveComparerEEEEEbPKT_PK11Il2CppClassSN_iRKT0_
dPo:__ZN30dense_hashtable_const_iteratorINSt3__24pairIK10KeyWrapperINS1_IPK14Il2CppAssemblyP11Il2CppClassEEEjEES9_17ReflectionMapHashIS8_EN14dense_hash_mapIS9_jSD_NS9_14EqualsComparerINS0_8equal_toIS8_EEEENS0_9allocatorISB_EEE9SelectKeyESI_SK_EppEv
UGg:__Z75InternalEnumerator_1_System_Collections_IEnumerator_get_Current_m2424959150P32InternalEnumerator_1_t3186646106PK10MethodInfo
G9i:_Decimal_GetHashCode_m2838600885
Yll:__Z84RuntimeInvoker_RuntimeObject_RayU26_t3515555043_Single_t1397266774_Int32_t2950945753PFvvEPK10MethodInfoPvPS4_
I4c:__Z54GUIStyle_CUSTOM_Internal_GetCursorStringIndex_InjectedP12Il2CppObjectRK5RectTIfES0_RK8Vector2f
njk:_Array_InternalArray__IndexOf_TisMonoResource_t4103430009_m1351751258_gshared
apn:_Regex_Init_m289933770
d0b:__ZN13GfxDeviceGLES26SetRandomWriteTargetBufferEi15ComputeBufferID
Wup:_GC_split_block
FFl:_Array_Resize_TisUICharInfo_t75501106_m3903846016_gshared
D8b:__ZZ23InitPlayerLoopCallbacksvEN49EarlyUpdateResetFrameStatsAfterPresentRegistrator7ForwardEv
SFp:_poll
jSm:_ReadOnlyCollection_1_System_Collections_IEnumerable_GetEnumerator_m1671097018_gshared
B4k:_UInt64_ToString_m1529093114_AdjustorThunk
vZf:_TypeLibImportClassAttribute__ctor_m2302178978
fKk:_Escape_t3294788190_marshal_pinvoke
IDh:_Material__ctor_m1662457592
u6g:_InputField_OnUpdateSelected_m1118869681
Ibp:__ZN6il2cpp2vmL36AddNestedTypesToNametoClassHashTableEP40Il2CppNameToTypeDefinitionIndexHashTablePKcRKNSt3__212basic_stringIcNS5_11char_traitsIcEENS5_9allocatorIcEEEEP11Il2CppClass
ZFn:__Z31UnityAction_1_Invoke_m610765085P25UnityAction_1_t274106566419Vector2_t2156229523PK10MethodInfo
d7a:__ZN4crnd12crn_unpacker11unpack_dxt1EPPhjjj
Q3j:_BinaryWriter_Write_m3577537050
Wzc:__ZNK11ICallString6ToUTF8Ev
Huo:__ZN15dense_hashtableINSt3__24pairIK10KeyWrapperIPK22Il2CppGenericParameterEP11Il2CppClassEES6_N6il2cpp5utils11PointerHashIS4_EEN14dense_hash_mapIS6_S9_SE_NS6_14EqualsComparerINS0_8equal_toIS5_EEEENS0_9allocatorISA_EEE9SelectKeyESJ_SL_E15insert_noresizeERKSA_
Q_g:_Transform_1_Invoke_m2468053724_gshared
Kdc:__ZNSt3__211__sift_downIR17ROSorterDepthPassP15RODataDepthPassEEvT0_S5_T_NS_15iterator_traitsIS5_E15difference_typeES5_
w1a:__ZN18UnityPropertySheet11UnityTexEnvC2Ev
kpi:_ArgumentException__ctor_m3200406061
NK:__ZN8Animator17ApplyOnAnimatorIKEiRNS_11AnimatorJobE
$na:__ZN12FileAccessor4ReadEyyPvPy
$um:_List_1_set_Capacity_m2777925136_gshared
pZc:__Z46Register_UnityEngine_RectOffset_InternalCreatev
qnc:__ZN13RenderTexture9SetHeightEi
S1:__ZN11AudioSource26KillActiveProviderChannelsEv
Ema:__ZN17PersistentManager25PreallocateObjectThreadedEiNS_9LockFlagsE
ux:__ZN7mecanim9animation17ClearMotionOutputEPNS0_18AnimationNodeStateE
AMi:_CipherSuiteCollection_get_IsFixedSize_m3127823890
SKg:_InternalEnumerator_1_System_Collections_IEnumerator_get_Current_m3537550566_gshared
kkh:_Scrollbar_UpdateVisuals_m2492252165
tpp:__ZN4utf88internal8is_trailIcEEbT_
DFa:__ZN9Scripting11UnityEngine12Experimental10PlayerLoop18PreLateUpdateProxy12CleanupProxyEv
a3m:_PKCS12_get_Keys_m2165478388
w7o:__ZN6il2cpp6icalls8mscorlib6System2IO6MonoIO17GetFileAttributesEP12Il2CppStringPi
$hg:_HMACMD5__ctor_m3008609295
iEp:_hexfloat
NHd:_tt_cmap8_char_index
wbp:___cxx_global_var_init_3_43039
Yja:__Z24scripting_class_get_name17ScriptingClassPtr
Hnj:_Oid__ctor_m911618594
s2n:_VerticalLayoutGroup_CalculateLayoutInputHorizontal_m1404590745
QTf:_TypeDelegator_get_TypeHandle_m1498852405
hqa:__ZN13RuntimeStaticI15GUIEventManagerLb0EE13StaticDestroyEPv
pSi:__ZNK31TlsServerKeyExchange_t69946915115get_rsaParams_9Ev
ZGj:_ShortComparer_Compare_m1881262465
EIb:__Z29Transfer_Blittable_ArrayFieldI14SafeBinaryReadjEvRT_R9ArrayInfoRK23StaticTransferFieldInfo
Phm:_Enumerator_Dispose_m2367589020_gshared
vi:_emscripten_set_keydown_callback
YCk:_EncoderReplacementFallback__ctor_m1483565116
Fxj:_Interpreter_IsWordChar_m2858055765
IBi:_Hashtable_CopyTo_m2905447224
hoa:__ZN12FileAccessorC2Ev
pkf:__ZL58ContactFilter2D_t3805203441_CustomAttributesCacheGeneratorP21CustomAttributesCache
Heb:__ZNK8Renderer29FlattenPerMaterialCustomPropsER22PerThreadPageAllocatorR10RenderNode
lDn:_EventFunction_1_Invoke_m2429482587_gshared
D2n:_CertificateHandler_Dispose_m2100863831
Ltd:__ZN23ColliderTilingExtensionC2Ev
XDf:_ModuleBuilder_set_wrappers_type_m2998401134
SMo:__ZN6il2cpp2vm7Runtime12GetConfigDirEv
old:__ZNSt3__27__sort3IR22InverseDepthComparitorP8DepthHitEEjT0_S5_S5_T_
Jdm:_Enumerator_MoveNext_m1177880931_AdjustorThunk
Jnd:__ZN14qsort_internal18QSortSingleJobDataIPN25b2SynchronizeFixturesTask14b2DeferredMoveEiPFbRKS2_S5_EE7SortJobEPS8_
Aoh:_Slider_UpdateVisuals_m3662961057
Xgf:__ZL82Event_t2956885303_CustomAttributesCacheGenerator_Event_get_commandName_m4275147343P21CustomAttributesCache
zjo:_TextGenerator_Populate_m194003733
C9m:_TextEditor_Insert_m1009419335
ZYi:_Enumerator_MoveNext_m635366482
pQj:_DerivedType_get_FullName_m1025358827
Wdg:_CryptoConfig_MapNameToOID_m2044758263
Xr:__ZN13ConstraintJob23ConstraintComponentDataC2ERKS0_
Ppf:__ZL70InputField_t3762917431_CustomAttributesCacheGenerator_m_OnValueChangedP21CustomAttributesCache
WUb:__Z39WriteQueueForTransferSignatureIntoCacheRK31TransferFunctionScriptingTraitsRK24TransferRequestSignature17ScriptingClassPtrR23CachedSerializationDataRb
Uob:__ZN13RenderManager18UpdateAllRenderersEv
UDk:_Encoding_get_UTF8UnmarkedUnsafe_m320312322
xYk:_Thread_Thread_free_internal_m333849022
w7c:__Z35Transfer_Blittable_FixedBufferFieldI9JSONWritexEvRK29SerializationCommandArgumentsR31RuntimeSerializationCommandInfo
hfd:__ZN20PerformanceReporting17PlayerLoopHandlerEv
N9a:__ZN15QualitySettings23VirtualRedirectTransferER19StreamedBinaryWrite
xVd:__ZN22BaseUnityConnectClient30OnEnteringStatePausedOrStoppedEv
_qd:__ZN10ClipperLib7Clipper18SwapPositionsInAELEPNS_5TEdgeES2_
bkk:_Array_compare_TisCustomAttributeNamedArgument_t287865710_m2877346442_gshared
VIm:_Collection_1_ConvertItem_m1556170494_gshared
Ix:__ZN7mecanim5human12HumanPoseAddERNS0_9HumanPoseERKS1_S4_
j0i:_DateTime_ToUniversalTime_m1945318289
Vwi:_ArrayList_ToArray_m3827492363
vph:_Slider_get_stepSize_m1423227661
w4k:_UInt64_Parse_m819899889
eqk:_SymmetricAlgorithm_set_IV_m3196220308
qzf:_GenericTypeParameterBuilder_GetHashCode_m852224381
s4i:_Convert_ToUInt32_m1453583008
nXj:_CompareInfo_Compare_m894311506
pNa:__Z24MergeTransformComponentsR9TransformS0_b
hCo:__ZNK15dense_hashtableI10KeyWrapperIPK19Il2CppGenericMethodES4_N6il2cpp8metadata23Il2CppGenericMethodHashEN14dense_hash_setIS4_S7_NS4_14EqualsComparerINS6_26Il2CppGenericMethodCompareEEENSt3__29allocatorIS4_EEE8IdentityESB_SE_E10test_emptyEj
B7d:_EventSystem_UpdateModules_m3643806022
Fmo:_AnimationOffsetPlayable__cctor_m1029460816
fJa:__ZN19StreamedBinaryWrite5AlignEv
nVa:__ZN16GraphicsSettings23VirtualRedirectTransferER19StreamedBinaryWrite
Q3o:__ZNK6il2cpp8metadata19SZArrayClassCompareclEPK11Il2CppClassS4_
uUa:__Z37GetBarycentricCoordinatesForOuterCellPPK8Vector3fRK13dynamic_arrayIS_Lj0EERS0_RK11TetrahedronR8Vector4f
ii:_emscripten_glVertexAttribPointer
OXb:__ZN14PreloadManager26UpdatePreloadingSingleStepENS_21UpdatePreloadingFlagsEi
Hlh:_ScrollRect_SetLayoutHorizontal_m3078869633
JN:__ZN7mecanim9animation28DestroyBlendTreeNodeConstantEPNS0_21BlendTreeNodeConstantER20RuntimeBaseAllocator
t6m:_X509Crl_VerifySignature_m1377612461
dFo:__ZN24dense_hashtable_iteratorI10KeyWrapperIPK19Il2CppGenericMethodES4_N6il2cpp8metadata23Il2CppGenericMethodHashEN14dense_hash_setIS4_S7_NS4_14EqualsComparerINS6_26Il2CppGenericMethodCompareEEENSt3__29allocatorIS4_EEE8IdentityESB_SE_EC2EPK15dense_hashtableIS4_S4_S7_SG_SB_SE_EPS4_SM_b
gup:_GC_cond_register_dynamic_libraries
j4i:_Convert_ToUInt16_m1480956416
Pya:__ZN6prcoreL25inner_stretch_i8_bilinearEPKNS_9InnerInfoE
xqb:__ZL30RegisterFilteredObjectCallbackPP12Il2CppObjectiPv
bVm:_ReadOnlyCollection_1_System_Collections_Generic_IListU3CTU3E_RemoveAt_m3317217538_gshared
Qef:__ZL54AudioSource_t3935305588_CustomAttributesCacheGeneratorP21CustomAttributesCache
uid:__ZN16PhysicsManager2D19ApplyParticleForcesER13dynamic_arrayI21BatchedColliderResultLj0EE
zNd:__ZL49__ManagedRegistrationHelperFunction_TileDataProxyPv
I8:__ZN11UnityEngine15CloudWebService16SessionContainer24GetSessionHeaderJsonDataERKN4core12basic_stringIcNS2_20StringStorageDefaultIcEEEERNS2_13StringBuilderE
UPj:_DerivedType_GetEvent_m4157575360
zpa:__ZN13RuntimeStaticI21AssetReferenceStorageLb0EE13StaticDestroyEPv
RF:__Z23ConvertCacheToBuildKeysI11QuaternionfEvRN17AnimationCurveTplIT_E5CacheEiP19StreamedClipBuilder
cQe:__ZL56_MethodBuilder_t600455149_CustomAttributesCacheGeneratorP21CustomAttributesCache
t3j:_BinaryWriter__cctor_m874809665
Tsl:__Z72RuntimeInvoker_Bounds_t2266837910_RuntimeObject_Matrix4x4U26_t3606180965PFvvEPK10MethodInfoPvPS4_
s4a:__ZN18StreamedBinaryRead16TransferTypelessEPjPKc17TransferMetaFlags
O4h:__ZN16VirtFuncInvoker1I19TimeSpan_t881159249P12Il2CppObjectE6InvokeEjS2_S2_
Nkl:__Z103RuntimeInvoker_Void_t1185182177_Int16_t2552820387_SByte_t1669577662_SByte_t1669577662_SByte_t1669577662PFvvEPK10MethodInfoPvPS4_
stb:__ZNK17FileSystemHandler10IsReadOnlyERK13FileEntryData
$Xc:__Z34Quaternion_CUSTOM_Inverse_InjectedRK11QuaternionfRS_
lbg:_StreamingContext__ctor_m2604757771_AdjustorThunk
VMb:__Z18Transfer_BlittableI24GenerateTypeTreeTransferLb1EjEvRK29SerializationCommandArgumentsR31RuntimeSerializationCommandInfo
Euo:__ZN6il2cpp2os12FastAutoLockD2Ev
ZDd:_cff_vstore_done
jMa:__ZN18StreamedBinaryRead21TransferSTLStyleArrayI13dynamic_arrayI17SortingLayerEntryLj0EEEEvRT_17TransferMetaFlags
tll:__Z68RuntimeInvoker_Void_t1185182177_UInt16_t2177724958_SByte_t1669577662PFvvEPK10MethodInfoPvPS4_
Xrg:_InternalEnumerator_1_get_Current_m3008260692_AdjustorThunk
Rig:_MACTripleDES_HashFinal_m3613553534
O3k:_UInt64_System_IConvertible_ToChar_m2074245892
wZa:__ZN13RenderTexture6CreateERK12ObjectHandleI17RenderSurface_TagP17RenderSurfaceBaseES6_NS_11CreateFlagsE
NUk:_UTF8Encoding_InternalGetBytes_m1965760031
xf:_emscripten_glClearDepth
UDc:__ZNK8GUILayer22GetTypeVirtualInternalEv
T9a:__ZN14SafeBinaryRead21TransferSTLStyleArrayINSt3__26vectorIN15QualitySettings14QualitySettingENS1_9allocatorIS4_EEEEEEvRT_17TransferMetaFlags
BXg:_KeyCollection__ctor_m2388548663_gshared
amb:__ZNSt3__26vectorINS_4pairIPKN5Unity4TypeE7Hash128EENS_9allocatorIS7_EEE8__appendEj
ybd:__ZN8JSONRead21TransferSTLStyleArrayI13dynamic_arrayIaLj0EEEEvRT_17TransferMetaFlags
aEd:_cff_font_load
BE:__Z25AddPPtrCurveToClipBuilderR13dynamic_arrayI12PPtrKeyframeLj0EERKN11UnityEngine9Animation14GenericBindingER18MecanimClipBuilder
ORc:__Z13IsPathCreatedRKN4core12basic_stringIcNS_20StringStorageDefaultIcEEEE
X5a:__ZL22stbir__encode_scanlineP11stbir__infoiPvPfiii
hYf:_ExternalException__ctor_m2877839282
wwd:__ZN20QuadTreeNodeRenderer13StaticDestroyEPv
E9:__ZN11UnityEngine15CloudWebService20WebRequestRestClient5AbortEv
TBc:__ZN9Transform12CleanupClassEv
Pof:__ZL57FontData_t746620069_CustomAttributesCacheGenerator_m_FontP21CustomAttributesCache
YDh:_Mathf_Sin_m3411839043
HBa:__ZL55__ManagedRegistrationHelperFunction_SetupCoroutineProxyPv
aKj:_OperatingSystem_Clone_m1122165140
bLl:_GameObject_AddComponent_TisRuntimeObject_m3469369570_gshared
lK:__ZN11UnityEngine9Animation33SetGenericTransformPropertyValuesERKNS0_30AnimatorGenericBindingConstantERKN7mecanim10ValueArrayEP9Transformy
DI:__ZN11UnityEngine9Animation28AnimationClipBindingConstant8TransferI24GenerateTypeTreeTransferEEvRT_
jko:_Canvas_add_willRenderCanvases_m1234571137
Aqm:_List_1_RemoveAll_m3165362277_gshared
n0k:_Type_type_is_subtype_of_m1406623598
tBm:__Z32Enumerator_get_Current_m42805805P22Enumerator_t1142515742PK10MethodInfo
mV:__ZN9Scripting11UnityEngine2XR5Tango29MeshReconstructionServerProxy9InitProxyEv
uhk:_Array_InternalArray__IEnumerable_GetEnumerator_TisRaycastResult_t3360306849_m3650537473_gshared
Sjk:_Array_InternalArray__IndexOf_TisVector2_t2156229523_m424149457_gshared
Oqe:__Z31UnityEvent_1_Invoke_m3884411426P24UnityEvent_1_t343734582817Color_t2555686324PK10MethodInfo
ZVk:_Thread_get_CurrentThread_m4142136012
HTa:__Z30ProcessDynamicBatchGeometryJobP25DynamicVBOGeometryJobDataj
Lwc:__ZNSt3__26__treeINS_12__value_typeI11ShaderTagIDS2_EENS_19__map_value_compareIS2_S3_NS_4lessIS2_EELb1EEENS_9allocatorIS3_EEE12__find_equalIS2_EERPNS_16__tree_node_baseIPvEENS_21__tree_const_iteratorIS3_PNS_11__tree_nodeIS3_SD_EEiEERPNS_15__tree_end_nodeISF_EESG_RKT_
nec:__ZNSt3__27__sort4IRNS_6__lessI11CulledLightS2_EEPS2_EEjT0_S6_S6_S6_T_
ZZo:__ZN6il2cpp2vm14TypeNameParser26ParseArrayModifierOptionalEv
ola:__Z26scripting_object_get_class18ScriptingObjectPtr
q6o:__ZN6il2cpp6icalls8mscorlib6System10Reflection8Assembly13get_code_baseEP24Il2CppReflectionAssemblyb
Tmb:__ZNSt3__26vectorIN4core12basic_stringIcNS1_20StringStorageDefaultIcEEEE13stl_allocatorIS5_L18MemLabelIdentifier13ELi16EEE7reserveEj
IDc:__ZNK28MonoBehaviourPropertyBinding15GenerateBindingERKN4core12basic_stringIcNS0_20StringStorageDefaultIcEEEEbRN11UnityEngine9Animation14GenericBindingE
hwm:_List_1_set_Item_m35836043_gshared
auj:_X509ChainElementCollection__ctor_m3424079155
YUg:_Enumerator_System_Collections_IDictionaryEnumerator_get_Value_m3881181744_AdjustorThunk
Ljh:_ScrollRect_get_viewRect_m791243225
vig:_HMACSHA512__cctor_m4155933671
fmn:_LinkStack_Push_m3081279930
YVd:__Z33GetUnityAnalyticsScriptingClassesv
UTg:_Enumerator_MoveNext_m1107569389_gshared
XYk:_Timer_Init_m891735195
lnp:__ZN6il2cpp6icalls8mscorlib6System11Environment15internalGetHomeEv
kFh:_Matrix4x4_GetHashCode_m4034747639_AdjustorThunk
xGa:__ZN9Scripting11UnityEngine12CubemapProxy12CleanupProxyEv
GWf:_ResourceCacheItem_t51292791_marshal_pinvoke_cleanup
fIa:__ZNK5Unity9Component7GetNameEv
noc:__Z23FindMonoScriptFromClass17ScriptingClassPtr
jom:_List_1_GetEnumerator_m232588170_gshared
r1n:__Z24List_1_Clear_m3097985365P17List_1_t899420910PK10MethodInfo
Nah:_U3CDelayedSetDirtyU3Ec__Iterator0_Reset_m160466733
iK:__ZN11UnityEngine9Animation28SetGenericPPtrPropertyValuesERKNS0_30AnimatorGenericBindingConstantERKN7mecanim10ValueArrayE
UQj:_DynamicMethod_ToString_m2710486086
oum:_List_1_System_Collections_IList_Remove_m1070694895_gshared
cen:_LayoutCache__ctor_m3885940174
umo:_AnimationMotionXToDeltaPlayable_GetHandle_m1319190040_AdjustorThunk
Dgd:__ZNK11b2RopeJoint16GetReactionForceEf
Mrp:__ZN6il2cpp6icalls8mscorlib6System11DiagnosticsL39IsCalledFromSystemDiagnosticsStackTraceERKNSt3__26vectorI20Il2CppStackFrameInfoNS4_9allocatorIS6_EEEE
xL:__ZN7mecanim8skeleton26SkeletonPoseComputeGlobalQEPKNS0_8SkeletonEPKNS0_13SkeletonPoseTIN4math4trsXEEEPS7_ii
N3k:_UInt64_System_IConvertible_ToByte_m1501504925_AdjustorThunk
uRi:_TlsClientHello_ProcessAsTls1_m2549285167
jAa:__ZL50__ManagedRegistrationHelperFunction_PreUpdateProxyPv
DNk:_CryptoConvert_ToCapiKeyBlob_m3371450375
RSm:_ReadOnlyCollection_1_System_Collections_IList_Clear_m3591436538_gshared
wsg:__Z38InternalEnumerator_1__ctor_m3456047704P31InternalEnumerator_1_t350626606P11Il2CppArrayPK10MethodInfo
cL:__ZN9BlobWrite8TransferI22OffsetPtrArrayTransferIiEEEvRT_PKc17TransferMetaFlags
ICk:_EncoderExceptionFallback_Equals_m2760188920
xFg:_InternalEnumerator_1__ctor_m43405049_AdjustorThunk
eV:__ZL65__ManagedRegistrationHelperFunction_MeshReconstructionConfigProxyPv
Yem:__Z33Enumerator_get_Current_m530189328P22Enumerator_t2426658172PK10MethodInfo
l_:__ZN4FMOD6System7releaseEv
Zsi:_Boolean_CompareTo_m3665076258
_xk:_String_Split_m3580120853
rQk:_PrivateKeyInfo__ctor_m2811023496
Ena:__Z18PathToAbsolutePathRKN4core12basic_stringIcNS_20StringStorageDefaultIcEEEE
jLf:_PropertyBuilder_GetCustomAttributes_m2917594003
xgn:_GUILayoutUtility_LayoutFromEditorWindow_m2914699782
Gmg:__Z41InternalEnumerator_1_MoveNext_m4138845038P32InternalEnumerator_1_t4239932009PK10MethodInfo
mG:__ZN13AnimationClip23VirtualRedirectTransferER17RemapPPtrTransfer
nYc:__Z22Mesh_CUSTOM_HasChannelP12Il2CppObject30InternalScriptingShaderChannel
uMc:__ZN15DirectorManager17AcquireOutputNodeEv
u3a:__Z14resize_trimmedINSt3__26vectorI13dynamic_arrayI8Vector2fLj0EENS0_9allocatorIS4_EEEEEvRT_j
YEl:_Array_InternalArray__set_Item_TisColor32_t2600501292_m1891325855_gshared
eLl:_GameObject_GetComponentInChildren_TisRuntimeObject_m1310240902_gshared
yej:_Locale_GetText_m2640320736
Qaf:__ZL69PersistentCall_t3407714124_CustomAttributesCacheGenerator_m_ArgumentsP21CustomAttributesCache
Deb:__ZN23TextureStreamingManager11AddRendererER8Renderer
Axa:__ZN6prcoreL21StretchRGB9e5BilinearEPKNS_9InnerInfoE
KXa:__ZN16ReflectionProbes28GetMinBakedCubemapResolutionEv
o6o:__ZN6il2cpp6icalls8mscorlib6System10Reflection8Assembly22load_with_partial_nameEP12Il2CppStringP40mscorlib_System_Security_Policy_Evidence
cib:__ZN14BlendShapeData8TransferI14SafeBinaryReadEEvRT_
Wpp:__GLOBAL__sub_I_String_cpp
Fuo:__ZN15dense_hashtableINSt3__24pairIK10KeyWrapperIPK22Il2CppGenericParameterEP11Il2CppClassEES6_N6il2cpp5utils11PointerHashIS4_EEN14dense_hash_mapIS6_S9_SE_NS6_14EqualsComparerINS0_8equal_toIS5_EEEENS0_9allocatorISA_EEE9SelectKeyESJ_SL_E6insertERKSA_
dYh:_CADMessageBase_MarshalArguments_m1927937746
H6g:_InputField_GenerateCaret_m1459647218
YP:__ZNSt3__26__sortIRNS_6__lessI4PPtrI13AnimationClipES4_EEPS4_EEvT0_S8_T_
nIc:__Z43Register_UnityEngine_Input_GetKeyDownStringv
CIa:__Z29GetGlobalAllowNameConversionsv
XCl:_Array_InternalArray__Insert_TisTableRange_t3332867892_m558285859_gshared
Dhm:__Z34Enumerator_VerifyState_m3479732886P22Enumerator_t2788664787PK10MethodInfo
epc:__ZN8Material8SetColorEN9ShaderLab16FastPropertyNameERK10ColorRGBAf
him:_Enumerator_System_Collections_IEnumerator_Reset_m3754523291_gshared
lMa:__ZN15SerializeTraitsI13dynamic_arrayI17SortingLayerEntryLj0EEE8TransferI19StreamedBinaryWriteEEvRS2_RT_
RQp:_glUniform3uiv__wrapper
Ptj:_X509CertificateEnumerator__ctor_m943731472
Dpk:_SHA512Managed_processLength_m2162821715
HMh:_RangeInt_get_end_m4128831787
w0d:__Z25GetUnityConnectModuleSpecv
Wsm:_List_1_set_Item_m2082115010_gshared
KDk:_Encoding_GetBytes_m3735967069
Kpd:__ZN23ColliderTilingExtension5ResetEv
B4b:__ZN14GfxContextGLES43AddRenderSurfaceToDeferredFBOInvalidateListEPK17RenderSurfaceGLES
$6o:__ZN6il2cpp6icalls8mscorlib6System9Threading6Thread15Thread_internalEP12Il2CppThreadP14Il2CppDelegate
_ma:__ZN14SerializedFile14SerializedTypeD2Ev
MAd:__ZNSt3__26vectorIN20TextRenderingPrivate8FontImpl13CharacterInfoE13stl_allocatorIS3_L18MemLabelIdentifier1ELi16EEE6insertENS_11__wrap_iterIPKS3_EERS9_
Rnb:__ZN23PreloadManagerOperation6IsDoneEv
KAa:__ZL44__ManagedRegistrationHelperFunction_LODProxyPv
Mzo:__ZNK15dense_hashtableINSt3__24pairIK10KeyWrapperIP9FieldInfoEiEES5_N6il2cpp5utils11PointerHashIS3_EEN14dense_hash_mapIS5_iSB_NS5_14EqualsComparerINS0_8equal_toIS4_EEEENS0_9allocatorIS7_EEE9SelectKeyESG_SI_E3endEv
Mud:__ZN10Effector2D10EndContactEP9b2Contact
_op:__ZN6il2cpp5utils11StringUtils11Utf16ToUtf8ERKNSt3__212basic_stringIDsNS2_11char_traitsIDsEENS2_9allocatorIDsEEEE
iGi:_MD4Managed_Decode_m4273685594
Cpb:__ZN21LightProbeProxyVolume18HasHardwareSupportEv
Skd:__ZNK20b2SeparationFunction17FindMinSeparationEPiS0_f
QDj:_IntPtr__ctor_m620280096
Oya:__ZN6prcoreL31inner_stretch_argb8888_bilinearEPKNS_9InnerInfoE
rId:_UNITY_FT_Outline_Decompose
JCj:_Int64_System_IConvertible_ToChar_m1509243576_AdjustorThunk
X0m:_GeneralNames_get_IPAddresses_m4242915644
Ycm:_Enumerator_Dispose_m3500272053_AdjustorThunk
ADo:__ZNSt3__24pairIK10KeyWrapperIN6il2cpp5utils13dynamic_arrayIPK10Il2CppTypeLj4EEEEPFvvEEC2ERKSD_
gQa:__Z20scripting_object_new17ScriptingClassPtr
Gym:_List_1_System_Collections_IList_Remove_m2868726600_gshared
bRk:_KeyGeneratedEventHandler_Invoke_m2527485594
PPo:__ZN24dense_hashtable_iteratorINSt3__24pairIK10KeyWrapperINS1_IPK9FieldInfoP11Il2CppClassEEEjEES9_17ReflectionMapHashIS8_EN14dense_hash_mapIS9_jSD_NS9_14EqualsComparerINS0_8equal_toIS8_EEEENS0_9allocatorISB_EEE9SelectKeyESI_SK_E30advance_past_empty_and_deletedEv
S8i:_Decimal__ctor_m1925875020_AdjustorThunk
C4f:_SerializationCallbacks__ctor_m3863304525
nwd:__GLOBAL__sub_I_TerrainScriptingClasses_cpp
gVa:__ZN18ShadowMapJobHeaderD0Ev
L:Math_exp
Mao:_Vector3_Min_m1803158933
Kn:FUNCTION_TABLE_iiifi
Ntd:__ZN13BoxCollider2D15InitializeClassEv
Hak:_StreamWriter_LowLevelWrite_m1081676583
x$m:_TlsServerSettings_set_CertificateTypes_m2047242411
FVn:_SymmetricTransform_OFB_m3690147804
$Ig:_InternalEnumerator_1_MoveNext_m3713722659_AdjustorThunk
rUb:__ZN13MonoBehaviour9SetScriptERK4PPtrI10MonoScriptE18ScriptingObjectPtr
WQb:__Z18Transfer_BlittableI18StreamedBinaryReadLb1E5RectTIiEEvRK29SerializationCommandArgumentsR31RuntimeSerializationCommandInfo
Wro:_RaycastHit2D_get_collider_m1549426026
uZo:__ZN14dense_hash_mapI10KeyWrapperINSt3__24pairIPK9FieldInfoP11Il2CppClassEEEj17ReflectionMapHashIS8_ENS9_14EqualsComparerINS1_8equal_toIS8_EEEENS1_9allocatorINS2_IKS9_jEEEEED2Ev
Eap:__ZNSt3__218uninitialized_copyIPNS_4pairIK10KeyWrapperIP14Il2CppIUnknownEjEES8_EET0_T_SA_S9_
rvb:__ZNK10FileSystem16LastErrorMessageEv
Too:_CustomEventData_Internal_Destroy_m3916992396
Rxo:__ZN15dense_hashtableINSt3__24pairIK10KeyWrapperIPK11Il2CppClassEPKcEES6_N6il2cpp5utils11PointerHashIS3_EEN14dense_hash_mapIS6_S9_SE_NS6_14EqualsComparerINS0_8equal_toIS5_EEEENS0_9allocatorISA_EEE9SelectKeyESJ_SL_E14squash_deletedEv
dae:_EventSystem_Update_m1662072334
hBk:_SystemException__ctor_m4132668650
O2d:__ZN22UnityWebRequestManager10InitializeEv
Gnb:__ZNSt3__26__treeINS_12__value_typeIN4core12basic_stringIcNS2_20StringStorageDefaultIcEEEE4PPtrI6ObjectEEENS_19__map_value_compareIS6_SA_NS_4lessIS6_EELb1EEE13stl_allocatorISA_L18MemLabelIdentifier52ELi16EEE15__emplace_multiIJRNS_4pairIS6_S9_EEEEENS_15__tree_iteratorISA_PNS_11__tree_nodeISA_PvEEiEEDpOT_
qwp:__ZN6il2cpp6icalls8mscorlib6System10Reflection4Emit13ModuleBuilder20create_modified_typeEP27Il2CppReflectionTypeBuilderP12Il2CppString
ksp:__ZN6il2cpp8metadataL7CompareIhEEiRKT_S4_
hAd:_raccess_guess_darwin_newvfs
Xdb:__ZN8Renderer23VirtualRedirectTransferER18StreamedBinaryRead
bLb:__ZL26Transfer_SimpleNativeClassI17RemapPPtrTransfer8GradientLb1EEvRK29SerializationCommandArgumentsR31RuntimeSerializationCommandInfo
U8d:_RaycasterManager_RemoveRaycasters_m3057093063
lJc:__ZN12CachedWriter9InitWriteER15CacheWriterBase
iMc:__Z21UnsignedInt64ToStringy
K1n:__Z26List_1_set_Item_m658432263P17List_1_t899420910i19Vector3_t3722313464PK10MethodInfo
Hhh:_GetRaycastNonAllocCallback_BeginInvoke_m3984885848
Zvg:_InternalEnumerator_1_MoveNext_m4138204635_AdjustorThunk
Vnn:_PatternCompiler_BeginLink_m1295557963
gsf:__ZL70CanvasScaler_t2767979955_CustomAttributesCacheGenerator_m_PhysicalUnitP21CustomAttributesCache
p1j:_GuidParser_ThrowFormatException_m3223388534
Atn:_Group_GetAnchorInfo_m3730312864
bpf:__ZL50Graphic_t1660335611_CustomAttributesCacheGeneratorP21CustomAttributesCache
bKg:__Z44InternalEnumerator_1_get_Current_m2297647799P32InternalEnumerator_1_t2261582729PK10MethodInfo
hYg:_KeyCollection_System_Collections_Generic_ICollectionU3CTKeyU3E_Add_m454648927_gshared
q$k:_TimeSpan_op_LessThanOrEqual_m300470010
Gup:_GC_print_static_roots
Fgf:__ZL139AnimatorOverrideController_t3582062219_CustomAttributesCacheGenerator_AnimatorOverrideController_OnInvalidateOverrideController_m3380737075P21CustomAttributesCache
PS:__ZN15SerializeTraitsI9OffsetPtrIN7mecanim9animation17BlendTreeConstantEEE8TransferI19StreamedBinaryWriteEEvRS4_RT_
RHh:__Z76Enumerable_SingleOrDefault_TisMessageTypeSubscribers_t1684935770_m2109312684P12Il2CppObjectS0_P18Func_2_t2172606577PK10MethodInfo
OAo:__ZNSt3__218uninitialized_fillIPNS_4pairIK10KeyWrapperIPK19Il2CppGenericMethodEPK26Il2CppGenericMethodIndicesEESB_EEvT_SD_RKT0_
jta:__ZZN15DirectorManager15InitializeClassEvEN41FixedUpdateDirectorFixedUpdateRegistrator7ForwardEv
yWo:__ZN6il2cpp2vmL10IsAssemblyEP12Il2CppObject
M7j:_MemoryStream_get_Position_m3733941202
Cyp:__ZN6il2cpp2os9MutexImpl7TryLockEjb
rup:_GC_clear_fl_links
Ryf:_GenericTypeParameterBuilder_InvokeMember_m1647304778
zcn:_GUIClip_Push_m1724200065
htc:__ZL10KeyHandleriPK23EmscriptenKeyboardEventPv
WNp:_glLinkProgram__wrapper
Ktb:__ZN18ScriptingArguments8AddInt64Ex
Zxa:__ZN6prcoreL12RemapGenericI17TexFormatARGB888815TexFormatBGR888EEvPKNS_9InnerInfoE
lFb:__ZN26SinglePassStereoSupportExt19SaveStereoConstantsEv
Hua:__ZNSt3__26vectorIP10MemoryPool13stl_allocatorIS2_L18MemLabelIdentifier76ELi16EEE21__push_back_slow_pathIRKS2_EEvOT_
J0j:_TextInfo_get_ListSeparator_m1628160079
Qnh:_Selectable_OnCanvasGroupChanged_m472903475
E9o:__ZN6il2cpp6icalls8mscorlib6System13Globalization11CultureInfo35construct_internal_locale_from_nameEP17Il2CppCultureInfoP12Il2CppString
mRm:_ReadOnlyCollection_1_System_Collections_IList_set_Item_m4015530489_gshared
cqo:__ZL18incMultConstant128PyS_ii
iNb:__ZL22Transfer_ManagedObjectI24GenerateTypeTreeTransferLb1EEvRK29SerializationCommandArgumentsR31RuntimeSerializationCommandInfo
Mbc:__ZN15RenderNodeQueueC2E10MemLabelId
kJo:__ZN6il2cpp2vm21ThreadPoolCompartment20SpawnNewWorkerThreadEv
rWf:_ResourceEnumerator_FillCache_m1661715061
AUe:__ZL72SecuritySafeCriticalAttribute_t3505979402_CustomAttributesCacheGeneratorP21CustomAttributesCache
zi:_emscripten_set_main_loop_timing
Yth:_Bounds_get_min_m3755135869
c4i:_Convert_ToUInt16_m3523269149
ohp:__ZN24dense_hashtable_iteratorINSt3__24pairIK10KeyWrapperIP12Il2CppObjectEN6il2cpp2gc9CachedCCWEEES5_NS7_5utils11PointerHashIS3_EEN14dense_hash_mapIS5_S9_SD_NS5_14EqualsComparerINS0_8equal_toIS4_EEEENS0_9allocatorISA_EEE9SelectKeyESI_SK_EC2EPK15dense_hashtableISA_S5_SD_SM_SI_SK_EPSA_SS_b
B2b:__ZN14DataBufferGLES12RecordRenderEv
Gbe:_ExecuteEvents_get_endDragHandler_m2879610446
AO:__ZNSt3__26vectorIN9Animation15QueuedAnimationE13stl_allocatorIS2_L18MemLabelIdentifier26ELi16EEE21__push_back_slow_pathIRKS2_EEvOT_
Koc:__ZN14ImageReference10FlipImageYEv
RHc:__Z29Input_CUSTOM_GetKeyDownStringP12Il2CppString
PNm:_Collection_1_IsSynchronized_m1221696663_gshared
Qwa:__ZN6prcoreL17RGBAFloatToRGB9e5EPKNS_9InnerInfoE
RIg:__Z44InternalEnumerator_1_get_Current_m3792939945P31InternalEnumerator_1_t982565223PK10MethodInfo
bX:__ZN4FMOD3DSP9setBypassEb
Zsc:__Z19NormalizeWheelInputf
jAe:_Graphic_DoMeshGeneration_m3548487693
LH:__ZN11KeyframeTplIfE8TransferI14SafeBinaryReadEEvRT_
tqn:_Repetition__ctor_m1672362629
Ncd:__Z29Transfer_Blittable_ArrayFieldI8JSONReadhEvRT_R9ArrayInfoRK23StaticTransferFieldInfo
gwk:_SecurityFrame_ToString_m339310712_AdjustorThunk
cAc:__ZN11MonoManager25GetImageFromAssemblyIndexEi
Mrg:_InternalEnumerator_1_get_Current_m3008260692_gshared
rBp:__ZN6il2cpp2os20ThreadLocalValueImpl8SetValueEPv
Yqp:__ZN6il2cpp2os11Environment17GetProcessorCountEv
R1i:_Decimal_op_Implicit_m2299919277
y7c:__Z18Transfer_BlittableI9JSONWriteLb1EtEvRK29SerializationCommandArgumentsR31RuntimeSerializationCommandInfo
aHf:__ZN31OpCodes_t126150456_StaticFields15set_Ldc_I4_1_23E17OpCode_t123070264
hck:_UnexceptionalStreamReader_ReadToEnd_m920589220
Q6i:_DateTime_System_IConvertible_ToType_m1242864300
Byk:_String_IndexOf_m1298810678
Fe:___syscall85
pQd:__ZN2UI14CanvasRenderer18UpdateTRSHierarchyEb
n5o:__ZN6il2cpp5utils10StringViewIDsE5EmptyEv
Rbc:__ZNSt3__26__sortIRPFbP10GUIElementS2_EPS2_EEvT0_S7_T_
_Dc:__ZN16GraphicsSettings12CleanupClassEv
HJg:__Z44InternalEnumerator_1_get_Current_m1534474313P31InternalEnumerator_1_t669594426PK10MethodInfo
yAk:_EncoderFallback_get_ReplacementFallback_m818398284
_lp:__ZN6il2cpp2os6Thread19DetachCurrentThreadEv
Qae:_EventTrigger_OnBeginDrag_m4203438710
YZh:_ClientActivatedIdentity_OnLifetimeExpired_m635240647
VFb:__ZN11MonoManager23VirtualRedirectTransferER24GenerateTypeTreeTransfer
OC:__ZN23AnimationPlayableOutput17SetSourcePlayableEP8Playable
qfd:__GLOBAL__sub_I_Modules_Physics2D_0_cpp
gBh:_SupportedRenderingFeatures_set_active_m3446087961
Dwh:_CullingGroup_Dispose_m782801025
gng:__Z38InternalEnumerator_1__ctor_m3349908318P32InternalEnumerator_1_t1004352082P11Il2CppArrayPK10MethodInfo
E8:__ZN11UnityEngine15CloudWebService14DataDispatcher15SetupWebRequestEv
FXd:__ZN11UnityEngine15PlatformWrapper13GetShaderCapsEv
Ujc:__ZNSt3__211__sift_downIR26RenderDeferredObjectSorterP16RenderObjectDataEEvT0_S5_T_NS_15iterator_traitsIS5_E15difference_typeES5_
Xyf:_GenericTypeParameterBuilder_IsDefined_m98179866
Sen:_GUILayoutEntry__ctor_m1644640309
XOk:_KeyPairPersistence_get_MachinePath_m3812267291
LZi:_Stack_Peek_m2216191248
D6i:_DateTime_System_IConvertible_ToDecimal_m1044850612_AdjustorThunk
LHc:__ZN21FixedBehaviourManager6UpdateEv
CRc:__ZN9Transform9SetParentEPS_NS_15SetParentOptionE
Jpp:__ZN6il2cpp2vm13ComObjectBase16GetWeakReferenceEPP20Il2CppIWeakReference
TSa:__ZN19ShaderPropertySheet8SetFloatEN9ShaderLab16FastPropertyNameEfNS_8SetFlagsE
tob:__ZN19RuntimeSceneManager24BeginIntegrateMainThreadEP10UnityScene
$mp:__ZNSt3__2plIcNS_11char_traitsIcEENS_9allocatorIcEEEENS_12basic_stringIT_T0_T1_EERKS9_S6_
Tak:_StringReader_CheckObjectDisposedException_m3796163530
Z2k:_UInt32_System_IConvertible_ToInt16_m1659441601
twc:__ZN9ShaderLab20SerializedSubProgramaSERKS0_
wIp:_roundf
Mti:_Byte_System_IConvertible_ToSingle_m324484566_AdjustorThunk
cFa:__ZN9Scripting11UnityEngine12Experimental3U2D15SpriteBoneProxy9InitProxyEv
X_i:_Decimal_op_Explicit_m2848387298
M8l:_KeyValuePair_2_ToString_m1238786018_gshared
Uv:__ZN8Animator15SetPrepareStageEv
vU:__ZN8AnimatorC2E10MemLabelId18ObjectCreationMode
gvo:__ZN6il2cpp2vmL24SetupTypeHierarchyLockedEP11Il2CppClassRKNS_2os12FastAutoLockE
f7f:__ZNK31OpCodes_t126150456_StaticFields11get_Box_137Ev
J4g:_InputField_set_selectionAnchorPosition_m68980541
itc:__ZL11TextHandleriPK23EmscriptenKeyboardEventPv
fhc:__Z20CalculateLightMatrixRK15SharedLightDataP10Matrix4x4f
_zd:_destroy_face
K9f:_SerializableTypeMetadata_WriteTypeData_m1099030367
ePp:_glBlendEquationSeparate__wrapper
Hxp:__ZN6il2cpp6icalls8mscorlib6System8Security12Cryptography24RNGCryptoServiceProvider13RngInitializeEP11Il2CppArray
x9f:_CodeGenerator__cctor_m3167429173
Zmn:_Regex_get_RightToLeft_m2317867572
SZ:__ZN20SoundChannelInstance7setMuteEb
U6i:_DateTimeUtils_ToString_m1782212840
Jom:_List_1__cctor_m972674764_gshared
xJj:_NumberFormatter_NumberToString_m3906556024
Mup:_set_bits
mud:__ZN7b2World18SetContactListenerEP17b2ContactListener
Q2b:__ZN18GfxFramebufferGLES22MakeCurrentFramebufferENS_7BuiltinE
Mnh:__ZN22Selectable_t325002844143set_U3CisPointerInsideU3Ek__BackingField_14Eb
iXa:__ZN12CachedReader4ReadEPvj
bje:_StandaloneInputModule_ProcessMouseEvent_m2923582521
EKc:__Z18RegisterUnityClassI11GameManagerEvPKc
Vkf:__ZL49Canvas_t3310196443_CustomAttributesCacheGeneratorP21CustomAttributesCache
kRf:_MonoMethod_ShouldPrintFullName_m1607666412
rgc:__Z24CalculateLightShadowFadeRK6CamerafffR8Vector4f
gka:__ZN19RuntimeSceneManagerD2Ev
kUj:_CCGregorianCalendar_GetMonth_m1547203696
_Sk:_StringBuilder_get_Chars_m1819843468
XQb:__Z18Transfer_BlittableI18StreamedBinaryReadLb0E10Matrix4x4fEvRK29SerializationCommandArgumentsR31RuntimeSerializationCommandInfo
fym:_List_1_RemoveAt_m3304170338_gshared
qip:__ZN6il2cpp2osL23ConvertAccessModeToUnixEi
usd:__ZN13BoxCollider2DD0Ev
kUf:_TypeDelegator_IsPrimitiveImpl_m2362421338
vKh:_CreateOutputMethod_BeginInvoke_m3202548900
sHa:__ZN9Scripting11UnityEngine16ApplicationProxy9InitProxyEv
STc:__ZN9BlobWrite14ReduceCopyImplERK14ReduceCopyDataj
Xjk:_Array_LastIndexOf_TisRuntimeObject_m1677937501_gshared
d1j:__ZN6Guid_t8set__j_9Eh
y4:__ZN11AudioSource18IsPlayingScriptingEv
COk:_KeyBuilder_IV_m2230195376
chd:__ZNK12b2WheelJoint10GetAnchorAEv
VRp:_glShaderSource__wrapper
gxb:__ZN25MultiBlocksMemoryFileData17AdjustBlocksCountEj
G6o:__ZNSt3__214__split_bufferIN6il2cpp2vm22EmbeddedResourceRecordERNS_9allocatorIS3_EEED2Ev
Oqd:__ZN10ClipperLib14PointInPolygonERKNS_8IntPointEPNS_5OutPtE
dyd:__ZN13TextRendering4Font8TransferI24GenerateTypeTreeTransferEEvRT_
gwo:__ZN6il2cpp2vm5Class9HasParentEP11Il2CppClassS3_
dl:_glStencilMask
Jmp:__ZN6il2cpp2os10ThreadImpl16GetCurrentThreadEv
$sc:__ZN15GUIEventManager10QueueEventERK10InputEvent
_Ea:__ZN9Scripting11UnityEngine15GameObjectProxy9InitProxyEv
$cn:__ZNK26GUILayoutGroup_t215778969515get_isWindow_15Ev
gxo:_AnalyticsEvent_OnValidationFailed_m2609604624
jhf:__ZL62EventType_t3528516131_CustomAttributesCacheGenerator_mouseMoveP21CustomAttributesCache
PGl:_Array_Sort_TisScore_t1179825972_TisScore_t1179825972_m2169723887_gshared
EXf:_DecimalConstantAttribute__ctor_m3583301917
jDa:__ZN9Scripting11UnityEngine9Rendering18CommandBufferProxy12CleanupProxyEv
yI:__ZN24GenerateTypeTreeTransfer21TransferSTLStyleArrayINSt3__26vectorI24CompressedAnimationCurve13stl_allocatorIS3_L18MemLabelIdentifier26ELi16EEEEEEvRT_17TransferMetaFlags
Ika:__ZNSt3__227__insertion_sort_incompleteIRPFbRKN18AwakeFromLoadQueue4ItemES4_EPS2_EEbT0_S9_T_
hup:_GC_push_conditional_with_exclusions
ZJd:_Compute_Point_Displacement
whb:__Z31DrawSpriteDeformedFromNodeQueueRK15RenderNodeQueuej16VertexInputMasksi
sAc:__Z44Register_UnityEngine_RenderTexture_set_depthv
pWg:__Z59Enumerator_System_Collections_IEnumerator_Reset_m4278714428P21Enumerator_t185561725PK10MethodInfo
Qvh:_Component_GetComponentInParent_m779177818
MFo:__ZN15dense_hashtableINSt3__24pairIK10KeyWrapperIPK11Il2CppClassEPKcEES6_N6il2cpp5utils11PointerHashIS3_EEN14dense_hash_mapIS6_S9_SE_NS6_14EqualsComparerINS0_8equal_toIS5_EEEENS0_9allocatorISA_EEE9SelectKeyESJ_SL_E13clear_deletedER30dense_hashtable_const_iteratorISA_S6_SE_SN_SJ_SL_E
Ien:_GUILayout_DoLabel_m607126153
ngp:___cxx_global_var_init_1_43275
iQb:__Z18Transfer_BlittableI18StreamedBinaryReadLb1EiEvRK29SerializationCommandArgumentsR31RuntimeSerializationCommandInfo
rEj:_InvalidOperationException__ctor_m1685032583
dJl:_Dictionary_2_Do_ICollectionCopyTo_TisKeyValuePair_2_t1377593753_m4023145528_gshared
rke:_UIBehaviour_IsDestroyed_m3033055982
dkl:__Z109RuntimeInvoker_Void_t1185182177_RuntimeObject_RuntimeObject_SByte_t1669577662_Int32_t2950945753_RuntimeObjectPFvvEPK10MethodInfoPvPS4_
s4g:_InputField_get_readOnly_m3111985574
XXa:__ZN14RenderSettings27UpdateIndirectSpecularColorEv
X4e:__ZL59RectOffset_t1369453676_CustomAttributesCacheGenerator_m_PtrP21CustomAttributesCache
ku:__ZN9Scripting11UnityEngine10Animations27AnimationMixerPlayableProxy9InitProxyEv
pLo:__ZN6il2cpp6icalls8mscorlib6System8MonoType16GetMethodsByNameEP20Il2CppReflectionTypeP12Il2CppStringibS5_
H1n:__Z26List_1_get_Item_m783205072P17List_1_t496136383iPK10MethodInfo
hDp:_strncmp
e7m:_Event_set_type_m3901523645
Z7l:_RijndaelTransform__cctor_m2439033240
YYb:__ZNSt3__27__sort3IRNS_4lessIN22BuiltinResourceManager8ResourceEEEPS3_EEjT0_S7_S7_T_
fVb:__Z23TransferScriptingObjectI19StreamedBinaryWriteEvRT_18ScriptingObjectPtr17ScriptingClassPtrPK15MonoScriptCache
ZKd:_ps_hints_t2mask
LJl:_LayoutGroup_SetProperty_TisVector2_t2156229523_m2721164497_gshared
Oek:_Array_InternalArray__ICollection_Remove_TisMonoResource_t4103430009_m238733686_gshared
bEj:_IntPtr_ToString_m1831665121
Eph:_Slider_Set_m1476104429
_De:_Image_set_fillClockwise_m2210525152
FKc:__Z18RegisterUnityClassI12ScriptMapperEvPKc
rEb:__ZNSt3__26vectorIN20GpuProgramParameters14ConstantBufferENS_9allocatorIS2_EEE21__push_back_slow_pathIRKS2_EEvOT_
RIh:_PlayerConnection_DisconnectedCallback_m1697017309
gkb:__Z19GetTimeSinceStartupv
UEe:_Image_AddQuad_m2161647989
Chm:_Enumerator_System_Collections_IEnumerator_Reset_m2953002685_gshared
tKd:_TT_Load_Composite_Glyph
HTk:_UTF32Encoding_GetDecoder_m3364062151
zxo:___cxx_global_var_init_11_41806
Wza:__ZL51__ManagedRegistrationHelperFunction_UnityEventProxyPv
w0a:__ZN9ShaderLab11shaderprops9GetTexEnvEPK19ShaderPropertySheetS3_NS_16FastPropertyNameE16TextureDimensionb
pgn:_GUILayoutGroup_CalcHeight_m1669391299
Gec:__ZN29RenderNodeQueuePrepareContextC2Ev
p0o:_il2cpp_gc_disable
Cxc:__ZN9ShaderLab20SerializedSubProgram16TextureParameter8TransferI24GenerateTypeTreeTransferEEvRT_
Vgg:_DSASignatureDeformatter_SetKey_m2999549245
kyp:__ZN6il2cpp2os11MutexHandle4WaitEb
Lzb:__ZN9GfxDevice19SaveStereoConstantsEv
jyp:__ZN6il2cpp2os11MutexHandle4WaitEj
qSc:__ZL34GetComponentsImplementationRecurseILb1ELi1ELi1EEbR10GameObjectbRK17CompareParametersRK39GetComponentsImplementation_ReturnValue
BN:__ZL39InvalidateSceneHandleTransformsCallbackPvS_i
qbl:__Z114RuntimeInvoker_Boolean_t97287965_RuntimeObject_RuntimeObject_Int32_t2950945753_Int32_t2950945753_Int32_t2950945753PFvvEPK10MethodInfoPvPS4_
MOj:_AssemblyBuilder_GetTypes_m3415680380
hxa:__ZN6prcoreL17RemapGenericFloatI15TexFormatRGHalf18TexFormatARGBFloatEEvPKNS_9InnerInfoE
l8o:__ZN6il2cpp6icalls8mscorlib6SystemL10AssignRealIfEEvNS2_17WidenedValueUnionEPv14Il2CppTypeEnumjj
HWb:__Z18SimulateMouseInputi
lac:__ZN13RenderManager23AddRemoveCamerasDelayedEv
rsl:__Z119RuntimeInvoker_Void_t1185182177_RuntimeObject_Single_t1397266774_Single_t1397266774_SByte_t1669577662_Int32_t2950945753PFvvEPK10MethodInfoPvPS4_
SBa:__ZL51__ManagedRegistrationHelperFunction_Vector2IntProxyPv
f_d:__ZN11UnityEngine9Analytics15AnalyticsConfigC2Ev
oKj:_OverflowException__ctor_m4029085969
fsi:_BitConverter__cctor_m3841343255
Gln:_IntervalCollection_GetMetaCollection_m4029522214
Pt:__ZN9Scripting11UnityEngine13AnimatorProxy12CleanupProxyEv
Lae:_EventTrigger_OnDeselect_m1919608102
ojo:_TextGenerator_get_characterCount_m864136654
pnc:__ZN13RenderTexture8SetWidthEi
vKd:_UNITY_FT_GlyphLoader_CheckSubGlyphs
Zpg:_InternalEnumerator_1__ctor_m1341209356_AdjustorThunk
tpo:_RemoteSettings_RemoteSettingsUpdateCompleted_m2956290507
aFm:_Collection_1_System_Collections_ICollection_CopyTo_m1516601228_gshared
xqa:__ZN23DefaultMeshVertexFormatC2E18VertexChannelsInfo
edi:_ServerObjectReplySink_SyncProcessMessage_m512968558
rro:_Physics2D_Raycast_m2082490717
e5c:__Z42Register_UnityEngine_GUIStyle_set_fontSizev
gFi:__ZNK23ARC4Managed_t26418584528get_y_15Ev
Otd:__ZZN13BoxCollider2D15InitializeClassEvEN41FunctorImpl_40kSpriteTilingPropertyChange4CallEPviR11MessageData
clm:_List_1_Insert_m4050947056_gshared
Jha:__ZN9ShaderLab16FastPropertyName4InitEPKc
Xyg:_InternalEnumerator_1__ctor_m39232262_AdjustorThunk
LQ:__ZN14SafeBinaryRead21TransferSTLStyleArrayI13dynamic_arrayI4PPtrI13MonoBehaviourELj0EEEEvRT_17TransferMetaFlags
B$a:__ZN6ObjectC2E10MemLabelId18ObjectCreationMode
zAg:_InternalEnumerator_1_get_Current_m3911557813_AdjustorThunk
_ad:__ZN8JSONRead21TransferSTLStyleArrayI31ArrayOfManagedObjectsTransfererEEvRT_17TransferMetaFlags
rx:__ZN17AnimationPlayable17GetAnimationClipsER13dynamic_arrayIP13AnimationClipLj0EE
Dui:_Char_System_IConvertible_ToByte_m2347554595_AdjustorThunk
$Za:__ZN13RenderTexture9SetMipMapEb
syo:__ZN15dense_hashtableINSt3__24pairIK10KeyWrapperIPK11Il2CppClassEPKcEES6_N6il2cpp5utils11PointerHashIS3_EEN14dense_hash_mapIS6_S9_SE_NS6_14EqualsComparerINS0_8equal_toIS5_EEEENS0_9allocatorISA_EEE9SelectKeyESJ_SL_E13set_empty_keyERKSA_
Rsn:_BalancingGroup_Compile_m2575117193
Kta:__Z18GetDirectorManagerv
NKa:__ZN11NamedObject8TransferI19StreamedBinaryWriteEEvRT_
Zcf:__ZL99SceneManager_t2787271929_CustomAttributesCacheGenerator_SceneManager_LoadScene_m2298600132____mode1P21CustomAttributesCache
Tnl:__Z73RuntimeInvoker_Single_t1397266774_Vector2_t2156229523_Vector2_t2156229523PFvvEPK10MethodInfoPvPS4_
j1b:__ZN7ApiGLES19UploadBufferSubDataEjN2gl12BufferTargetEllPKv
awa:__ZNSt3__216__rotate_forwardINS_11__wrap_iterIPN4core12basic_stringIcNS2_20StringStorageDefaultIcEEEEEEEET_S9_S9_S9_
xmi:_SmallXmlParserException__ctor_m1976648878
bR:__ZN7mecanim12statemachine20StateMachineConstant8TransferI14SafeBinaryReadEEvRT_
b7g:__ZNK22InputField_t376291743131get_m_HasDoneFocusTransition_62Ev
W5g:_Selectable_get_isPointerDown_m3518318267
iqk:_SymmetricAlgorithm_set_KeySize_m3805756466
G3l:__Z30Enumerator_Dispose_m1204547613P22Enumerator_t3350232909PK10MethodInfo
KHa:__ZN9Scripting5Unity11Collections8LowLevel6Unsafe47NativeDisableUnsafePtrRestrictionAttributeProxy9InitProxyEv
Qti:_Byte_System_IConvertible_ToUInt32_m1049546902_AdjustorThunk
hll:__Z53RuntimeInvoker_Double_t594665363_Interval_t1802865632PFvvEPK10MethodInfoPvPS4_
Y4h:_LeaseSink_RenewLease_m578578728
Xqc:__Z21InitializeBatchedJobsv
Rko:_CanvasGroup_get_blocksRaycasts_m1805542303
jnk:_SHA1Internal_ProcessBlock_m1991889327
kIb:__Z19TransferField_ArrayI14SafeBinaryRead27Converter_SimpleNativeClassI8GUIStyleEEvRK23StaticTransferFieldInfoR31RuntimeSerializationCommandInfoRT0_
d9m:_GUIStyle_Internal_CalcSize_Injected_m3782469813
YFl:_Array_Sort_TisRuntimeObject_TisRuntimeObject_m1685639929_gshared
Sxp:__ZN6il2cpp5utils10MemoryPoolC2Ev
Ofi:_RemotingServices_SetMessageTargetIdentity_m4083751943
qXa:__ZN14RenderSettings5ResetEv
GGa:__ZN9Scripting11UnityEngine15ColorGamutProxy9InitProxyEv
s6c:__ZN5Unity9rapidjson12GenericValueINS0_4UTF8IcEE13JSONAllocatorE10FindMemberIS4_EENS0_21GenericMemberIteratorILb0ES3_S4_EERKNS1_IS3_T_EE
rAg:_InternalEnumerator_1_System_Collections_IEnumerator_get_Current_m3892960115_AdjustorThunk
Pzc:__ZN9ShaderLabL18AddPropertyToArrayERK19ShaderPropertySheetR13dynamic_arrayIiLj0EERKNS_8FloatValE
H5o:__ZNSt3__212basic_stringIDsNS_11char_traitsIDsEENS_9allocatorIDsEEE6appendEPKDsj
Shg:_HMAC_HashCore_m3684104066
Jyn:__ZN28GenericInterfaceFuncInvoker2Ii20UIVertex_t4057497605S0_E6InvokeEPK10MethodInfoP12Il2CppObjectS0_S0_
ldd:__ZN5Unity9rapidjson13GenericReaderINS0_4UTF8IcEES3_13JSONAllocatorE11ParseNumberILj1ENS0_25GenericInsituStringStreamIS3_EENS0_15GenericDocumentIS3_S4_S4_EEEEvRT0_RT1_
R7:__ZN11UnityEngine15CloudWebService14DataDispatcherD0Ev
sWm:_ReadOnlyCollection_1_System_Collections_IList_Add_m222254439_gshared
Hgb:__ZN14SpriteRenderer14OnChangeSpriteEv
qmp:__ZN6il2cpp2os10ThreadImplD2Ev
Shd:__ZN12b2MouseJoint23InitVelocityConstraintsERK12b2SolverData
H6c:__ZN8Gradient8TransferI9JSONWriteEEvRT_
KXc:__Z51Register_UnityEngine_Sprite_GetTextureRect_Injectedv
hLa:__ZNK12TLSAllocatorI14StackAllocatorE22GetAllocatedMemorySizeEv
bG:__ZN7mecanim6memory16ChainedAllocator8AllocateEjj
g0:__ZN11AudioSource23VirtualRedirectTransferER18StreamedBinaryRead
WIa:__ZN17RemapPPtrTransfer12PushMetaFlagE17TransferMetaFlags
U_l:_EqualityComparer_1_System_Collections_IEqualityComparer_GetHashCode_m2138064395_gshared
aub:__ZN12HandlerChain4NameEv
IEl:_Array_InternalArray__set_Item_TisMonoWin32Resource_t1904229483_m4042549565_gshared
gyj:_Int16_System_IConvertible_ToType_m3672347013_AdjustorThunk
SJb:__Z29Transfer_Blittable_ArrayFieldI14SafeBinaryReadN4math12int3_storageEEvRT_R9ArrayInfoRK23StaticTransferFieldInfo
ovk:_SecurityException_ToString_m3228070608
xBj:_Int16_ToString_m2013897809
rvk:_String_Substring_m2848979100
hnp:__ZN6il2cpp5utils10StringViewIDsEC2ILj2EEERAT__KDs
zTd:__Z44Register_UnityEngine_CanvasRenderer_get_cullv
iLl:_ScriptableObject_CreateInstance_TisRuntimeObject_m1552711675_gshared
mBm:__Z28Enumerator__ctor_m3419056812P22Enumerator_t1142515742P19Stack_1_t3923495619PK10MethodInfo
nGb:__Z44InitializeTransferFunctionScriptingTraitsForI17RemapPPtrTransferEvR31TransferFunctionScriptingTraits
$Bc:__ZNSt3__26vectorI16MessageForwarder13stl_allocatorIS1_L18MemLabelIdentifier7ELi8EEE6resizeEj
mtj:_X509Chain_SelectBestFromCollection_m1068759221
IVn:_SymmetricTransform_TransformBlock_m851059707
oWo:__ZN6il2cpp2vm10Reflection27GetCustomAttributesCacheForEP11Il2CppClass
iHe:__ZL68IntPtr_t_CustomAttributesCacheGenerator_IntPtr_ToPointer_m4157623054P21CustomAttributesCache
Akb:__Z11StringToKeyRKN4core12basic_stringIcNS_20StringStorageDefaultIcEEEE
sNm:_Collection_1_System_Collections_IList_get_Item_m336450589_gshared
Krn:_Regex_System_Runtime_Serialization_ISerializable_GetObjectData_m4061390789
iAm:_Enumerator_System_Collections_IEnumerator_Reset_m2261065994_AdjustorThunk
ekh:_ScrollRect_get_verticalNormalizedPosition_m3693218937
sob:__ZN18LoadSceneOperation21MustCompleteNextFrameEv
Gph:_Slider_UpdateDrag_m1102107039
qPf:_MonoMethodInfo_get_method_info_m88651774
e4:__ZNK12AudioManager16GetAudioListenerEv
ovh:_Color_Equals_m4060997379_AdjustorThunk
Mmp:__ZN6il2cpp2osL23CleanupThreadIfCanceledEPv
_bg:_RuntimeTypeHandle__ctor_m3315980708_AdjustorThunk
xko:_Canvas_set_overrideSorting_m4088794420
Umc:__ZNSt3__26vectorI11CameraStackNS_9allocatorIS1_EEE8__appendEj
MCa:__ZN9Scripting11UnityEngine13Serialization34FormerlySerializedAsAttributeProxy9InitProxyEv
Ax:__ZN7mecanim9animation12GetHumanPoseERKNS0_18ClipMuscleConstantEPKNS0_10ValueDeltaERNS_5human9HumanPoseE
F_d:__ZN11UnityEngine9Analytics15UserCustomEvent12CustomParams6InsertEPKcRNS1_11CustomValueE
uz:__ZN22AnimationMixerPlayable17ProcessRootMotionEP35AnimationPlayableEvaluationConstantP32AnimationPlayableEvaluationInputP33AnimationPlayableEvaluationOutput
VUd:__ZL55__ManagedRegistrationHelperFunction_RemoteSettingsProxyPv
Kna:__Z13GetFileSystemv
gqa:__ZN13RuntimeStaticI15GUIEventManagerLb0EE16StaticInitializeEPv
KGh:_MonoBehaviour_IsObjectMonoBehaviour_m2134950949
l6g:_InputField_MoveDown_m4006004038
b6k:_Version_CompareTo_m3146217210
Gid:__ZN24RigidbodyMovementState2D21ResetAngularMoveStateEv
Lgb:__ZThn32_N14SpriteRenderer15AddAsRenderNodeER15RenderNodeQueueRK20DeprecatedSourceData
Ylk:_Array_InternalArray__ICollection_CopyTo_TisKeyValuePair_2_t71524366_m1056941380_gshared
zao:_Vector3_Equals_m906392898_AdjustorThunk
$$k:_Type_get_IsClass_m589177581
e1e:__ZL62NativeTypeAttribute_t2250406315_CustomAttributesCacheGeneratorP21CustomAttributesCache
zFb:__ZN19ShaderPropertySheet9SetMatrixEN9ShaderLab16FastPropertyNameERK10Matrix4x4fNS_8SetFlagsE
Dbn:_TextEditor_GetGraphicalLineStart_m2559051595
_8a:__Z29GetTextureSizeAllowedMultiple13TextureFormat
F9i:_Decimal_Subtract_m835601464
RTn:_dreamloPromoCode__ctor_m2320260083
pBc:__Z46CleanupSpriteRendererAnimationBindingInterfacev
RBh:__ZNK21SpriteBone_t30332009616get_m_Position_1Ev
d_k:_TimeSpan__ctor_m3689759052_AdjustorThunk
BBp:__ZNK6il2cpp8metadata19Il2CppSignatureHashclERKNS_5utils13dynamic_arrayIPK10Il2CppTypeLj4EEE
z$o:_il2cpp_array_element_size
PFe:__ZL62ComVisibleAttribute_t1362837655_CustomAttributesCacheGeneratorP21CustomAttributesCache
bMa:__ZNSt3__26__treeINS_12__value_typeIN4core12basic_stringIcNS2_20StringStorageDefaultIcEEEEjEENS_19__map_value_compareIS6_S7_NS_4lessIS6_EELb1EEE13stl_allocatorIS7_L18MemLabelIdentifier7ELi16EEE25__emplace_unique_key_argsIS6_JNS_4pairIS6_jEEEEENSH_INS_15__tree_iteratorIS7_PNS_11__tree_nodeIS7_PvEEiEEbEERKT_DpOT0_
jj:_glCheckFramebufferStatus
Hwp:__ZN6il2cpp2os11EventHandle4WaitEv
Tja:__Z43scripting_class_get_method_from_name_filter17ScriptingClassPtrPKciN24ScriptingMethodFiltering18MethodSearchFilterEPK16ScriptingTypePtr
noo:_CustomEventData__ctor_m4146403782
Eba:__ZN19CloudServiceHandler20StartEventDispatcherERKN11UnityEngine15CloudWebService18CloudServiceConfigERNS1_23WebRequestRestHeaderMapE
BS:__ZN7mecanim9animation18ControllerConstant8TransferI19StreamedBinaryWriteEEvRT_
CPo:__ZN24dense_hashtable_iteratorINSt3__24pairIK10KeyWrapperINS1_IPK9FieldInfoP11Il2CppClassEEEjEES9_17ReflectionMapHashIS8_EN14dense_hash_mapIS9_jSD_NS9_14EqualsComparerINS0_8equal_toIS8_EEEENS0_9allocatorISB_EEE9SelectKeyESI_SK_EC2EPK15dense_hashtableISB_S9_SD_SM_SI_SK_EPSB_SS_b
bBe:_GraphicRaycaster__ctor_m646559428
jzi:_BitArrayEnumerator_get_Current_m4220391712
lLj:__Z37il2cpp_codegen_get_executing_assemblyPK10MethodInfo
zHp:__ZN10__cxxabiv112_GLOBAL__N_110construct_Ev
OWc:__Z104Register_UnityEngine_Experimental_Rendering_GraphicsFormatUtility_GetGraphicsFormat_Native_TextureFormatv
tlj:_IPAddress_get_ScopeId_m4237202723
tMh:_Quaternion_Equals_m2038868948_AdjustorThunk
hvg:_InternalEnumerator_1_MoveNext_m3520556285_AdjustorThunk
Kqn:_ExpressionCollection_get_Item_m3510736379
Vof:__ZL62FontData_t746620069_CustomAttributesCacheGenerator_m_AlignmentP21CustomAttributesCache
rie:_StandaloneInputModule_get_inputActionsPerSecond_m3946624274
SUk:_UTF8Encoding_InternalGetCharCount_m82458470
aao:_Vector2__cctor_m2108982652
TIh:_U3CBlockUntilRecvMsgU3Ec__AnonStorey2_U3CU3Em__0_m2225790220
ZGg:_InternalEnumerator_1_MoveNext_m2734554195_AdjustorThunk
aap:__ZN14dense_hash_mapI10KeyWrapperIP14Il2CppIUnknownEjN6il2cpp5utils11PointerHashIS1_EENS3_14EqualsComparerINSt3__28equal_toIS2_EEEENS9_9allocatorINS9_4pairIKS3_jEEEEE15set_deleted_keyERSF_
KWo:__ZN13Il2CppHashMapIPK14Il2CppAssemblyPK22Il2CppMonoAssemblyNameN6il2cpp5utils11PointerHashIS1_EENSt3__28equal_toIS2_EENSA_9allocatorINSA_4pairIK10KeyWrapperIS2_ES5_EEEEEC2EjRKS9_RKSC_
Ooi:_DelegatePInvokeWrapper_AppDomainInitializer_t682969308
pQp:b100
j8o:__ZN6il2cpp6icalls8mscorlib6SystemL12AssignSignedIiEEvNS2_17WidenedValueUnionEPv14Il2CppTypeEnumjj
KG:__ZN14AnimationEvent8TransferI14SafeBinaryReadEEvRT_
Oma:__ZN8Remapper6RemoveEi
JDk:_Encoding_GetBytes_m3148649984
VSc:__ZN9Scripting27CreateArgumentNullExceptionEPKc
UAd:__ZL36CleanupTextRenderingScriptingClassesv
mnc:__ZN15ReflectionProbe17UseRendererResultEP13ProbeRenderer
oYc:__Z34Mesh_CUSTOM_SetArrayForChannelImplP12Il2CppObject30InternalScriptingShaderChannel34InternalScriptingVertexChannelTypeiP11Il2CppArrayi
T3k:_UInt64_System_IConvertible_ToDecimal_m806594027_AdjustorThunk
Bto:__ZN14dense_hash_mapI10KeyWrapperIPK22Il2CppGenericParameterEP11Il2CppClassN6il2cpp5utils11PointerHashIS2_EENS4_14EqualsComparerINSt3__28equal_toIS3_EEEENSC_9allocatorINSC_4pairIKS4_S6_EEEEED2Ev
Dnm:_List_1__ctor_m3395838871_gshared
_Mm:_Collection_1_IsFixedSize_m3698021882_gshared
vFl:_Array_Resize_TisCustomAttributeNamedArgument_t287865710_m885566878_gshared
Poa:__ZN17TransformInternal19FreeTransformThreadER18TransformHierarchyjj
IEg:__Z37InternalEnumerator_1__ctor_m539509188P32InternalEnumerator_1_t3507565409P11Il2CppArrayPK10MethodInfo
Lu:__ZN11UnityEngine9Animation28GenericAnimationBindingCache25RegisterIAnimationBindingEPKN5Unity4TypeEiP17IAnimationBinding
hMl:_Transform_1_BeginInvoke_m2149919550_gshared
W$h:_FormatterData__ctor_m3990517908
E4j:_DirectoryInfo__ctor_m481305441
FCa:__ZN9Scripting11UnityEngine11SpriteProxy12CleanupProxyEv
Gha:__ZN10MemoryPoolC2E10MemLabelIdbPKciii
pZd:__ZN14UnityAnalytics25UnregisterGlobalCallbacksEv
_ul:__Z80RuntimeInvoker_Boolean_t97287965_ColorBlockU26_t337120346_ColorBlock_t2139031574PFvvEPK10MethodInfoPvPS4_
Elc:__Z40ProcessCameraIndexListIsNodeVisibleInOutRK22SceneCullingParametersPK9SceneNodePK4AABBR9IndexList
Ngn:_GUIScrollGroup_SetHorizontal_m291416666
KCa:__ZN9Scripting11UnityEngine19SerializeFieldProxy9InitProxyEv
hRd:__ZN2UI6Canvas13UpdateBatchesEb
Qoj:_X509BasicConstraintsExtension_Decode_m120598446
LC:__ZNK23AnimationPlayableOutput11DerivesFromE17ScriptingClassPtr
$aj:_Delegate_Remove_m334097152
GCf:_MethodBuilder_GetParameters_m3527753207
k5f:_ObjectReader_ReadObjectGraph_m340866276
Tga:__ZN24ProfilerCallbacksHandlerC2E10MemLabelId
qhf:__ZL64EventType_t3528516131_CustomAttributesCacheGenerator_dragUpdatedP21CustomAttributesCache
UGi:_PKCS1_Verify_v15_m4192025173
NAb:__ZN9GfxDevice18AllocRenderSurfaceEb
pui:_Char__cctor_m2787437263
bJc:__ZN10TagManager32GetSortingLayerUniqueIDFromValueEi
Vke:_AspectRatioFitter_get_rectTransform_m2996235303
kMa:__ZN10TagManager8TransferI19StreamedBinaryWriteEEvRT_
win:_GUISkin_FindStyle_m1654492643
YAe:_Graphic_UnregisterDirtyMaterialCallback_m2707090617
YOg:_Comparer_1_System_Collections_IComparer_Compare_m1313384821_gshared
bMo:__ZN6il2cpp6icalls8mscorlib6SystemL16CheckMemberMatchI12PropertyInfoNS_5utils10functional6FilterINSt3__212basic_stringIcNS8_11char_traitsIcEENS8_9allocatorIcEEEENS5_13VmStringUtils23CaseInsensitiveComparerEEEEEbPKT_PK11Il2CppClassSN_iRKT0_
Ngb:__ZThn356_N14SpriteRenderer14OnChangeSpriteEv
LQp:_glUniform1uiv__wrapper
Njd:__ZNK14b2PolygonShape5CloneEP16b2BlockAllocator
Pma:__ZN17PersistentManager26GetStreamNameSpaceInternalEi
d1:__ZN4FMOD6System11createSoundEPKcjP22FMOD_CREATESOUNDEXINFOPPNS_5SoundE
TRp:_glRenderbufferStorage__wrapper
Nn:FUNCTION_TABLE_iiifiiii
CHg:_InternalEnumerator_1_System_Collections_IEnumerator_Reset_m1451164462_AdjustorThunk
Ewd:__ZN13SpeedTreeWind20AdvanceWithoutUpdateEd
C6i:_DateTime_System_IConvertible_ToDecimal_m1044850612
F5o:__ZN6il2cpp2vm9Exception11FromNameMsgEPK11Il2CppImagePKcS6_RKNS_5utils10StringViewIDsEEi
kpg:_InternalEnumerator_1_System_Collections_IEnumerator_Reset_m1318888374_AdjustorThunk
Ria:__ZN9ShaderLab19CommonPropertyNames13StaticCleanupEPv
cma:__Z31scripting_method_get_returntype18ScriptingMethodPtr
fdb:__ZN15SerializeTraitsI12LightmapDataE8TransferI24GenerateTypeTreeTransferEEvRS0_RT_
tsk:_SecurityElement_AddAttribute_m311510562
XRp:_glStencilOpSeparate__wrapper
pOc:__ZN4Mesh5SetUvEiPKfjj
kab:__ZN7Texture13SetAnisoLimitENS_20AnisotropicFilteringE
cMa:__ZNSt3__26__treeINS_12__value_typeIjN4core12basic_stringIcNS2_20StringStorageDefaultIcEEEEEENS_19__map_value_compareIjS7_NS_4lessIjEELb1EEE13stl_allocatorIS7_L18MemLabelIdentifier7ELi16EEE25__emplace_unique_key_argsIjJNS_4pairIjS6_EEEEENSH_INS_15__tree_iteratorIS7_PNS_11__tree_nodeIS7_PvEEiEEbEERKT_DpOT0_
LLh:_PropertyName_Equals_m3623975820
Yw:__ZN21AnimationClipPlayable22PrepareAnimationEventsEfR13dynamic_arrayI22AnimationClipEventInfoLj0EE
QVg:__Z28Enumerator__ctor_m1320896511P22Enumerator_t1626871233P24Dictionary_2_t1444694249PK10MethodInfo
Rri:_Attribute_IsDefined_m4069052474
Ff:_emscripten_glCompressedTexSubImage2D
q4b:__ZN13GfxDeviceGLES22MemoryBarrierImmediateEyN2gl17MemoryBarrierTypeE
Oxa:__ZN6prcoreL26RemapGenericFloatToIntegerI18TexFormatARGBFloat17TexFormatARGB8888EEvPKNS_9InnerInfoE
lnd:__ZN14qsort_internal5QSortIPN35b2SynchronizeContinuousFixturesTask14b2DeferredMoveEiPFbRKS2_S5_EEEvT_S8_T0_T1_
hxm:_List_1_set_Capacity_m1977188119_gshared
jRc:__Z46GetShaderModelNumericValueFromRequirementsMask18ShaderRequirements
JEd:_cff_ps_has_glyph_names
w4:__ZN11AudioSource7UnPauseEv
vsp:_GC_write
_di:_SoapTypeAttribute_SetReflectionObject_m1691526413
dT:__ZN13ProduceHelperI9AnimationLb0EE7ProduceE10MemLabelId18ObjectCreationMode
Mr:__ZN17ConstraintManagerD2Ev
TQl:_Dictionary_2_Remove_m4193450060_gshared
tIj:_MulticastDelegate_GetObjectData_m3957553424
p_n:_StandardEventPayload_set_name_m549984672
xDj:_Int64_TryParse_m3606398488
REl:_Array_InternalArray__set_Item_TisMark_t3471605523_m1299772331_gshared
w5c:__Z44Register_UnityEngine_GUIStyle_SetDefaultFontv
BF:__Z19AddCurveToDenseClipI8Vector3fEvRN7mecanim9animation9DenseClipEiRK17AnimationCurveTplIT_E
aL:__ZN9BlobWrite8TransferI22OffsetPtrArrayTransferIKN4math7_float3EEEEvRT_PKc17TransferMetaFlags
Nan:_TextEditor_MoveParagraphBackward_m2833567235
ZHa:__ZN9Scripting5Unity11Collections8LowLevel6Unsafe46NativeContainerIsAtomicWriteOnlyAttributeProxy12CleanupProxyEv
C2m:_X509Certificate_get_DSA_m565099499
bTk:_StringBuilder_Remove_m940064945
clb:__ZN14SafeBinaryRead21TransferSTLStyleArrayI13dynamic_arrayI16SplashScreenLogoLj0EEEEvRT_17TransferMetaFlags
dEb:__ZN13dynamic_arrayIN16GeometryJobTasks15GeometryJobTaskELj0EE18resize_initializedEjRKS1_12ResizePolicy
lfg:_DESCryptoServiceProvider_GenerateIV_m683687014
o3j:_BinaryWriter__ctor_m2439641268
VGa:__ZN9Scripting11UnityEngine14BoundsIntProxy12CleanupProxyEv
tDa:__ZN9Scripting11UnityEngine15RectOffsetProxy12CleanupProxyEv
L5d:__ZN9Scripting11UnityEngine12Experimental2XR18TrackingStateProxy12CleanupProxyEv
Mab:__ZL21SetAnisoLimitEnumImplN7Texture20AnisotropicFilteringEb
B0k:_Type_GetTypeHandle_m1526957577
aIf:__ZN31OpCodes_t126150456_StaticFields15set_Ldind_R4_77E17OpCode_t123070264
Nqh:_Text_get_fontSize_m1677872538
Mlm:_List_1_System_Collections_IList_get_Item_m995551621_gshared
KHg:__Z75InternalEnumerator_1_System_Collections_IEnumerator_get_Current_m2032951142P32InternalEnumerator_1_t4136673857PK10MethodInfo
ZHc:__Z29Input_CUSTOM_GetMouseButtonUpi
Byj:_Int16_Parse_m138525169
DWd:__ZN11UnityEngine9Analytics18ConnectSessionInfo12ToJsonStringERN4core12basic_stringIcNS2_20StringStorageDefaultIcEEEE
fMo:__ZN6il2cpp6icalls8mscorlib6System8MonoType16InternalGetEventEP20Il2CppReflectionTypeP12Il2CppStringi
Vwn:_UriScheme_t722425697_marshal_pinvoke_back
AGd:_UNITY_tt_face_load_maxp
_3c:__Z39Register_UnityEngine_Event_Internal_Usev
mIc:__Z46Input_CUSTOM_INTERNAL_set_compositionCursorPosRK13Vector2fIcall
Aw:__ZN7mecanim5human12FullBodyMaskEv
Pqp:__ZN6il2cpp6icalls8mscorlib6System9Threading10WaitHandle16WaitAny_internalEP11Il2CppArrayib
Bdc:__ZN13BatchRenderer15ApplyShaderPassER17ShaderPassContextPK18SharedMaterialDataP6ShaderPN9ShaderLab4PassEi13BatchingFlagsbbPKNS7_10GrabPassesEPK22DeviceRenderStateBlock
rhb:__ZN19ShaderPropertySheet11ComputeHashEv
Vtl:__Z68RuntimeInvoker_Int32_t2950945753_Score_t1179825972_Score_t1179825972PFvvEPK10MethodInfoPvPS4_
iCo:__ZN30dense_hashtable_const_iteratorI10KeyWrapperIPK19Il2CppGenericMethodES4_N6il2cpp8metadata23Il2CppGenericMethodHashEN14dense_hash_setIS4_S7_NS4_14EqualsComparerINS6_26Il2CppGenericMethodCompareEEENSt3__29allocatorIS4_EEE8IdentityESB_SE_EppEv
rkd:__ZN12b2EPCollider24ComputePolygonSeparationEv
XLd:__Z18RegisterUnityClassIN20TextRenderingPrivate7GUITextEEvPKc
D9:__ZN11UnityEngine15CloudWebService20WebRequestRestClient6IsDoneEv
XW:__ZN9Scripting11UnityEngine5Audio24AudioPlayableOutputProxy9InitProxyEv
Tl:_llvm_fabs_f32
g9:__ZN11UnityEngine15CloudWebService16SessionContainer16GetJsonDataBlockEjRKN4core12basic_stringIcNS2_20StringStorageDefaultIcEEEERS6_PjSA_
yMk:_ASN1_Decode_m1695284166
ZG:__ZN7mecanim9animation18ClipMuscleConstant8TransferI14SafeBinaryReadEEvRT_
rDa:__ZN9Scripting11UnityEngine14TransformProxy12CleanupProxyEv
Kdj:_Enum_ToString_m3248653065
Q3c:__Z40Register_UnityEngine_Event_set_modifiersv
YCc:__Z27RegisterAllowNameConversionR20AllowNameConversionsPKcS2_S2_
ila:__ZN14SafeBinaryReadD2Ev
Thm:_Enumerator_MoveNext_m3859993671_gshared
Jxd:__ZN14SafeBinaryRead21TransferSTLStyleArrayI13dynamic_arrayIN20TextRenderingPrivate8FontImpl13CharacterInfoELj0EEEEvRT_17TransferMetaFlags
dvj:_Capture__ctor_m3103117740
Wgm:__Z28Enumerator__ctor_m3875432026P22Enumerator_t1222580846P18List_1_t3628304265PK10MethodInfo
FAb:__ZNK9GfxDevice22GetActiveRenderTargetsERA8_12ObjectHandleI17RenderSurface_TagP17RenderSurfaceBaseERS4_
v3k:_UInt32_CompareTo_m2218823230
Edd:__ZN5Unity9rapidjson8internal6Grisu2EdPcPiS3_
aJn:__ZN35U3CStartU3Ec__Iterator0_t386039344215set_tweenInfo_0E21ColorTween_t809614380
hZj:_DateTimeFormatInfo_GetEraName_m3151483707
JMh:_RangeInt_get_end_m4128831787_AdjustorThunk
Dd:_SDL_PauseAudio
yRn:_Slot_OnDrop_m60410793
kJh:_Object_Internal_InstantiateSingle_m4074556765
T3c:__Z40Register_UnityEngine_Event_set_characterv
opo:_RemoteSettings_RemoteSettingsUpdated_m1182006011
vso:_NativeHeaderAttribute__ctor_m457462113
isb:__ZN2UI13RectTransform8TransferI18StreamedBinaryReadEEvRT_
Qia:__ZN9ShaderLab19CommonPropertyNames16StaticInitializeEPv
ZMg:_Comparer_1__cctor_m2517796511_gshared
DRo:__ZN14dense_hash_mapI10KeyWrapperINSt3__24pairIPK10MethodInfoP11Il2CppClassEEEj17ReflectionMapHashIS8_ENS9_14EqualsComparerINS1_8equal_toIS8_EEEENS1_9allocatorINS2_IKS9_jEEEEE4findERSH_
T5c:__Z45GUIUtility_CUSTOM_Internal_GetKeyboardControlv
Ejf:__ZL101GUIUtility_t1868551600_CustomAttributesCacheGenerator_GUIUtility_t1868551600____guiDepth_PropertyInfoP21CustomAttributesCache
L4n:_UnityWebRequestAsyncOperation__ctor_m1252495487
jdp:__ZN6il2cpp2vmL14FindNestedTypeEP11Il2CppClassPKc
_ph:_SpriteState_get_pressedSprite_m3868967445_AdjustorThunk
i0:__ZN11AudioSource23VirtualRedirectTransferER24GenerateTypeTreeTransfer
_Nc:__ZN7Texture11SetWrapModeE15TextureWrapMode
mcb:__ZN14Texture2DArray23VirtualRedirectTransferER14SafeBinaryRead
mgc:__ZNK6Camera21CalculateCanDoShadowsEv
fsh:_Application_InvokeOnBeforeRender_m2875673833
rbn:_TextEditor_FindEndOfPreviousWord_m1511551992
Tlp:__ZN6il2cpp2os6Thread12SetStackSizeEj
Feh:_MaskableGraphic_RecalculateMasking_m183336762
OKg:__Z38InternalEnumerator_1__ctor_m4132027968P31InternalEnumerator_1_t334410285P11Il2CppArrayPK10MethodInfo
eMf:_TypeBuilder_IsSubclassOf_m3458909121
TJf:__ZN31OpCodes_t126150456_StaticFields15set_Conv_U1_176E17OpCode_t123070264
iKp:dynCall_viffii
gli:_X509Certificate__cctor_m198658613
Rll:__Z68RuntimeInvoker_Ray_t3785851493_Vector3_t3722313464_Int32_t2950945753PFvvEPK10MethodInfoPvPS4_
hYd:__ZN11UnityEngine9Analytics13ConnectConfig13SessionConfig8TransferI8JSONReadEEvRT_
s6f:_MemberTypeMetadata__ctor_m2376841411
OAc:__Z18RegisterUnityClassI7TextureEvPKc
sxa:__ZN6prcoreL27StretchGenericFloatBilinearI15TexFormatRFloatEEvPKNS_9InnerInfoE
hTn:_U3CAddScoreWithPipeU3Ec__Iterator2_Reset_m1275135051
Y_e:__ZL139ServicePointManager_t170559685_CustomAttributesCacheGenerator_ServicePointManager_t170559685____CheckCertificateRevocationList_PropertyInfoP21CustomAttributesCache
gDe:__Z56LayoutGroup_SetProperty_TisSingle_t1397266774_m793506911P23LayoutGroup_t2436138090PffPK10MethodInfo
$9o:__ZN14dense_hash_mapI10KeyWrapperIP14Il2CppIUnknownEjN6il2cpp5utils11PointerHashIS1_EENS3_14EqualsComparerINSt3__28equal_toIS2_EEEENS9_9allocatorINS9_4pairIKS3_jEEEEE13set_empty_keyERSF_
Tdj:_Enum_ToObject_m1628250250
kIf:__ZN31OpCodes_t126150456_StaticFields10set_Add_87E17OpCode_t123070264
N7a:__Z14PadImageBorderR14ImageReferenceii
CSo:__ZN15dense_hashtableINSt3__24pairIK10KeyWrapperINS1_IPK10MethodInfoP11Il2CppClassEEEjEES9_17ReflectionMapHashIS8_EN14dense_hash_mapIS9_jSD_NS9_14EqualsComparerINS0_8equal_toIS8_EEEENS0_9allocatorISB_EEE9SelectKeyESI_SK_E4findERSA_
sHo:__ZN6il2cpp2vm13MetadataCache28GetFieldDefaultValueForFieldEPK9FieldInfo
yik:_Array_IndexOf_TisUIVertex_t4057497605_m3336763564_gshared
gA:__ZN27AnimationLayerMixerPlayableD2Ev
upe:_ColorBlock_Equals_m518833916_AdjustorThunk
_km:_List_1_GetEnumerator_m2838255531_gshared
cym:_List_1_CheckCollection_m3678196246_gshared
Prg:_InternalEnumerator_1_System_Collections_IEnumerator_get_Current_m1514266661_AdjustorThunk
eY:__ZN12AudioManager39HandlePendingAudioConfigurationCallbackEv
Zg:_emscripten_glIsFramebuffer
nRk:_RSAManaged_EncryptValue_m799827583
xmc:__ZN12_GLOBAL__N_16qAtan2Eff
Sc:_JS_Sound_SetLoopPoints
Iyp:__ZN6il2cpp2vm26MetadataAllocGenericMethodEv
_ek:_Array_InternalArray__ICollection_Remove_TisUInt16_t2177724958_m1766181761_gshared
D6b:__ZN19ConstantBuffersGLES12RecordRenderEv
y8c:__ZN9JSONWrite8TransferI10RectOffsetEEvRT_PKc17TransferMetaFlags
u7a:__ZN4crnd12symbol_codec11decode_bitsEj
Nkd:__ZN15b2CircleContact8EvaluateEP10b2ManifoldRK11b2TransformS4_
fWn:_AesManaged_GenerateIV_m1368817386
Nyj:__Z37il2cpp_codegen_check_mul_overflow_i64xxxx
qX:__ZN4FMOD6System12createReverbEPPNS_6ReverbE
Ypp:__ZN6il2cpp2vm6String21InitializeEmptyStringEP11Il2CppClass
YYc:__Z51Register_UnityEngine_AnimationCurve_Internal_Createv
$Ke:__ZL48Queue_t3637523393_CustomAttributesCacheGeneratorP21CustomAttributesCache
Uz:__ZN7mecanim19ValueArrayBlendNodeILb1EEEvRKNS_10ValueArrayERKNS_14ValueArrayMaskERS1_RS4_RNS_16ValueArrayWeightEf
oip:__ZN6il2cpp2osL21IsSpecialZeroSizeFileEP4stat
YTf:_TypeDelegator_GetEvent_m3148520673
TKn:_ObjectPool_1_get_countInactive_m526975942_gshared
YWh:_RemotingServices_DisposeIdentity_m2605848806
nwa:__ZNK9Transform11GetPositionEv
Kno:__ZNK21HumanBone_t246533951811get_limit_2Ev
m1j:_GuidParser_Reset_m2640004655
kPb:__Z35Transfer_Blittable_FixedBufferFieldI19StreamedBinaryWritedEvRK29SerializationCommandArgumentsR31RuntimeSerializationCommandInfo
IBc:__ZN23SharedMeshRenderingData18UnloadVertexStreamEi
Y8o:__ZN6il2cpp2vm8Liveness10StartWorldEPFvvE
VQd:__ZN31CanvasBatchIntermediateRenderer11AddSubBatchERK16DrawBuffersRangePK19ShaderPropertySheet
IEc:__ZN19RenderEventsContextC2Ei
V6:__Z6simd4fRKf
bcg:_RuntimeTypeHandle_GetObjectData_m1599302095_AdjustorThunk
eg:_emscripten_glEnable
W4d:__GLOBAL__sub_I_Runtime_VR_PluginInterface_0_cpp
svg:_InternalEnumerator_1_System_Collections_IEnumerator_get_Current_m2982675020_gshared
SLa:__ZN10TagManager23VirtualRedirectTransferER14SafeBinaryRead
Aqf:__ZL51RawImage_t3182918964_CustomAttributesCacheGeneratorP21CustomAttributesCache
Kxk:_String_System_IConvertible_ToType_m3431692856
qYh:_CADObjRef__ctor_m2673939978
oMi:_CipherSuiteCollection_System_Collections_IList_Contains_m1220133031
N1o:__ZN6il2cpp2vm6Thread16RequestInterruptEP12Il2CppThread
Mta:__ZN14PlayableOutput26ClearInvalidSourcePlayableEv
gjc:__Z15InitLightMeshesv
l3d:__Z60Register_UnityEngine_Networking_DownloadHandlerBuffer_Createv
h1o:_RaycastHit_get_collider_m1464180279
CWf:__ZN6il2cpp2vm3CCW11GetOrCreateEP12Il2CppObjectRK10Il2CppGuid
Kza:__ZL50__ManagedRegistrationHelperFunction_CoroutineProxyPv
t0j:_SortKey_GetHashCode_m3547067087
rTj:_Exception__ctor_m1406832249
mCd:_cf2_arrstack_init
tKl:_Array_InternalArray__get_Item_TisResourceCacheItem_t51292791_m1306056717_gshared
mrl:__Z157RuntimeInvoker_Void_t1185182177_RuntimeObject_RuntimeObject_RuntimeObject_RuntimeObject_RuntimeObject_RuntimeObject_RuntimeObject_RuntimeObject_RuntimeObjectPFvvEPK10MethodInfoPvPS4_
$ea:__Z15CleanLogHandler7LogTypePKcz
hJj:_NumberFormatter_NumberToString_m2481532188
O0k:_Type_GetMethod_m1512604930
qai:_DictionaryEnumerator_MoveNext_m1462973125
bUb:__ZN6Camera17RemoveImageFilterERK11ImageFilter
IEb:__ZNSt3__218__insertion_sort_3IR25ValueParameterArraySorterPN20GpuProgramParameters14ValueParameterEEEvT0_S6_T_
Jqd:__ZN10ClipperLib7Clipper27ProcessEdgesAtTopOfScanbeamEx
sZd:__ZThn1172_N14UnityAnalyticsD0Ev
M_e:__ZL67EditorBrowsableAttribute_t1475454531_CustomAttributesCacheGeneratorP21CustomAttributesCache
zAi:_Comparer__cctor_m3311686689
Gvn:_Uri__ctor_m3040793867
nSg:_Enumerator_VerifyState_m1203790900_gshared
T9o:___cxx_global_var_init_1_43022
tug:_InternalEnumerator_1_get_Current_m3500427238_AdjustorThunk
ZRd:__ZN2UI26InitializeDeviceForOverlayEi
tJf:__ZN31OpCodes_t126150456_StaticFields17set_Ldelem_R8_150E17OpCode_t123070264
Gga:__Z27LogRepeatingStringWithFlagsRKN4core12basic_stringIcNS_20StringStorageDefaultIcEEEE15LogMessageFlagsi
c4k:_UInt64_System_IConvertible_ToSingle_m925613075
bej:_Enum_IsDefined_m1442314461
WXk:_Thread__cctor_m817723615
U5n:_AudioExtensionManager_RegisterBuiltinDefinitions_m2742744104
cx:__ZN17AnimationPlayable28ComputeNeedsBindingRebuildedEv
bw:__ZN17AnimationPlayable23RequestAllocateBindingsEv
K5d:__ZN9Scripting11UnityEngine12Experimental2XR18TrackingStateProxy9InitProxyEv
OTd:__Z53RectTransformUtility_CUSTOM_PixelAdjustPoint_InjectedRK8Vector2fP12Il2CppObjectS3_RS_
zCk:_DecoderReplacementFallbackBuffer_Fallback_m1261056214
z9m:_TextEditor_HandleKeyEvent_m2539982240
uim:_Enumerator_Dispose_m2367983719_gshared
qIc:__Z41Register_UnityEngine_Input_GetMouseButtonv
nHj:_Binder_get_DefaultBinder_m950908649
yRj:_StreamReader__ctor_m1616861391
RHd:_tt_cmap6_char_index
PVd:__ZN18UnityConnectClient33OnPlayerSessionStateChangedStaticEPS_jyy
pmd:__ZN19ProcessContactsDataD2Ev
Q8l:__Z34KeyValuePair_2_set_Key_m2116817417P26KeyValuePair_2_t3842366416P12Il2CppObjectPK10MethodInfo
l6l:_RSA_ToXmlString_m2922661427
naa:__ZNK11UnityEngine15CloudWebService23WebRequestUploadHandler11GetProgressEv
V1b:__ZN7ApiGLES4LoadE16GfxDeviceLevelGL
e1i:_Convert_ToDecimal_m2233265097
_ep:__ZN15dense_hashtableI10KeyWrapperIP18Il2CppGenericClassES3_N6il2cpp8metadata22Il2CppGenericClassHashEN14dense_hash_setIS3_S6_NS3_14EqualsComparerINS5_25Il2CppGenericClassCompareEEENSt3__29allocatorIS3_EEE8IdentityESA_SD_E15insert_noresizeERKS3_
oGc:__ZZL31RegisterOtherRendererPropertiesR22GenericPropertyBindingEN30Wrapper_RendererReceiveShadows13GetFloatValueEPv
GNi:__ZN28HandshakeMessage_t369658316817set_contentType_7Eh
rdk:_Array_InternalArray__ICollection_Contains_TisSlot_t384495010_m688761886_gshared
Oo:FUNCTION_TABLE_viiffffi
X8a:__ZN17SharedTextureDataC2E10MemLabelIdii13TextureFormatjiibb
VWb:__ZN8Material11SetPassFastEPN9ShaderLab4PassER17ShaderPassContextP6Shaderib
NJm:_Collection_1_IsFixedSize_m3748602684_gshared
E6i:_DateTime_System_IConvertible_ToDouble_m2116720007
xEi:_BitConverterLE_GetUIntBytes_m795219058
vGa:__ZN9Scripting11UnityEngine17CullingGroupProxy12CleanupProxyEv
XZk:_WaitHandle_WaitOne_m2577152516
Ycg:_SByte_Parse_m2899090751
gBj:_NumberFormatter_AppendExponent_m1258666517
rlg:_ArrayReadOnlyList_1_GetEnumerator_m1835926958_gshared
DAj:_NumberFormatter_AddOneToDecHex_m1662045257
qyc:__ZN19StreamedBinaryWrite21TransferSTLStyleArrayINSt3__26vectorIN9ShaderLab20SerializedSubProgram12UAVParameterENS1_9allocatorIS5_EEEEEEvRT_17TransferMetaFlags
Vpa:__ZN20GlobalCachingManager7DisposeEv
Xcc:__Z12SetupLODFadeR9GfxDeviceR17ShaderPassContextf
R2a:__ZNK14PlayableOutput7GetTypeEv
o9c:__ZN9JSONWrite8TransferI13dynamic_arrayI4AABBLj0EEEEvRT_PKc17TransferMetaFlags
Vic:__ZL24CollectForwardObjectsJobP27CollectForwardObjectsHeader
IW:__ZL58__ManagedRegistrationHelperFunction_AudioClipPlayableProxyPv
obd:__ZN8JSONRead21TransferSTLStyleArrayI13dynamic_arrayIdLj0EEEEvRT_17TransferMetaFlags
olc:__Z13IsNodeVisibleRK9SceneNodeRK4AABBRK22SceneCullingParameters
ljk:_Array_InternalArray__IndexOf_TisLabelFixup_t858502054_m1491765395_gshared
DIk:_SortKeyBuffer_AppendCJKExtension_m2591091991
zDe:__ZN17Image_t267026965137set_m_AlphaHitTestMinimumThreshold_40Ef
MUk:_UTF8Encoding_GetByteCount_m4153686982
aro:__ZN27ContactFilter2D_t380520344115set_layerMask_6E21LayerMask_t3493934918
yOp:_emscripten_glStencilMask__wrapper
Iog:__Z41InternalEnumerator_1_MoveNext_m2577879725P32InternalEnumerator_1_t4031039755PK10MethodInfo
WBo:__ZN15dense_hashtableI10KeyWrapperIPK19Il2CppGenericMethodES4_N6il2cpp8metadata23Il2CppGenericMethodHashEN14dense_hash_setIS4_S7_NS4_14EqualsComparerINS6_26Il2CppGenericMethodCompareEEENSt3__29allocatorIS4_EEE8IdentityESB_SE_EC2ERKSH_j
CEo:__ZN15dense_hashtableINSt3__24pairIK10KeyWrapperIN6il2cpp5utils13dynamic_arrayIPK10Il2CppTypeLj4EEEEPFvvEEESA_NS3_8metadata19Il2CppSignatureHashEN14dense_hash_mapISA_SD_SG_NSA_14EqualsComparerINSF_22Il2CppSignatureCompareEEENS0_9allocatorISE_EEE9SelectKeyESK_SM_EC2EjRKSG_RKSK_RKSO_
n2e:__ZL66RuntimePlatform_t4159857903_CustomAttributesCacheGenerator_XBOX360P21CustomAttributesCache
Xvb:__ZNK17ArchiveFileSystem8PositionERK13FileEntryData
ric:__Z17PrepareShadowMapsRK11CullResultsRK11ActiveLightRK10MinMaxAABB
_1m:_DeriveBytes_DeriveIV_m973925711
WBj:_Int32_System_IConvertible_ToSByte_m3133688512
YHn:_IndexedSet_1__ctor_m2250384602_gshared
Clm:_List_1_System_Collections_IList_Add_m1681258361_gshared
Ric:__ZN9ShaderLab10GrabPassesD2Ev
xcb:__ZN14Texture2DArray13UploadTextureEv
ieh:_MaskableGraphic_UpdateCull_m2805101913
gHd:_tt_cmap14_done
Aka:__ZN18AwakeFromLoadQueue25RegisterObjectInstanceIDsEv
xDa:__ZN9Scripting11UnityEngine9RectProxy12CleanupProxyEv
T1g:_InputField_UpdateLabel_m1837760870
$t:__ZN9Scripting11UnityEngine10Animations21LookAtConstraintProxy12CleanupProxyEv
lA:__ZNK27AnimationLayerMixerPlayable11DerivesFromE17ScriptingClassPtr
rBo:__ZNK15dense_hashtableI10KeyWrapperIPK17Il2CppGenericInstES4_N6il2cpp8metadata21Il2CppGenericInstHashEN14dense_hash_setIS4_S7_NS4_14EqualsComparerINS6_24Il2CppGenericInstCompareEEENSt3__29allocatorIS4_EEE8IdentityESB_SE_E3endEv
Oyd:__ZN20TextRenderingPrivate19NativeTextGenerator15InsertCharacterEiPj
TKg:__Z44InternalEnumerator_1_get_Current_m1477715453P31InternalEnumerator_1_t334410285PK10MethodInfo
SUg:_Enumerator_get_CurrentKey_m751894073_gshared
Hgd:__ZN11b2RopeJoint24SolveVelocityConstraintsERK12b2SolverData
xen:_GUIContent_ClearStaticCache_m1205116045
_ff:__ZL107DownloadHandler_t2937767557_CustomAttributesCacheGenerator_DownloadHandler_InternalGetByteArray_m4277508027P21CustomAttributesCache
cml:__Z87RuntimeInvoker_Color_t2555686324_Color_t2555686324_Color_t2555686324_Single_t1397266774PFvvEPK10MethodInfoPvPS4_
Auk:_WindowsIdentity_Dispose_m3466258450
Exi:_ArrayListWrapper_Sort_m1587743350
z1f:_BinaryCommon__cctor_m2978407547
sca:__GLOBAL__sub_I_Runtime_Burst_0_cpp
Wgc:__Z19GetReflectionSampleRK23ReflectionProbesContextRK22ActiveReflectionProbesRK27PerObjectLightCullingOutputRK10RenderNodejP16ReflectionSample
J7o:__ZN6il2cpp6icalls8mscorlib6System2IO6MonoIO20GetFileSystemEntriesEP12Il2CppStringS6_iiPi
C2k:_UInt16_TryParse_m4139137016
UWc:__Z41MonoBehaviour_Set_Custom_PropUseGUILayoutP12Il2CppObjecth
zlp:__ZN6il2cpp5utils13dynamic_arrayIPNS_2os6ThreadELj4EE9push_backEv
Vkp:__ZN6il2cpp2gc16GarbageCollector9FreeFixedEPv
uDk:_Encoding__ctor_m2997749867
GDh:_ManagedStreamHelpers_ManagedStreamSeek_m3158782053
xjp:___cxx_global_var_init_43493
ttn:_ExpressionAssertion_Compile_m2166597834
LFb:__ZN16ScriptingManagerD0Ev
Kwk:_Single_System_IConvertible_ToSByte_m1208276900_AdjustorThunk
WT:__ZN7mecanim12statemachine20StateMachineConstant15InitializeClassEv
Hqp:__ZN6il2cpp6icalls8mscorlib6System7Convert24InternalFromBase64StringEP12Il2CppStringb
qfm:__Z65Enumerator_System_Collections_IEnumerator_get_Current_m1643543708P22Enumerator_t3436819725PK10MethodInfo
Abg:_RuntimeFieldHandle_GetObjectData_m95767031_AdjustorThunk
Bcp:__ZN30dense_hashtable_const_iteratorINSt3__24pairIK10KeyWrapperINS1_IPKcS4_EEEiEES6_24NamespaceAndNamePairHashN14dense_hash_mapIS6_iS9_NS6_14EqualsComparerI26NamespaceAndNamePairEqualsEENS0_9allocatorIS8_EEE9SelectKeyESD_SF_EppEv
KYc:__Z44Register_UnityEngine_Component_get_transformv
YOb:__ZL26Transfer_SimpleNativeClassI19StreamedBinaryWrite8GradientLb1EEvRK29SerializationCommandArgumentsR31RuntimeSerializationCommandInfo
aM:__ZN12_GLOBAL__N_120ProcessPlayableGraphERN8Animator11AnimatorJobER35AnimationPlayableEvaluationConstantR32AnimationPlayableEvaluationInputR33AnimationPlayableEvaluationOutputPFvS4_R17AnimationPlayableEPFvS4_S6_S8_EPFvS8_S4_S6_S8_fESE_MS9_FvPS3_PS5_PS7_E
Yko:_CanvasRenderer_get_absoluteDepth_m2703237819
P0j:_TextInfo_ToLower_m2744057472
Q7b:__ZN17ArchiveFileSystem12MountArchiveEPKcS1_
tzo:__ZN14dense_hash_mapI10KeyWrapperIP9FieldInfoEiN6il2cpp5utils11PointerHashIS1_EENS3_14EqualsComparerINSt3__28equal_toIS2_EEEENS9_9allocatorINS9_4pairIKS3_iEEEEE15set_deleted_keyERSF_
l1l:_EqualityComparer_1_System_Collections_IEqualityComparer_Equals_m3977314386_gshared
B7c:__Z18Transfer_BlittableI9JSONWriteLb1E8Vector4fEvRK29SerializationCommandArgumentsR31RuntimeSerializationCommandInfo
Oja:__Z11RequireTypePKcS0_S0_
dUj:_CCGregorianCalendar_year_from_fixed_m463929682
UOd:__ZN2UI13CanvasManagerD0Ev
Xxi:_ReadOnlyArrayListWrapper_Sort_m2577012511
ash:_Debug_get_unityLogger_m2239795986
bOm:_ReadOnlyCollection_1_System_Collections_IEnumerable_GetEnumerator_m2123446296_gshared
JFi:_MD2Managed_Initialize_m2341076836
EUm:_ReadOnlyCollection_1_System_Collections_IList_Add_m4240023232_gshared
tBb:__ZN9GfxDevice15ImmediateVertexEfff
Hcb:__ZNK16LightmapSettings22GetTypeVirtualInternalEv
hsd:__ZN17Physics2DSettings8TransferI19StreamedBinaryWriteEEvRT_
oTg:__Z34Enumerator_VerifyCurrent_m93918543P22Enumerator_t2086727927PK10MethodInfo
pXo:__ZN30dense_hashtable_const_iteratorINSt3__24pairIK10KeyWrapperIPK14Il2CppAssemblyEPK22Il2CppMonoAssemblyNameEES6_N6il2cpp5utils11PointerHashIS4_EEN14dense_hash_mapIS6_SA_SF_NS6_14EqualsComparerINS0_8equal_toIS5_EEEENS0_9allocatorISB_EEE9SelectKeyESK_SM_EppEv
tBa:__ZL49__ManagedRegistrationHelperFunction_GPUFenceProxyPv
o_b:__ZN13GfxDeviceGLES15SetStencilStateEPK18DeviceStencilStatei
fhi:_Buffer_BlockCopyInternal_m418318694
gEp:_cycle
xqp:__ZN6il2cpp2vm8Profiler7GCEventE13Il2CppGCEvent
Wal:__Z76RuntimeInvoker_Void_t1185182177_RuntimeObject_RuntimeFieldHandle_t1871169219PFvvEPK10MethodInfoPvPS4_
YJa:__ZN11SpriteAtlas23VirtualRedirectTransferER18StreamedBinaryRead
IAa:__ZL50__ManagedRegistrationHelperFunction_LayerMaskProxyPv
Jh:_emscripten_glUniform1iv
bjf:__ZL97GUIStyle_t3956901511_CustomAttributesCacheGenerator_GUIStyle_t3956901511____fontSize_PropertyInfoP21CustomAttributesCache
RDb:__ZN13ComputeShader14SetBufferParamEjRKN9ShaderLab16FastPropertyNameE15ComputeBufferIDb
ajd:__ZN15b2DistanceProxy3SetEPK7b2Shapei
jyb:__ZN16MemoryFileSystemD2Ev
lbl:__Z150RuntimeInvoker_Int32_t2950945753_RuntimeObject_Int32_t2950945753_Int32_t2950945753_RuntimeObject_Int32_t2950945753_Int32_t2950945753_Int32_t2950945753PFvvEPK10MethodInfoPvPS4_
E0c:__ZN9Scripting11UnityEngine13GUIStyleProxy12CleanupProxyEv
aJo:__ZN6il2cpp2vmL15InitPollRequestER6pollfdP23Il2CppSocketAsyncResultRNS_2os19SocketHandleWrapperE
lqi:_Array_SetValue_m394135409
smg:_InternalEnumerator_1_System_Collections_IEnumerator_Reset_m81420524_AdjustorThunk
Vod:__ZN29b2InitializeContactSolverTask7TaskJobEPS_j
Mna:__ZN14FileCacherReadD2Ev
lAm:__Z34Enumerator_get_Current_m2282646120P22Enumerator_t1862690208PK10MethodInfo
DSh:_StackTraceUtility_ExtractStringFromExceptionInternal_m2686726792
cCl:__Z92RuntimeInvoker_RuntimeObject_SByte_t1669577662_SByte_t1669577662_RuntimeObject_RuntimeObjectPFvvEPK10MethodInfoPvPS4_
jT:__ZN13AnimationClip24SetDidModifyClipCallbackEPFvPS_R4ListI8ListNodeI14AnimationStateEEE
Xak:_StringReader_Read_m3322058819
gVh:_CrossAppDomainChannel_get_ChannelPriority_m3418073750
k7g:_Selectable_StartColorTween_m3618813981
E3j:_BinaryWriter_Write_m973309864
Asc:__Z23ConvertIntegerToTypePtrItEbPvR14SafeBinaryRead
_aj:_Delegate_CombineImpl_m3572135514
pzj:_NumberFormatter_IntegerToString_m1679294587
MRm:_ReadOnlyCollection_1_System_Collections_IList_RemoveAt_m422909114_gshared
NM:__ZN7mecanim5human29HumanGetGoalOrientationOffsetENS0_4GoalE
th:_emscripten_glStencilFunc
J6f:_CodeGenerator_EmitWrite_m1452031614
WH:__ZN13dynamic_arrayI11KeyframeTplI8Vector3fELj0EE18resize_initializedEj12ResizePolicy
Phe:__Z46il2cpp_codegen_get_marshal_directive_exceptionPKc
pzc:__ZN9ShaderLab20SerializedSubProgram14AddMatrixParamEPKcii15ShaderParamTypei
qk:_glGetActiveUniformBlockName
Q0d:__GLOBAL__sub_I_UnityWebRequestScriptingClasses_cpp
iqn:_Parser_IsIgnoreCase_m2210120858
oyp:__ZN6il2cpp2vm13WeakReference14QueryInterfaceERK10Il2CppGuidPPv
K8m:_GUI_HandleTextFieldEventForTouchscreen_m1092737262
J4d:__ZN9Scripting11UnityEngine5Video16VideoPlayerProxy9InitProxyEv
Kip:__ZN6il2cpp2os5posix13PosixAutoLockD2Ev
iHo:__ZN6il2cpp2vm13MetadataCache28GetGenericContainerFromIndexEi
uBj:__ZN27NumberFormatter_t118292462117set__specifier_13EDs
bZ:__ZN4FMOD7Channel20set3DConeOrientationEP11FMOD_VECTOR
Ln:FUNCTION_TABLE_iiifii
tie:_StandaloneInputModule_set_inputActionsPerSecond_m4057208843
vOj:_AssemblyBuilder_not_supported_m1735277432
rFg:_InternalEnumerator_1_MoveNext_m1344185775_AdjustorThunk
mJ:__ZN7mecanim5human9HumanPose8TransferI18StreamedBinaryReadEEvRT_
Shp:__ZN6il2cpp2vm12GenericClass11SetupEventsEP11Il2CppClass
jJd:_tt_delta_interpolate
FHd:_tt_cmap12_get_info
ogm:_Enumerator__ctor_m2029608698_AdjustorThunk
baj:_Decimal_ToString_m1815393864_AdjustorThunk
Y5h:_CADMethodCallMessage_GetArguments_m3041854375
QQl:_Dictionary_2_OnDeserialization_m4209543208_gshared
qrp:__ZThn4_N6il2cpp2vm13CachedCCWBaseINS0_13ManagedObjectEE7ReleaseEv
F9m:_GUIUtility_set_textFieldInput_m4036087722
qLo:__ZN6il2cpp6icalls8mscorlib6SystemL20GetMethodsByNameImplINS_5utils10functional6FilterINSt3__212basic_stringIcNS7_11char_traitsIcEENS7_9allocatorIcEEEENS4_13VmStringUtils23CaseInsensitiveComparerEEEEEP11Il2CppArrayPK10Il2CppTypejRKT_
qT:__ZN29AnimationStateNetworkProvider24GetNetworkAnimationStateER9AnimationP24AnimationStateForNetworki
kan:_TextEditor_ClearCursorPos_m1765024837
e6l:_RNGCryptoServiceProvider_GetNonZeroBytes_m1918423726
rFo:__ZL29ConvertPackingSizeEnumToValue11PackingSize
wll:__Z100RuntimeInvoker_Void_t1185182177_RuntimeObject_Int32_t2950945753_Int32_t2950945753_UInt16_t2177724958PFvvEPK10MethodInfoPvPS4_
qTp:_glCopyTexImage2D__wrapper
rud:__ZN16PhysicsManager2D11CreateWorldERK8Vector2f
Ovn:_Uri__ctor_m4293005803
eXb:__Z18ClearByDrawingQuad13GfxClearFlagsRK10ColorRGBAffjR17ShaderPassContext
Ywa:__ZN6prcoreL17RemapGenericFloatI14TexFormatRHalf15TexFormatRFloatEEvPKNS_9InnerInfoE
eBj:_NumberFormatter_FormatExponential_m2139559983
Fta:__ZN15DirectorManager21RebuildStageCallbacksEv
dsh:_Application_Internal_ApplicationQuit_m2936209313
CNd:__ZN9Scripting11UnityEngine8Tilemaps22TileAnimationDataProxy9InitProxyEv
Z0b:__ZN7ApiGLES10DrawArraysE16GfxPrimitiveTypejjj
o9h:_MethodCall_get_TypeName_m3873929301
Y0:__ZN10SampleClip13LoadBaseSoundEv
Wmi:_SmallXmlParser_SkipWhitespaces_m4243606597
oBa:__ZL50__ManagedRegistrationHelperFunction_TransformProxyPv
Uwi:_ArrayList_Sort_m4234055499
pJb:__ZN14SafeBinaryRead21TransferSTLStyleArrayI13dynamic_arrayI10Matrix4x4fLj0EEEEvRT_17TransferMetaFlags
Tti:_Byte_CompareTo_m4285128861
Wae:_TriggerEvent__ctor_m87299207
Z1m:_DeriveBytes_DeriveKey_m2933043667
N4:__Z57AudioSource_CUSTOM_INTERNAL_CALL_ClearExtensionPropertiesP12Il2CppObjectRK12PropertyName
Fhp:__ZN15dense_hashtableINSt3__24pairIK10KeyWrapperIP12Il2CppObjectEN6il2cpp2gc9CachedCCWEEES5_NS7_5utils11PointerHashIS3_EEN14dense_hash_mapIS5_S9_SD_NS5_14EqualsComparerINS0_8equal_toIS4_EEEENS0_9allocatorISA_EEE9SelectKeyESI_SK_E15insert_noresizeERKSA_
Ocn:_GUILayoutUtility_BeginWindow_m2240221150
M2a:__ZN22DeviceMVPMatricesStateC2ER9GfxDevice
DVi:_SslClientStream_Finalize_m1251363641
rva:__ZN6Object16StaticInitializeEv
Fzi:_Comparer_Compare_m3984347512
NZo:__ZN6il2cpp2vm10Reflection12HasAttributeEP9FieldInfoP11Il2CppClass
$b:invoke_viiifi
XRf:_MonoProperty_GetCustomAttributes_m3619796755
vyg:_InternalEnumerator_1_MoveNext_m4132713223_AdjustorThunk
R9h:_MethodDictionary_System_Collections_IEnumerable_GetEnumerator_m4169036899
g$k:_TimeSpan_Subtract_m1264203589
kWl:_DefaultComparer_Equals_m3257444875_gshared
C4a:__ZN10Matrix4x4f8TransferI19StreamedBinaryWriteEEvRT_
Uc:_JS_Sound_SetPosition
SGo:__ZL13GetSharedInstPK17Il2CppGenericInst
AUa:__Z27ConvertSubMeshesToTrianglesIjEvR13dynamic_arrayI7SubMeshLj0EERS0_IhLj0EE
NPh:_RenderTexture_Internal_Create_m347030155
bIf:__ZN31OpCodes_t126150456_StaticFields15set_Ldind_R8_78E17OpCode_t123070264
pkc:__Z17PrepareSceneNodesP11CullResults
Kpg:_InternalEnumerator_1_get_Current_m476140818_gshared
Xyc:__ZN9ShaderLab10SubProgram30CreateFromSerializedSubProgramERKNS_20SerializedSubProgramEP16PropertyNamesSetPK6Shader
uUc:__Z57Register_UnityEngine_RectTransform_set_sizeDelta_Injectedv
tI:__ZNSt3__26vectorIN13AnimationClip15QuaternionCurveE13stl_allocatorIS2_L18MemLabelIdentifier26ELi16EEE7reserveEj
lSc:__ZN9TextAsset7SetTextERKN4core12basic_stringIcNS0_20StringStorageDefaultIcEEEE
sPa:__ZN6Camera8TransferI24GenerateTypeTreeTransferEEvRT_
i6:__Z18RegisterUnityClassI12AudioManagerEvPKc
JM:__ZN7mecanim9animation15EvaluateAvatarXEPKNS0_14AvatarConstantEPKNS0_11AvatarInputEPNS0_12AvatarOutputEPNS0_12AvatarMemoryEPNS0_15AvatarWorkspaceE
fb:invoke_iiiiiiii
iEl:_Array_InternalArray__set_Item_TisByte_t1134296376_m3104140039_gshared
nXc:__Z56Register_UnityEngine_MonoBehaviour_IsObjectMonoBehaviourv
jOh:_Rect_ToString_m447614148
fza:__ZL83__ManagedRegistrationHelperFunction_NativeDisableUnsafePtrRestrictionAttributeProxyPv
j3m:_PKCS12_GetBytes_m415958948
Aac:__ZN8Renderer17PendingAddToSceneEv
$Sp:b122
gTp:b125
fTp:b124
oTp:b127
hTp:b126
xyk:_String_CompareOrdinalCaseInsensitiveUnchecked_m2925624579
NFh:_Mesh_SetSizedArrayForChannel_m2565120436
yja:__Z21PostprocessStacktracePKcRN4core12basic_stringIcNS1_20StringStorageDefaultIcEEEE
zkf:__ZL73ContactFilter2D_t3805203441_CustomAttributesCacheGenerator_minNormalAngleP21CustomAttributesCache
rap:__ZN15dense_hashtableINSt3__24pairIK10KeyWrapperIP14Il2CppIUnknownEjEES5_N6il2cpp5utils11PointerHashIS3_EEN14dense_hash_mapIS5_jSB_NS5_14EqualsComparerINS0_8equal_toIS4_EEEENS0_9allocatorIS7_EEE9SelectKeyESG_SI_E12expand_arrayEjN21dense_hash_map_traits17integral_constantIbLb0EEE
HDh:_ManagedStreamHelpers_ManagedStreamLength_m2930872960
g7j:_FileStreamAsyncResult_CBWrapper_m1670848754
Rne:___clang_call_terminate
EWd:__ZN22BaseUnityConnectClient20StartEventDispatcherEv
uOc:__ZNSt3__26vectorIj13stl_allocatorIjL18MemLabelIdentifier1ELi16EEE6assignIPKtEENS_9enable_ifIXaasr21__is_forward_iteratorIT_EE5valuesr16is_constructibleIjNS_15iterator_traitsIS9_E9referenceEEE5valueEvE4typeES9_S9_
rL:__ZN7mecanim9animation16EvaluateAvatarIKEPKNS0_14AvatarConstantEPKNS0_11AvatarInputEPNS0_12AvatarOutputEPNS0_12AvatarMemoryEPNS0_15AvatarWorkspaceEb
xB:__ZN26AnimatorControllerPlayable10GetIntegerEiRi
ucd:__ZN8JSONRead21TransferSTLStyleArrayI13dynamic_arrayI10ColorRGBAfLj0EEEEvRT_17TransferMetaFlags
I9b:__ZN12InputManager13InputEndFrameEv
hLo:__ZNSt3__26__treeIP11Il2CppClassNS_4lessIS2_EENS_9allocatorIS2_EEE25__emplace_unique_key_argsIS2_JRKS2_EEENS_4pairINS_15__tree_iteratorIS2_PNS_11__tree_nodeIS2_PvEEiEEbEERKT_DpOT0_
iwh:_Object_get_name_m4211327027
J1o:__ZN6il2cpp2vm6Thread5SetupEP12Il2CppThread
ERo:__ZN14dense_hash_mapI10KeyWrapperINSt3__24pairIPK10MethodInfoP11Il2CppClassEEEj17ReflectionMapHashIS8_ENS9_14EqualsComparerINS1_8equal_toIS8_EEEENS1_9allocatorINS2_IKS9_jEEEEE3endEv
oMp:_pthread_cond_wait__wrapper
KTg:_Enumerator_System_Collections_IDictionaryEnumerator_get_Key_m2500634048_gshared
l0j:_SortKey_Compare_m1705990888
hWm:_ReadOnlyCollection_1_System_Collections_Generic_ICollectionU3CTU3E_Add_m2054518774_gshared
sEp:___munmap
$l:_localtime_r
Cwg:_InternalEnumerator_1_System_Collections_IEnumerator_Reset_m3619766341_AdjustorThunk
H3a:__ZN14SafeBinaryRead21TransferSTLStyleArrayI13dynamic_arrayI12BoneWeights4Lj0EEEEvRT_17TransferMetaFlags
Xda:__Z19free_alloc_internalPv10MemLabelId
UTk:_UTF32Decoder_GetChars_m1925558948
Bm:_strftime
$Wf:_ResourceSet__ctor_m3618395942
l9i:_Decimal_System_IConvertible_ToDouble_m3125524987_AdjustorThunk
ioa:__ZN12FileAccessorD2Ev
PUa:__ZN14VertexDataInfoC2Ev
Fkp:__ZN6il2cpp2gc16GarbageCollector14CollectALittleEv
bs:__ZN13dynamic_arrayI23TransformAccessReadOnlyLj0EE4growEv
Lfh:_PositionAsUV1__ctor_m3868540123
kMc:__ZNK9HPlayable15GetPlayableTypeEv
Dgh:_RectMask2D_IsRaycastLocationValid_m1652308696
Hga:__ZNSt3__26__treeINS_12__value_typeIPKciEENS_19__map_value_compareIS3_S4_15compare_tstringIS3_ELb1EEENS_9allocatorIS4_EEE21__emplace_unique_implIJNS_4pairIPciEEEEENSD_INS_15__tree_iteratorIS4_PNS_11__tree_nodeIS4_PvEEiEEbEEDpOT_
YLo:__ZN6il2cpp6icalls8mscorlib6SystemL9IsPrivateEPK12PropertyInfo
K3m:_X501_ToString_m1148552872
wE:__Z26AddScaleCurveToClipBuilderR17AnimationCurveTplI8Vector3fERKN4core12basic_stringIcNS3_20StringStorageDefaultIcEEEER18MecanimClipBuilderb
mol:__Z96RuntimeInvoker_RuntimeObject_PlayableGraph_t3515989261_RuntimeObject_RuntimeObject_RuntimeObjectPFvvEPK10MethodInfoPvPS4_
LOh:_RectTransform_add_reapplyDrivenProperties_m1374850920
pxh:_DebugLogHandler_Internal_LogException_m4213045108
Mia:__ZN9shadertag10InitializeEv
urp:__ZThn8_N6il2cpp2vm13CachedCCWBaseINS0_13ManagedObjectEE7DestroyEv
qwd:__GLOBAL__sub_I_Modules_Terrain_Public_1_cpp
l0o:_il2cpp_field_has_attribute
cab:__ZN15QualitySettings14QualitySetting8TransferI24GenerateTypeTreeTransferEEvRT_
u4n:_UnityWebRequest_get_isHttpError_m797082501
w$c:__Z44Register_UnityEngine_Object_DestroyImmediatev
M3i:_Convert_ToSingle_m835189399
M6o:__ZN6il2cpp6icalls8mscorlib6System10Reflection19ResourceNameMatcherC2ERKNSt3__212basic_stringIcNS5_11char_traitsIcEENS5_9allocatorIcEEEE
tJc:__ZN22BlockMemoryCacheWriter14LockCacheBlockEjPPhS1_
uKo:__ZN6il2cpp6icalls8mscorlib6System8MonoType24GetConstructors_internalEP20Il2CppReflectionTypeiS5_
nbd:__Z22TransferField_NonArrayI8JSONRead27Converter_SimpleNativeClassI8GUIStyleEEvRK23StaticTransferFieldInfoR31RuntimeSerializationCommandInfoRT0_
Rl:_llvm_eh_typeid_for
kMp:_glGetUniformLocation__wrapper
r9h:_RemotingServices_FindInterfaceMethod_m2125212568
KC:__ZNK23AnimationPlayableOutput7GetTypeEv
mak:_StreamWriter__cctor_m1229272693
Gdj:_Enum_System_IConvertible_ToSByte_m779472798
_do:__ZL24UnresolvedVirtualCall_81P12Il2CppObjectPK10MethodInfo
a0k:_Type_get_IsInterface_m3284996719
m9n:_UnitySynchronizationContext_ExecuteTasks_m1310741010
zpn:_RegularExpression__ctor_m119502265
Nxd:__ZN14SafeBinaryRead21TransferSTLStyleArrayI13dynamic_arrayIN4core17string_with_labelILi35EEELj0EEEEvRT_17TransferMetaFlags
KUl:_Dictionary_2_U3CCopyToU3Em__0_m2023886030_gshared
tF:__ZN9BlobWrite8TransferIN7mecanim5human9HumanGoalEEEvRT_PKc17TransferMetaFlags
zTg:__Z28Enumerator_Reset_m1473454555P22Enumerator_t2086727927PK10MethodInfo
_Np:_glBindVertexArray__wrapper
VG:__ZN13dynamic_arrayIN11UnityEngine9Animation14GenericBindingELj0EE18resize_initializedEj12ResizePolicy
h4f:_SerializationInfo__ctor_m2923079689
mYd:__ZN11UnityEngine9Analytics16LimitEventConfig8TransferI8JSONReadEEvRT_
c1a:__ZN8Material8TransferI14SafeBinaryReadEEvRT_
y5a:__ZN12CubemapArray17UploadToGfxDeviceEv
pcl:__Z68RuntimeInvoker_Void_t1185182177_Int32_t2950945753_Single_t1397266774PFvvEPK10MethodInfoPvPS4_
Hyj:_Int32_JumpOverWhite_m208298144
Czo:__ZN15dense_hashtableINSt3__24pairIK10KeyWrapperIP9FieldInfoEiEES5_N6il2cpp5utils11PointerHashIS3_EEN14dense_hash_mapIS5_iSB_NS5_14EqualsComparerINS0_8equal_toIS4_EEEENS0_9allocatorIS7_EEE9SelectKeyESG_SI_E4swapERSL_
iRp:_emscripten_glGetUniformiv__wrapper
jrp:__ZN6il2cpp2vm13ManagedObject14QueryInterfaceERK10Il2CppGuidPPv
jI:__ZNSt3__26vectorI24CompressedAnimationCurve13stl_allocatorIS1_L18MemLabelIdentifier26ELi16EEE6assignINS_11__wrap_iterIPS1_EEEENS_9enable_ifIXaasr21__is_forward_iteratorIT_EE5valuesr16is_constructibleIS1_NS_15iterator_traitsISB_E9referenceEEE5valueEvE4typeESB_SB_
LZ:__ZN11AudioSource4StopEb
Yni:_AppDomain_LoadAssembly_m1557889794
K3j:_BinaryWriter_Write_m340679106
hFb:__ZN18GlslGpuProgramGLESD2Ev
opc:__ZN13RenderTexture14SetVolumeDepthEi
f0:__ZN11AudioSource23VirtualRedirectTransferER19StreamedBinaryWrite
EMf:_EventInfo_get_EventHandlerType_m420690865
Okl:__Z86RuntimeInvoker_Void_t1185182177_UInt16_t2177724958_SByte_t1669577662_SByte_t1669577662PFvvEPK10MethodInfoPvPS4_
czc:__Z22LoadGpuProgramFromDataPKhS0_Rj
Tbd:__ZN10Matrix4x4f8TransferI8JSONReadEEvRT_
P_b:__ZN13GfxDeviceGLES22AllocateBufferInternalERK13GfxBufferDesc
_ai:_MethodResponse_GetArg_m4250300354
Mfh:_PositionAsUV1_ModifyMesh_m4231919476
eBi:_Hashtable__ctor_m1941859523
Bjh:_ScrollRect_set_horizontalScrollbarSpacing_m2209919081
c5b:__ZN25TransformFeedbackSkinning31CleanupTransformFeedbackShadersEv
z0k:_Type_GetTypeCodeInternal_m1968182887
$Pa:__Z22scripting_object_unbox18ScriptingObjectPtr
Qyd:__ZNK20TextRenderingPrivate8FontImpl19GetCharacterAdvanceEjijfPj
xlk:_Array_InternalArray__ICollection_Add_TisUriScheme_t722425697_m3142345403_gshared
uDp:_fmt_u
Pro:_RaycastHit2D_get_point_m1586138107_AdjustorThunk
dCp:__ZN6il2cpp8metadata25Il2CppGenericClassCompare7CompareEPK18Il2CppGenericClassS4_
aPd:__ZN2UI11CanvasGroup23VirtualRedirectTransferER19StreamedBinaryWrite
PQd:__ZN2UI29ResetVRScreenSpaceWarningFlagEv
WHj:_MonoType_get_Assembly_m4290914179
Mzc:__ZN9ShaderLab7ProgramC2E10MemLabelIdi10ShaderType
xpc:__ZN14PreloadManager16UpdatePreloadingEv
ZNa:__ZN12BaseRendererD2Ev
jSc:__ZNSt3__26vectorI4PPtrI10MonoScriptE13stl_allocatorIS3_L18MemLabelIdentifier79ELi16EEE6insertENS_11__wrap_iterIPKS3_EERS9_
Ryk:_String_LastIndexOf_m95398196
_r:__ZN13ConstraintJob23ConstraintComponentDataC2ERK16LookAtConstraint
oEg:_InternalEnumerator_1_System_Collections_IEnumerator_Reset_m3355902602_AdjustorThunk
bIa:__ZN9Scripting5Unity11Collections39DeallocateOnJobCompletionAttributeProxy12CleanupProxyEv
_No:__ZN6il2cpp2os4File4ReadEPNS0_10FileHandleEPciPi
Fpb:__ZN19RenderBufferManager7Buffers14GarbageCollectEi
ytc:__ZNK21UnityDefaultAllocatorI17LowLevelAllocatorE8ContainsEPKv
ccg:_RuntimeTypeHandle_Equals_m2857439487
_e:_emscripten_get_main_loop_timing
Sqg:_InternalEnumerator_1_System_Collections_IEnumerator_Reset_m2270178034_AdjustorThunk
ida:__GLOBAL__sub_I_Runtime_PreloadManager_0_cpp
uZf:_SafeHandle_Finalize_m3866180675
bab:__ZN24GenerateTypeTreeTransfer21TransferSTLStyleArrayINSt3__26vectorIN15QualitySettings14QualitySettingENS1_9allocatorIS4_EEEEEEvRT_17TransferMetaFlags
OVm:_ReadOnlyCollection_1_System_Collections_IList_Add_m2445024939_gshared
$7j:_MemoryStream_ToArray_m3911744835
CSg:_Enumerator_System_Collections_IDictionaryEnumerator_get_Entry_m859540448_AdjustorThunk
Boc:__ZN23ManagedAttributeManager52CallManagedGetParentTypeDisallowingMultipleInclusionE17ScriptingClassPtr
xkb:__Z10AddGUIAxesR13dynamic_arrayI9InputAxisLj0EE
J0k:_Type_GetHashCode_m1947148725
Wcc:__ZN13BatchRendererC2ER15RenderLoopStatsRK15RenderNodeQueuebbb
Hca:__GLOBAL__sub_I_Runtime_Graphics_0_cpp
Prb:__ZNK2UI13RectTransform22GetTypeVirtualInternalEv
Ap:getTempRet0
o5e:__ZL59LayerMask_t3493934918_CustomAttributesCacheGenerator_m_MaskP21CustomAttributesCache
O8d:_BaseRaycaster_OnEnable_m2678466030
Uzh:_UnityEventBase__ctor_m1851535676
OGl:_Array_Sort_TisVector4_t3319028937_m2797285308_gshared
W3d:__GLOBAL__sub_I_Runtime_Vehicles_0_cpp
mck:_UnexceptionalStreamWriter_Write_m1834931241
UHf:__ZN31OpCodes_t126150456_StaticFields15set_Ldind_I1_69E17OpCode_t123070264
e7o:__ZN6il2cpp6icalls8mscorlib6System9ThreadingL21lookup_cached_cultureEP12Il2CppThreadi
Fwp:__ZN6il2cpp2os11EventHandleD2Ev
Vjc:__ZN18DeferredRenderLoopD2Ev
lmo:_AnimationLayerMixerPlayable__cctor_m4086299972
yIa:__ZNK16TypeTreeIterator4NameEv
ZAh:_GraphicsFormatUtility_GetRenderTextureFormat_m2347522639
Ina:__ZN15FileSystemEntry3SetEPKc
o4c:__Z42GUIStyle_CUSTOM_get_contentOffset_InjectedP12Il2CppObjectR8Vector2f
xPj:_ConstructorBuilder_Invoke_m3010446651
NKk:_BigInteger_ToString_m570257729
Alj:_IPv6Address_set_ScopeId_m3907190992
zOm:_ReadOnlyCollection_1_System_Collections_Generic_IListU3CTU3E_Insert_m568455025_gshared
LY:__ZN20SoundChannelInstance15ParameterBuffer5ApplyEPN4FMOD7ChannelE
nlj:_IPv6Address__ctor_m4117281080
Bso:__ZN33NativeMethodAttribute_t418742819342set_U3CHasExplicitThisU3Ek__BackingField_4Eb
g3i:_Convert_ToInt64_m2075293963
Nyd:__ZN20TextRenderingPrivate19NativeTextGenerator9InsertTabEv
xIp:_sbrk
Eth:_Bounds_GetHashCode_m1844059663
FQb:__Z18Transfer_BlittableI18StreamedBinaryReadLb1E4AABBEvRK29SerializationCommandArgumentsR31RuntimeSerializationCommandInfo
aYd:__ZN11UnityEngine15PlatformWrapper24GetRuntimePlatformStringEv
Pk:_glIsEnabled
vNl:__Z31Enumerator_MoveNext_m3045873697P21Enumerator_t572278398PK10MethodInfo
UOj:_DerivedType__ctor_m1853298054
gIb:__Z25scripting_class_get_image17ScriptingClassPtr
Czi:_CaseInsensitiveComparer_Compare_m1224120810
jmm:_List_1_RemoveAt_m2730968292_gshared
Wmb:__ZNSt3__26vectorIN4core12basic_stringIcNS1_20StringStorageDefaultIcEEEE13stl_allocatorIS5_L18MemLabelIdentifier13ELi16EEEC2INS_11__wrap_iterIPS5_EEEET_SE_RKS8_PNS_9enable_ifIXaasr21__is_forward_iteratorISE_EE5valuesr16is_constructibleIS5_NS_15iterator_traitsISE_E9referenceEEE5valueEvE4typeE
cg:_emscripten_glDrawElementsInstanced
tB:__ZN26AnimatorControllerPlayable27SetupStateMachineBehavioursEv
Pgk:_Array_InternalArray__IEnumerable_GetEnumerator_TisSlot_t3975888750_m1869932007_gshared
w5e:__ZL48Mathf_t3464937446_CustomAttributesCacheGeneratorP21CustomAttributesCache
J2e:__ZL79Camera_t4157153871_CustomAttributesCacheGenerator_Camera_RaycastTry_m3913529496P21CustomAttributesCache
dah:_LayoutGroup_get_preferredWidth_m3816902260
Krb:__ZN9Transform17MainThreadCleanupEv
Sup:_GC_clear_hdr_marks
ULp:_emscripten_glCreateShader__wrapper
LBd:_cff_fd_select_get
BRp:_emscripten_glTexParameteri__wrapper
Eqh:_Text_set_resizeTextForBestFit_m4095249125
epj:_OidEnumerator_MoveNext_m3138911739
Qvl:__Z53RuntimeInvoker_Boolean_t97287965_Keyframe_t4206410242PFvvEPK10MethodInfoPvPS4_
Mg:_emscripten_glGetShaderiv
e_:__ZN4FMOD6System10getVersionEPj
J7a:__Z26GetDecompressTextureFormat13TextureFormat
lV:__ZN9Scripting11UnityEngine2XR5Tango13PoseDataProxy12CleanupProxyEv
Bnh:_Selectable_set_animationTriggers_m2970345687
v9c:__ZN9JSONWrite8TransferIN4math12int2_storageEEEvRT_PKc17TransferMetaFlags
zxd:__ZN13TextRendering4Font13AwakeFromLoadE17AwakeFromLoadMode
GXj:_CompareInfo_LastIndexOf_m2688553706
oAb:__ZN9GfxDevice21ReleaseSharedMeshDataEP14SharedMeshData
Y9m:_GUISettings_Internal_GetCursorFlashSpeed_m2762316906
wge:_MouseState__ctor_m1467839005
yvn:_Uri_IsDomainAddress_m2867513594
dVg:__Z32KeyValuePair_2__ctor_m2797317909P26KeyValuePair_2_t1377593753P12Il2CppObjectiPK10MethodInfo
Zlb:__ZNSt3__27__sort5IRNS_6__lessINS_4pairIPKN5Unity4TypeE7Hash128EES8_EEPS8_EEjT0_SC_SC_SC_SC_T_
xqm:_List_1_Insert_m1987928029_gshared
pwe:_Dropdown_CreateItem_m2954407740
u9e:__ZL50Cubemap_t1972384409_CustomAttributesCacheGeneratorP21CustomAttributesCache
bsj:_X509Chain_ProcessCrlExtensions_m236234529
Swo:__ZN6il2cpp2vm5Class40GetInterfaceInvokeDataFromVTableSlowPathEPK12Il2CppObjectPK11Il2CppClassj
gCe:_GridLayoutGroup_set_startAxis_m837106447
c0h:_RemotingConfiguration_RegisterChannelTemplate_m3105688054
cyc:__ZN6Shader8TransferI19StreamedBinaryWriteEEvRT_
wSa:__ZN8Material28UpdateHashesOnPropertyChangeEN9ShaderLab16FastPropertyNameE
SYc:__Z53Register_UnityEngine_SortingLayer_GetLayerValueFromIDv
qEi:_ASN1_GetBytes_m1968380955
$Gb:__Z18Transfer_BlittableI14SafeBinaryReadLb1E8Vector4fEvRK29SerializationCommandArgumentsR31RuntimeSerializationCommandInfo
m0:__ZN11AudioSource12AddToManagerEv
rLo:__ZN6il2cpp6icalls8mscorlib6SystemL20GetMethodsByNameImplINS_5utils10functional6FilterINSt3__212basic_stringIcNS7_11char_traitsIcEENS7_9allocatorIcEEEENS4_13VmStringUtils21CaseSensitiveComparerEEEEEP11Il2CppArrayPK10Il2CppTypejRKT_
pcm:__Z64Enumerator_System_Collections_IEnumerator_get_Current_m472556657P22Enumerator_t3649184329PK10MethodInfo
Fcp:__ZN6il2cpp2vm5Image13ClassFromNameEPK11Il2CppImagePKcS6_
SJp:dynCall_vdddddd
pxc:__ZN24GenerateTypeTreeTransfer21TransferSTLStyleArrayINSt3__26vectorIN9ShaderLab14SerializedPassENS1_9allocatorIS4_EEEEEEvRT_17TransferMetaFlags
mja:__ZL32MarkLevelGameManagerDependenciesR27GarbageCollectorThreadState
f0b:__ZNK13GfxDeviceGLES26HasActiveRandomWriteTargetEv
Sjp:__ZN15dense_hashtableINSt3__24pairIK10KeyWrapperIPcES3_EES4_N6il2cpp5utils15PassThroughHashIS3_EEN14dense_hash_mapIS4_S3_SA_NS4_14EqualsComparerINS0_8equal_toIS3_EEEENS0_9allocatorIS6_EEE9SelectKeyESF_SH_E9copy_fromERKSK_j
hBo:__ZN15dense_hashtableI10KeyWrapperIPK17Il2CppGenericInstES4_N6il2cpp8metadata21Il2CppGenericInstHashEN14dense_hash_setIS4_S7_NS4_14EqualsComparerINS6_24Il2CppGenericInstCompareEEENSt3__29allocatorIS4_EEE8IdentityESB_SE_E4swapERSH_
nJe:__ZL54_MemberInfo_t3922476713_CustomAttributesCacheGeneratorP21CustomAttributesCache
RSp:_glGetActiveUniformsiv__wrapper
GNn:_ButtonTutorial_descriptionViewNone_m2951206272
lGh:_Mesh_GetIndices_m2873123901
Cid:__ZN17Physics2DSettings21SetAutoSyncTransformsEbb
vM:__Z20AnimationEventToMonoRK14AnimationEventR18MonoAnimationEvent
iPb:__Z18Transfer_BlittableI19StreamedBinaryWriteLb0EdEvRK29SerializationCommandArgumentsR31RuntimeSerializationCommandInfo
Yro:_RaycastHit2D_get_collider_m1549426026_AdjustorThunk
wtl:__Z106RuntimeInvoker_Void_t1185182177_Single_t1397266774_Single_t1397266774_Single_t1397266774_Int32_t2950945753PFvvEPK10MethodInfoPvPS4_
ore:_FloatTween_set_targetValue_m3604919944_AdjustorThunk
eqo:__ZN6il2cpp6icalls8mscorlib6System7Decimal14decimalCompareEP19il2cpp_decimal_reprS5_
bge:_PointerEventData_get_dragging_m746831934
r0k:_Type_get_TypeHandle_m160082026
DUm:_ReadOnlyCollection_1_System_Collections_IEnumerable_GetEnumerator_m2781605075_gshared
pta:__ZZN15DirectorManager15InitializeClassEvEN52PreLateUpdateDirectorUpdateAnimationBeginRegistrator7ForwardEv
Rck:_Array_get_swapper_TisCustomAttributeNamedArgument_t287865710_m4254011335_gshared
WAe:_Graphic_RegisterDirtyMaterialCallback_m106898453
Cfn:_GUILayoutEntry_get_margin_m3174861737
z1n:__Z27List_1_get_Count_m361000296P17List_1_t128053199PK10MethodInfo
Fwc:__ZNSt3__26vectorIN9ShaderLab14SerializedPassENS_9allocatorIS2_EEE8__appendEj
SKh:_PlayableOutputHandle_op_Equality_m388301694
Uzk:_Encoding_get_ISOLatin1_m2107621369
zid:__ZNK16PhysicsManager2D21GetAutoSyncTransformsEv
rlp:___cxx_global_var_init_43597
yDi:_BigInteger_op_Inequality_m2697143438
ihd:__ZN12b2WheelJoint24SolveVelocityConstraintsERK12b2SolverData
MFf:_ModuleBuilderTokenGenerator_GetToken_m1396347424
sVb:__ZNK25PathNamePersistentManager30PathIDToFileIdentifierInternalEi
TUc:__Z33Camera_CUSTOM_RaycastTry_InjectedP12Il2CppObjectRK3Rayfi
Drd:__ZN10Collider2D8TransferI24GenerateTypeTreeTransferEEvRT_
iv:__ZN7mecanim8skeleton18CreateSkeletonPoseIN4math7affineXEEEPNS0_13SkeletonPoseTIT_EEPKNS0_8SkeletonER20RuntimeBaseAllocator
XMk:_BitConverterLE_GetBytes_m2590852453
dzi:_BitArrayEnumerator__ctor_m2359341397
Fdm:_Enumerator_MoveNext_m1177880931_gshared
azo:__ZN30dense_hashtable_const_iteratorINSt3__24pairIK10KeyWrapperIPKcEP11Il2CppClassEES5_N6il2cpp5utils11StringUtils12StringHasherIS4_EEN14dense_hash_mapIS5_S8_SE_NS5_14EqualsComparerINSB_13VmStringUtils21CaseSensitiveComparerEEENS0_9allocatorIS9_EEE9SelectKeyESJ_SL_E30advance_past_empty_and_deletedEv
eff:__ZL73g_UnityEngine_TextRenderingModule_Assembly_CustomAttributesCacheGeneratorP21CustomAttributesCache
ima:__ZN16ScriptingManager27NativeTypeForScriptingClassE17ScriptingClassPtr
Q3k:_UInt64_System_IConvertible_ToDateTime_m3434604642
l0k:_Type_get_IsSerializable_m1040556850
crj:_X509ChainElementEnumerator_MoveNext_m3940594045
qGd:_get_sfnt_table
Qxp:__ZN6il2cpp5utilsL9ReadFloatEPKc
geb:__ZN8Renderer20RendererAddedToSceneEv
aPa:__ZN6Camera23VirtualRedirectTransferER18StreamedBinaryRead
g2o:___cxx_global_var_init_42533
xlc:__ZL22ScheduleSceneNodesJobsP25ScheduleSceneNodesJobDataj
qi:_emscripten_set_canvas_size
Uye:_Graphic_SetVerticesDirty_m2124914069
WUj:_CultureInfo__ctor_m3285927757
heh:_MaskableGraphic_get_rootCanvasRect_m3492154629
DFl:_Array_Resize_TisRaycastResult_t3360306849_m1811054291_gshared
wEc:__ZN12MeshRenderer27PrepareSingleRendererUpdateER13RendererSceneRS_10MemLabelId
mwc:__ZNSt3__26vectorIN9ShaderLab20SerializedSubProgramENS_9allocatorIS2_EEE8__appendEj
iea:__ZN20DynamicHeapAllocatorI17LowLevelAllocatorE8AllocateEji
BZd:__ZN11UnityEngine9Analytics15UserCustomEvent12ToJsonStringER9JSONWrite
pVg:_Enumerator_VerifyCurrent_m220886300_AdjustorThunk
Edc:__ZN20DynamicPropertySheet15SetVectorQueuedERKN9ShaderLab16FastPropertyNameERK8Vector4fN19ShaderPropertySheet8SetFlagsE
_tm:_List_1_get_Item_m2254585396_gshared
Jmo:_AnimatorControllerPlayable_SetHandle_m2260644454
KK:__ZN7mecanim9animation22EvaluateAvatarRetargetEPKNS0_14AvatarConstantEPKNS0_11AvatarInputEPNS0_12AvatarOutputEPNS0_12AvatarMemoryEPNS0_15AvatarWorkspaceEb
KEg:_InternalEnumerator_1_System_Collections_IEnumerator_Reset_m996811230_AdjustorThunk
S7c:__ZL26Transfer_SimpleNativeClassI9JSONWrite10RectOffsetLb0EEvRK29SerializationCommandArgumentsR31RuntimeSerializationCommandInfo
mup:_GC_push_conditional
aF:__ZN7mecanim9animation4Clip8TransferI8BlobSizeEEvRT_
Wfb:__ZN17GenericDynamicVBO10AllocateVBEjR21DynamicVBOChunkHandle
_5i:_DBNull_ToString_m3638608738
Eep:__ZN30dense_hashtable_const_iteratorI10KeyWrapperIP18Il2CppGenericClassES3_N6il2cpp8metadata22Il2CppGenericClassHashEN14dense_hash_setIS3_S6_NS3_14EqualsComparerINS5_25Il2CppGenericClassCompareEEENSt3__29allocatorIS3_EEE8IdentityESA_SD_EppEv
azi:_BitArray_Clone_m3537018332
Y2f:_ObjectRecord_UnchainFixup_m3191243952
vQd:__Z15GetUIModuleSpecv
T5b:__Z22TextureIdMapGLES_Alias9TextureIDS_
YHc:__Z31Input_CUSTOM_GetMouseButtonDowni
kmh:_Scrollbar_get_stepSize_m1389308760
bbm:__Z58Enumerator_System_Collections_IEnumerator_Reset_m502339360P22Enumerator_t2017297076PK10MethodInfo
vsb:__ZNK9Transform16GetLocalPositionEv
ZHj:_MonoType_get_BaseType_m1098640416
Unb:__ZN13LoadOperation19IntegrateTimeSlicedEi
a0m:_TlsStream_Read_m3392972801
S6a:__ZN18AsyncUploadManager16QueueUploadAssetEPKcjjjRK18AsyncUploadHandler
p0b:__ZN13GfxDeviceGLES22DispatchComputeProgramE12ObjectHandleI18ComputeProgram_TagPvE15ComputeBufferIDj
oPh:_Transform_get_localToWorldMatrix_m4155710351
CSk:_Latin1Encoding_GetString_m254210343
Bpb:__Z17TransformAABBSlowRK4AABBRK10Matrix4x4fRS_
Yfk:_SetPropertyUtility_SetStruct_TisChar_t3634460470_m4284602558_gshared
Sqi:_Array_combsort_m4052486289
b$:__ZN24AudioScriptBufferManager27InitialCompleteDomainReloadEv
Quc:__ZN9ShaderLab21SerializedShaderState8TransferI14SafeBinaryReadEEvRT_
qRj:_Environment_GetWindowsFolderPath_m1738399646
LCd:_cf2_stack_pushInt
$Ad:__ZNSt3__26__treeINS_12__value_typeIN20TextRenderingPrivate7FontRefEP11FT_FaceRec_EENS_19__map_value_compareIS3_S6_NS_4lessIS3_EELb1EEENS_9allocatorIS6_EEE7destroyEPNS_11__tree_nodeIS6_PvEE
CK:__ZN8Animator19FireAnimationEventsERNS_11AnimatorJobE
eEn:_InvokableCall_1_Invoke_m891112188_gshared
Ydg:_CryptoConfig_EncodeOID_m2635914623
U1a:__ZN15SerializeTraitsINSt3__24pairIN4core12basic_stringIcNS2_20StringStorageDefaultIcEEEES6_EEE8TransferI24GenerateTypeTreeTransferEEvRS7_RT_
UOp:b89
TOp:b88
DOp:b81
Cqo:__ZL6add192yyyyyyPyS_S_
F5b:__ZN7ApiGLES19CreateSparseTextureEjj14GraphicsFormatiiiiRiS1_S1_
Yma:__ZN18ResourceImageGroup7CleanupEv
k8o:__ZN6il2cpp6icalls8mscorlib6SystemL12AssignSignedIxEEvNS2_17WidenedValueUnionEPv14Il2CppTypeEnumjj
KOp:b84
SOp:b87
QAk:_String_CharCopy_m3838781968
dci:_RemotingSurrogateSelector_GetSurrogate_m3900875713
gZa:__ZN8Playable19SetOutputConnectionEPS_i
jAc:__Z61RenderTexture_CUSTOM_INTERNAL_CALL_SetRenderTextureDescriptorP12Il2CppObjectRK17RenderTextureDesc
gTa:__Z20RenderMultipleMeshesRK15RenderNodeQueueRK18RenderMultipleData16VertexInputMasks
Gj:_glDeleteShader
yBa:__ZL57__ManagedRegistrationHelperFunction_ShaderKeywordSetProxyPv
oCa:__ZN9Scripting11UnityEngine32UnitySynchronizationContextProxy9InitProxyEv
exa:__ZN6prcoreL17RemapGenericFloatI15TexFormatRGHalf16TexFormatRGFloatEEvPKNS_9InnerInfoE
zGl:_Array_Sort_TisUICharInfo_t75501106_m128665067_gshared
XEd:_otv_GSUB_validate
_6l:_RSAPKCS1SignatureDeformatter_SetHashAlgorithm_m1602190713
ydj:_Enum_System_IConvertible_ToByte_m1219166845
M0c:__ZN9Scripting11UnityEngine19GUILayoutEntryProxy12CleanupProxyEv
i4d:__ZL61__ManagedRegistrationHelperFunction_VideoAudioOutputModeProxyPv
aqg:_InternalEnumerator_1_System_Collections_IEnumerator_Reset_m4239728915_AdjustorThunk
Oj:_glDisable
Uzc:__Z27scripting_add_internal_callPKcPKv
Kdn:__ZN26GUILayoutGroup_t215778969528set_m_UserSpecifiedHeight_21Eb
D0g:__ZN22InputField_t376291743128set_m_CaretSelectPosition_41Ei
dTg:_Enumerator_Dispose_m1360775770_gshared
ywc:__ZNSt3__26vectorIN9ShaderLab20SerializedSubProgram16SamplerParameterENS_9allocatorIS3_EEE6assignIPS3_EENS_9enable_ifIXaasr21__is_forward_iteratorIT_EE5valuesr16is_constructibleIS3_NS_15iterator_traitsISA_E9referenceEEE5valueEvE4typeESA_SA_
YHf:__ZN31OpCodes_t126150456_StaticFields15set_Ldind_I4_73E17OpCode_t123070264
VSg:_Enumerator_MoveNext_m1556953412_AdjustorThunk
gw:__ZN26AnimatorControllerPlayable18SetLayerAutoWeightEv
uUd:__Z44Register_UnityEngine_Canvas_get_pixelPerfectv
CRg:__Z71Enumerator_System_Collections_IDictionaryEnumerator_get_Key_m2502357460P22Enumerator_t3398877024PK10MethodInfo
Zsp:_GC_alloc_large
PRd:__ZN2UI14CanvasRenderer12SyncMaterialENS0_8SyncFlagE
Kak:_StreamWriter_Write_m1660535366
Bzp:__ZN6il2cpp2vm9Parameter30GetDefaultParameterValueObjectEPK10MethodInfoPK13ParameterInfoPb
LUk:_UTF8Encoding_GetByteCount_m4152118078
Rjj:_ServicePoint_set_UseNagleAlgorithm_m1374731041
fPk:_KeyPairPersistence__CanSecure_m3516574278
gb:invoke_iiiiiiiii
ejg:_MD5CryptoServiceProvider_Dispose_m3502499818
nQo:__ZN15dense_hashtableINSt3__24pairIK10KeyWrapperINS1_IPK9FieldInfoP11Il2CppClassEEEjEES9_17ReflectionMapHashIS8_EN14dense_hash_mapIS9_jSD_NS9_14EqualsComparerINS0_8equal_toIS8_EEEENS0_9allocatorISB_EEE9SelectKeyESI_SK_E21fill_range_with_emptyEPSB_SO_
bFl:_Array_InternalArray__set_Item_TisRaycastHit2D_t2279581989_m3076882241_gshared
iYa:__ZN12LightManager28IsLightTransformDataUpToDateEPK5Light
ipg:__Z38InternalEnumerator_1__ctor_m1424655733P31InternalEnumerator_1_t978588483P11Il2CppArrayPK10MethodInfo
PGg:__Z44InternalEnumerator_1_get_Current_m1655128652P32InternalEnumerator_1_t3186646106PK10MethodInfo
LI:__ZN7mecanim9animation9DenseClip8TransferI24GenerateTypeTreeTransferEEvRT_
cHd:_UNITY_tt_face_done_kern
zei:_ObjRef_GetObjectData_m270012899
xlg:_ArrayReadOnlyList_1_RemoveAt_m2104218585_gshared
fhk:_Array_InternalArray__IEnumerable_GetEnumerator_TisParameterModifier_t1461694466_m3675077728_gshared
WRp:_glStencilFuncSeparate__wrapper
bWb:__Z19scripting_gc_enablev
_Fg:_InternalEnumerator_1_get_Current_m2907722321_gshared
x8b:__ZZ23InitPlayerLoopCallbacksvEN41InitializationPlayerUpdateTimeRegistrator7ForwardEv
HRc:__ZN11UTF16StringC2ERKS_10MemLabelId
P_k:_TimeSpan_Equals_m3956248018_AdjustorThunk
bJg:_InternalEnumerator_1_get_Current_m3792939945_AdjustorThunk
ETd:__Z55Register_UnityEngine_CanvasRenderer_DisableRectClippingv
h$k:_TimeSpan_Subtract_m1264203589_AdjustorThunk
Qld:__ZN19OverlapPointQuery2D14InitializeAABBER6b2AABB
djm:_Enumerator_MoveNext_m1619775188_gshared
Mtg:_InternalEnumerator_1_System_Collections_IEnumerator_get_Current_m888718134_gshared
Gbl:__Z175RuntimeInvoker_Void_t1185182177_SByte_t1669577662_SByte_t1669577662_SByte_t1669577662_SByte_t1669577662_SByte_t1669577662_SByte_t1669577662_SByte_t1669577662_SByte_t1669577662PFvvEPK10MethodInfoPvPS4_
jkk:_Array_compare_TisRaycastResult_t3360306849_m822404090_gshared
mJh:_Object_Destroy_m3118546832
ZNm:_ReadOnlyCollection_1_System_Collections_Generic_IListU3CTU3E_set_Item_m519295790_gshared
Tyk:_String_IsNullOrEmpty_m2969720369
k7i:_DateTime_FromTicks_m4059645178_AdjustorThunk
k0h:_ConfigHandler_ParseTime_m1787834288
bK:__ZN15PackedIntVector8TransferI19StreamedBinaryWriteEEvRT_
O4d:__ZN9Scripting11UnityEngine5Video25VideoAudioOutputModeProxy12CleanupProxyEv
aLj:_Assembly_Load_m3487507613
XV:__ZNSt3__27__sort4IRNS_6__lessIN4core12basic_stringIcNS2_20StringStorageDefaultIcEEEES6_EEPS6_EEjT0_SA_SA_SA_T_
IKp:dynCall_viiiifii
EYo:__ZN6il2cpp2gc19AppendOnlyGCHashMapINSt3__24pairIPK11Il2CppImageP11Il2CppClassEEP22Il2CppReflectionModule17ReflectionMapHashIS9_ENS2_8equal_toIS9_EEEC2Ev
rka:__Z20GetPersistentManagerv
nKd:_UNITY_TT_Set_Var_Design
Hfa:__ZN21SystemInfoStringCache16StaticInitializeEPv
Lgj:_NameObjectCollectionBase_FindFirstMatchedItem_m840305173
AOm:_ReadOnlyCollection_1_System_Collections_Generic_ICollectionU3CTU3E_Remove_m1100818788_gshared
Rvc:__ZNSt3__26vectorIN9ShaderLab20SerializedSubProgram15StructParameterENS_9allocatorIS3_EEE6assignIPS3_EENS_9enable_ifIXaasr21__is_forward_iteratorIT_EE5valuesr16is_constructibleIS3_NS_15iterator_traitsISA_E9referenceEEE5valueEvE4typeESA_SA_
Q4h:__ZN23GenericVirtFuncInvoker0I19TimeSpan_t881159249E6InvokeEPK10MethodInfoP12Il2CppObject
LTb:__ZNK13MonoBehaviour7GetNameEv
C3h:_SynchronizedClientContextSink_AsyncProcessMessage_m3574843998
Fbm:__Z58Enumerator_System_Collections_IEnumerator_Reset_m959124362P22Enumerator_t2146457487PK10MethodInfo
kY:__Z15_CheckFMODError11FMOD_RESULTPKciS1_
$7o:__ZN6il2cpp6icalls8mscorlib6SystemL16ThrowInvalidCastEPK11Il2CppClassS5_
Nhg:_HMAC_KeySetup_m661741544
Jdp:__ZN6il2cpp2vm5Field11SetValueRawEPK10Il2CppTypePvS5_b
qSk:_Latin1Encoding__ctor_m498920120
yQn:__Z23List_1__ctor_m543375097P18List_1_t2651900714PK10MethodInfo
K9j:_StreamReader_Peek_m2272511193
WZj:_DateTimeFormatInfo_FillAllDateTimePatterns_m2683124783
YSd:__Z51Register_UnityEngine_CanvasGroup_get_blocksRaycastsv
cBj:_NumberFormatter_get_IsFloatingSource_m3714711779
Usg:_InternalEnumerator_1_System_Collections_IEnumerator_Reset_m169899350_AdjustorThunk
b1k:_Type_GetConstructor_m1195697116
Ui:_glBeginQuery
Hch:__Z70Component_GetComponentsInChildren_TisComponent_t1923634451_m1156099783P21Component_t1923634451P18List_1_t3395709193PK10MethodInfo
kyn:_Comparison_1_Invoke_m568154215_gshared
FR:__ZN18AnimatorController19TransferRuntimeDataI24GenerateTypeTreeTransferEEvRT_
Cud:__ZN10Effector2D25CheckEffectorColliderMaskEP10Collider2DS1_
tac:__ZN6Camera12RenderStereoENS_10RenderFlagE8CullFlagPNS_24PerformEyeRenderFunctionE
Mub:__ZN20LocalFileSystemPosix10ToAbsoluteEPKc
FRp:b111
Kpb:__Z23CollectSceneGameObjectsR13dynamic_arrayIiLj0EE
Ipp:__ZN6il2cpp2vm13ComObjectBase16DisconnectObjectEj
LO:__ZN14AnimationState19SetupUnstoppedStateEv
bFp:_getcwd
tjd:__ZN16b2CapsuleContact6CreateEP9b2FixtureiS1_iP16b2BlockAllocator
oLa:__ZN25ThreadsafeLinearAllocatorD2Ev
aBf:_ILGenerator_Emit_m3083135129
ARc:__ZL50GetAndClearChangedTransformsForMultilpleSystemsJobP45GetChangedTransformsForMultipleSystemsJobDatajPK23TransformAccessReadOnlyPKyj
Lob:__Z21SendMessageToEveryoneRK17MessageIdentifier11MessageData
Oqa:__ZN21BillboardBatchManager16StaticInitializeEPv
E0i:_DateTime_AbsoluteDays_m4235097773
_ha:__ZN12_GLOBAL__N_138ArchiveRedirectFileSystemStaticDestroyEPv
P6k:__Z74RuntimeInvoker_RuntimeObject_RuntimeObject_RuntimeObject_SByte_t1669577662PFvvEPK10MethodInfoPvPS4_
Fte:_DefaultControls_CreateScrollView_m3842770629
fNp:_emscripten_glLoadIdentity__wrapper
uro:_Physics2D_Raycast_m1407159225
EQh:_Scene_GetNameInternal_m992487900
E5b:__Z23CreateSparseTextureGLES9TextureIDii14GraphicsFormati
DFd:_otv_Anchor_validate
J1:__ZN13dynamic_arrayI12SoundChannelLj0EE9push_backERKS0_
bvp:_GC_continue_reclaim
smd:__Z18AddCollisionReportP11Collision2DR13dynamic_arrayINS_15CollisionReportELj0EE
$Tj:_CCMath_mod_m3631663509
HCh:_Input_GetKeyDownString_m3760773871
f$k:_TimeSpan_Negate_m1889505500_AdjustorThunk
hSm:_ReadOnlyCollection_1_System_Collections_ICollection_CopyTo_m2715087453_gshared
Gp:__GLOBAL__sub_I_AIScriptingClasses_cpp
kyb:__ZN16MemoryFileSystemD0Ev
EYn:_AnalyticsEventTracker_Awake_m2780522130
xdd:__ZN5Unity9rapidjson12PrettyWriterI16TempBufferWriterNS0_4UTF8IcEES4_13JSONAllocatorE11WriteIndentEv
tgd:__ZNK12b2MotorJoint16GetReactionForceEf
$$o:_il2cpp_class_get_assemblyname
R5d:__ZN9Scripting11UnityEngine12Experimental2XR19ReferencePointProxy12CleanupProxyEv
Yuo:__ZN6il2cpp2vm5Class15GetEnumBaseTypeEP11Il2CppClass
IOi:_Context_set_WriteSequenceNumber_m942577065
Jl:_glVertexAttrib4fv
Ytj:_X509CertificateEnumerator_Reset_m4026698923
Gqp:__ZNK6il2cpp5utils13VmStringUtils23CaseInsensitiveComparerclERKNSt3__212basic_stringIcNS3_11char_traitsIcEENS3_9allocatorIcEEEEPKc
$me:_CanvasScaler_SetScaleFactor_m3006968999
p8a:__ZNK9Texture2D16GetNpotTexelSizeEv
cJj:_NumberFormatter_Init_m3576155222
Ivb:__ZL33FileEntryInfoListToFolderContentsRKN4core12basic_stringIcNS_20StringStorageDefaultIcEEEERK19dynamic_block_arrayI13FileEntryInfoLj32EERNSt3__23setIS3_NSB_4lessIS3_EENSB_9allocatorIS3_EEEE
Obh:_LayoutUtility_GetLayoutProperty_m714717302
qFo:__ZL30GetImageForTypeDefinitionIndexi
bAb:__ZN9GfxDevice22GetDefaultVertexBufferE26GfxDefaultVertexBufferTypej
xdk:_Array_InternalArray__ICollection_Contains_TisInt64_t3736567304_m2911357929_gshared
gXb:__Z17BeginSplashScreenb
ygp:__ZN15dense_hashtableINSt3__24pairIK10KeyWrapperIP12Il2CppObjectEN6il2cpp2gc9CachedCCWEEES5_NS7_5utils11PointerHashIS3_EEN14dense_hash_mapIS5_S9_SD_NS5_14EqualsComparerINS0_8equal_toIS4_EEEENS0_9allocatorISA_EEE9SelectKeyESI_SK_E15set_deleted_keyERKSA_
gHm:_Collection_1_Remove_m3022471627_gshared
yFp:___fseeko_unlocked
q7a:__ZN4crnd12crn_unpacker22decode_alpha_endpointsEv
EJj:_Object_ToString_m1740002499
oFp:_sscanf
Nne:__Z30IndexedSet_1_Clear_m4167420338P24IndexedSet_1_t3571286806PK10MethodInfo
qib:__ZN14SafeBinaryRead21TransferSTLStyleArrayINSt3__26vectorI17BlendShapeChannelNS1_9allocatorIS3_EEEEEEvRT_17TransferMetaFlags
yec:__ZN29RenderNodeQueuePrepareContextD2Ev
HFl:_Array_Resize_TisUILineInfo_t4195266810_m3763058392_gshared
$cg:_SByte_ToString_m3584531119_AdjustorThunk
$3a:__ZN10SpriteBone8TransferI24GenerateTypeTreeTransferEEvRT_
Loo:_SessionStateChanged_BeginInvoke_m1132835327
QMl:__Z28Enumerator__ctor_m1558933899P22Enumerator_t2013587906P24Dictionary_2_t1444694249PK10MethodInfo
MCi:_ModulusRing__ctor_m2420310199
W0i:_Convert_ToDateTime_m626620011
rdb:__ZN18StreamedBinaryRead21TransferSTLStyleArrayI13dynamic_arrayI26EnlightenSystemInformationLj0EEEEvRT_17TransferMetaFlags
NTg:_Enumerator_System_Collections_IDictionaryEnumerator_get_Key_m2500634048_AdjustorThunk
ML:__ZN7mecanim8skeleton16SkeletonPoseCopyIN4math4trsXENS2_7affineXEEEvPKNS0_13SkeletonPoseTIT_EEPNS5_IT0_EE
RJp:dynCall_vdd
e3b:__ZN18GfxFramebufferGLES18GetFramebufferNameERK20GfxRenderTargetSetup
Jup:_GC_print_block_list
j_o:__ZN6il2cpp2vm14TypeNameParser12ParseVersionERKNSt3__212basic_stringIcNS2_11char_traitsIcEENS2_9allocatorIcEEEERtSB_SB_SB_
j6g:_InputField_MoveDown_m1455948167
A3c:__Z30Event_Get_Custom_PropCharacterP12Il2CppObject
Bta:__ZN13PlayableGraph27SchedulePlayableDestructionERK9HPlayable
OEd:_cff_get_mm_var
ORp:_glGetFramebufferAttachmentParameteriv__wrapper
e$f:_ChannelServices_GetCurrentChannelInfo_m3041604116
wLf:__Z29il2cpp_codegen_marshal_stringP8String_t
JGg:_InternalEnumerator_1__ctor_m2635640285_AdjustorThunk
dIb:__Z22scripting_array_length17ScriptingArrayPtr
xtk:_Hash__ctor_m2891763106
bbk:_SynchronizedReader_Peek_m148942882
zal:__Z95RuntimeInvoker_Void_t1185182177_RuntimeObject_Int32_t2950945753_Int32_t2950945753_RuntimeObjectPFvvEPK10MethodInfoPvPS4_
dBn:_Predicate_1_Invoke_m2308795536_gshared
P3a:__ZN14SafeBinaryRead20TransferTypelessDataEjPvi
Igb:__ZN14SpriteRenderer18UpdateCachedSpriteEb
dMp:b34
Bkp:__ZN15dense_hashtableINSt3__24pairIK10KeyWrapperIPcES3_EES4_N6il2cpp5utils15PassThroughHashIS3_EEN14dense_hash_mapIS4_S3_SA_NS4_14EqualsComparerINS0_8equal_toIS3_EEEENS0_9allocatorIS6_EEE9SelectKeyESF_SH_E3endEv
_dd:__ZN9Scripting11UnityEngine19ParticleSystemProxy9InitProxyEv
ESa:__Z19GetActiveColorSpacev
Oza:__ZL54__ManagedRegistrationHelperFunction_RenderTextureProxyPv
xPf:_MonoMethodInfo_GetDeclaringType_m2924452727
Xbi:_RemotingSurrogate_SetObjectData_m2713731796
RIp:dynCall_fii
Fga:__Z6StrCmpPKcS0_
jBj:_NumberFormatter_AppendIntegerString_m2257376141
axo:_WWW_WaitUntilDoneIfPossible_m2855479680
Lzc:__Z21CheckGpuProgramUsable20ShaderGpuProgramType
bDc:__ZN13ProduceHelperI14Texture2DArrayLb0EE7ProduceE10MemLabelId18ObjectCreationMode
Mql:__Z69RuntimeInvoker_Void_t1185182177_Vector2_t2156229523_SByte_t1669577662PFvvEPK10MethodInfoPvPS4_
Xmp:__ZN6il2cpp2os9Directory20GetFileSystemEntriesERKNSt3__212basic_stringIcNS2_11char_traitsIcEENS2_9allocatorIcEEEESA_iiPi
Fpi:_Array_System_Collections_IList_Add_m1063688101
Fyd:__ZN20TextRenderingPrivate19NativeTextGenerator5SetupEv
FKo:__ZN6il2cpp6icalls8mscorlib6SystemL12GetFieldImplINS_5utils10functional6FilterINSt3__212basic_stringIcNS7_11char_traitsIcEENS7_9allocatorIcEEEENS4_13VmStringUtils23CaseInsensitiveComparerEEEEEP21Il2CppReflectionFieldP11Il2CppClassiRKT_
uic:__ZNK15SharedLightData24GetFinalShadowResolutionEv
Y3e:__ZL91GameObject_t1113636619_CustomAttributesCacheGenerator_GameObject_get_activeSelf_m1767405923P21CustomAttributesCache
pS:__ZN7mecanim12statemachine18TransitionConstant8TransferI18StreamedBinaryReadEEvRT_
NJc:__ZN10GameObject14CopyPropertiesERS_
_4c:__Z44Register_UnityEngine_GUIStyle_get_fixedWidthv
yek:_Array_InternalArray__ICollection_Remove_TisLink_t544317964_m1280781374_gshared
gsi:_BitConverter_DoubleWordsAreSwapped_m1474345095
Uql:__Z114RuntimeInvoker_Int32_t2950945753_Vector2_t2156229523_Vector2_t2156229523_ContactFilter2D_t3805203441_RuntimeObjectPFvvEPK10MethodInfoPvPS4_
Kxi:_FixedSizeArrayListWrapper_set_Capacity_m4221053039
WFp:_rand
qSp:_emscripten_glFramebufferRenderbuffer__wrapper
POc:__ZN13MeshScripting10CreateMeshE21ScriptingObjectOfTypeI4MeshE
gMp:b37
Ry:__ZN17AnimationPlayable22PrepareAnimationEventsEfR13dynamic_arrayI22AnimationClipEventInfoLj0EE
$Ib:__ZN14SafeBinaryRead21TransferSTLStyleArrayINSt3__26vectorI17AnimationCurveTplIfE13stl_allocatorIS4_L18MemLabelIdentifier1ELi16EEEEEEvRT_17TransferMetaFlags
tyi:_SynchronizedArrayListWrapper_Contains_m3809499313
ZRi:_HandshakeMessage_Compare_m2214647946
Lek:_Array_InternalArray__ICollection_Remove_TisLabelData_t360167391_m3556246844_gshared
Sxo:__ZN15dense_hashtableINSt3__24pairIK10KeyWrapperIPK11Il2CppClassEPKcEES6_N6il2cpp5utils11PointerHashIS3_EEN14dense_hash_mapIS6_S9_SE_NS6_14EqualsComparerINS0_8equal_toIS5_EEEENS0_9allocatorISA_EEE9SelectKeyESJ_SL_E9set_valueEPSA_RKSA_
ATo:__ZN15dense_hashtableINSt3__24pairIK10KeyWrapperINS1_IPK11Il2CppImageP11Il2CppClassEEEjEES9_17ReflectionMapHashIS8_EN14dense_hash_mapIS9_jSD_NS9_14EqualsComparerINS0_8equal_toIS8_EEEENS0_9allocatorISB_EEE9SelectKeyESI_SK_E12expand_arrayEjN21dense_hash_map_traits17integral_constantIbLb0EEE
fig:_HMACSHA256__ctor_m346174875
pvh:_Color_op_Multiply_m2887457390
Skc:__Z22PrepareOptimizedPlanesPK5PlaneiPKN4math7_float4E
vNm:_Collection_1_Add_m994297629_gshared
$ba:__ZN11UnityEngine15CloudWebService17WebFileDownloaderINS0_20WebRequestRestClientENS0_23WebRequestRestHeaderMapEE10InitializeERKN4core12basic_stringIcNS5_20StringStorageDefaultIcEEEE
Mqa:__ZN17UniqueIDGenerator15CreatePureIndexEv
v5c:__Z59Register_UnityEngine_GUIStyle_Internal_GetCursorFlashOffsetv
A5d:__ZL54__ManagedRegistrationHelperFunction_TrackingStateProxyPv
uCc:__Z48InitializeRectTransformAnimationBindingInterfacev
jAm:__Z59Enumerator_System_Collections_IEnumerator_Reset_m2261065994P22Enumerator_t1862690208PK10MethodInfo
XR:__ZN15SerializeTraitsI9OffsetPtrIN7mecanim8skeleton12SkeletonMaskEEE8TransferI24GenerateTypeTreeTransferEEvRS4_RT_
B8k:__Z114RuntimeInvoker_Int32_t2950945753_RuntimeObject_Int32_t2950945753_RuntimeObject_Int32_t2950945753_Int32_t2950945753PFvvEPK10MethodInfoPvPS4_
Nto:__ZN15dense_hashtableINSt3__24pairIK10KeyWrapperIPK22Il2CppGenericParameterEP11Il2CppClassEES6_N6il2cpp5utils11PointerHashIS4_EEN14dense_hash_mapIS6_S9_SE_NS6_14EqualsComparerINS0_8equal_toIS5_EEEENS0_9allocatorISA_EEE9SelectKeyESJ_SL_E14squash_deletedEv
i0a:__ZN9ShaderLabL27GetDesiredRenderTextureDescEPK6Camera
Phd:__ZNK12b2MouseJoint17GetReactionTorqueEf
HDl:_Array_InternalArray__Insert_TisMark_t3471605523_m2854535880_gshared
kOc:__ZN4Mesh24UpdateSubMeshVertexRangeEi
E1c:__Z14GUIClipTextureP9Texture2DPhiiii
Ngf:__ZL52HumanBone_t2465339518_CustomAttributesCacheGeneratorP21CustomAttributesCache
OZa:__ZN13RenderTexture21FixInvalidDescOptionsER17RenderTextureDesc
KGm:__ZN18VirtActionInvoker2Ii19Color32_t2600501292E6InvokeEjP12Il2CppObjectiS0_
Scf:__ZL81Scene_t2348375561_CustomAttributesCacheGenerator_Scene_GetNameInternal_m992487900P21CustomAttributesCache
bbi:_MethodReturnDictionary__cctor_m278392388
vcc:__ZNK9Transform18TransformDirectionERK8Vector3f
iZm:_SslStreamBase_get_CanWrite_m1622082918
bsf:__ZL80CanvasScaler_t2767979955_CustomAttributesCacheGenerator_m_ReferencePixelsPerUnitP21CustomAttributesCache
oFd:_otv_MarkLigPos_validate
MLk:_PrimalityTests_RabinMillerTest_m1471415870
ucm:_Enumerator_MoveNext_m2114485647_gshared
Zyf:_GenericTypeParameterBuilder_GetCustomAttributes_m580748276
xjl:__Z75RuntimeInvoker_TimeSpan_t881159249_DateTime_t3738529785_TimeSpan_t881159249PFvvEPK10MethodInfoPvPS4_
Ell:__Z81RuntimeInvoker_Void_t1185182177_RuntimeObject_SByte_t1669577662_Int32_t2950945753PFvvEPK10MethodInfoPvPS4_
tOd:__GLOBAL__sub_I_External_Yoga_Yoga_0_cpp
WCi:_Kernel_LeftShift_m4140742987
KKj:_Assembly_GetManifestResourceInternal_m1224391897
pTa:__Z30AddDefaultStreamsToMeshBuffersR9GfxDeviceR11MeshBuffersj17ShaderChannelMaskS3_
vha:__ZL16GetInterfaceImpl18UnityInterfaceGUID
vI:__ZNSt3__26vectorIN13AnimationClip15QuaternionCurveE13stl_allocatorIS2_L18MemLabelIdentifier26ELi16EEE10deallocateEv
p8:__ZNSt3__27__sort4IR14SortByHashPredI13FileEntryInfoN11UnityEngine15CloudWebService14DataDispatcher6HasherEEPS2_EEjT0_SA_SA_SA_T_
qqp:__ZN6il2cpp6icalls8mscorlib6System15MonoCustomAttrs27GetCustomAttributesInternalEP12Il2CppObjectP20Il2CppReflectionTypeb
Vb:invoke_viifi
KKd:_UNITY_TT_Set_MM_Blend
NXb:__ZN14PreloadManager35WaitForAllAsyncOperationsToCompleteEv
Jia:__ZNSt3__26__treeINS_12__value_typeIPKc11ShaderTagIDEENS_19__map_value_compareIS3_S5_27compare_tstring_insensitiveIS3_ELb1EEENS_9allocatorIS5_EEE7destroyEPNS_11__tree_nodeIS5_PvEE
gY:__ZL31InitializeAudioScriptingClassesv
Qbc:__Z14SortGUIByDepthP10GUIElementS0_
DSb:__Z19TransferField_ArrayI18StreamedBinaryRead16Converter_StringEvRK23StaticTransferFieldInfoR31RuntimeSerializationCommandInfoRT0_
p4c:__Z42GUIStyle_CUSTOM_set_contentOffset_InjectedP12Il2CppObjectRK8Vector2f
axn:_UriParser__cctor_m3655686731
Bbh:_LayoutRebuilder_U3Cs_RebuildersU3Em__0_m589488547
$Ip:dynCall_ii
mvb:__ZNK20LocalFileSystemPosix21GetAvailableDiskSpaceEPKcRy
SV:__ZNSt3__26__treeIiNS_4lessIiEENS_9allocatorIiEEE7destroyEPNS_11__tree_nodeIiPvEE
mHf:__ZN31OpCodes_t126150456_StaticFields13set_Ldc_R8_35E17OpCode_t123070264
Ozb:__ZNK9GfxDevice14GetWorldMatrixEv
lTa:__Z30ExtractMeshBuffersAndDrawRangeR11MeshBuffersR16DrawBuffersRangeRK9GfxDeviceRK17MeshRenderingData16VertexInputMasksib
oUh:_Transform_set_parent_m786917804
i8n:_AudioSampleProvider_InternalSetScriptingPtr_m3742743270
pph:_Slider_get_value_m739683640
aCa:__Z19scripting_array_new17ScriptingClassPtrjj
U2i:_Convert_ToInt32_m2128774575
C1:__ZN11SoundHandle13CreateChannelEb
Osb:__Z30CreateBoxedObjectFromPrimitivei
uwc:__ZNSt3__26vectorIN9ShaderLab20SerializedSubProgram16TextureParameterENS_9allocatorIS3_EEE6assignIPS3_EENS_9enable_ifIXaasr21__is_forward_iteratorIT_EE5valuesr16is_constructibleIS3_NS_15iterator_traitsISA_E9referenceEEE5valueEvE4typeESA_SA_
gra:__Z30CreateBoxedObjectFromPrimitiveb
tOc:__ZNSt3__26vectorIj13stl_allocatorIjL18MemLabelIdentifier1ELi16EEE6assignIPKjEENS_9enable_ifIXaasr21__is_forward_iteratorIT_EE5valuesr16is_constructibleIjNS_15iterator_traitsIS9_E9referenceEEE5valueEvE4typeES9_S9_
mkf:__ZL104Physics2D_t1528932956_CustomAttributesCacheGenerator_Physics2D_GetRayIntersectionAll_Internal_m643548862P21CustomAttributesCache
GXo:__ZN15dense_hashtableINSt3__24pairIK10KeyWrapperIPK22Il2CppGenericParameterEPK24MonoGenericParameterInfoEES6_N6il2cpp5utils11PointerHashIS4_EEN14dense_hash_mapIS6_SA_SF_NS6_14EqualsComparerINS0_8equal_toIS5_EEEENS0_9allocatorISB_EEE9SelectKeyESK_SM_E15set_deleted_keyERKSB_
Zcg:_SByte_TryParse_m2431806379
nYk:_Thread_set_IsBackground_m3868016371
PYa:__ZN6prcoreL11inner_clearILj2EEEvPhjjj
eon:_PatternCompiler_EmitSub_m193323684
Dgg:_DSACryptoServiceProvider_get_KeySize_m786836990
jhd:__ZN12b2WheelJoint24SolvePositionConstraintsERK12b2SolverData
Zyp:___cxx_global_var_init_1_44623
We:_emscripten_exit_fullscreen
SGl:_Array_qsort_TisBoolean_t97287965_TisBoolean_t97287965_m214793583_gshared
qam:_Enumerator_System_Collections_IEnumerator_Reset_m1564381721_gshared
ACc:__ZZL31RegisterRectTransformPropertiesR22GenericPropertyBindingEN39Wrapper_RectTransformAnchoredPositiony113GetFloatValueEPv
sJj:_Object_MemberwiseClone_m1474068832
klp:__ZN6il2cpp6icalls8mscorlib6System6String19InternalAllocateStrEi
K2c:__ZN18MultiFrameGUIState18SetKeyboardControlEi
hVc:__Z45Register_UnityEngine_Camera_get_targetDisplayv
IGc:__ZNK24RendererAnimationBinding15GenerateBindingERKN4core12basic_stringIcNS0_20StringStorageDefaultIcEEEEbRN11UnityEngine9Animation14GenericBindingE
klj:_IPv6Address__ctor_m3704187391
zbm:__Z34Enumerator_VerifyState_m2933667029P22Enumerator_t2146457487PK10MethodInfo
gYa:__Z15GetFlareManagerv
Pl:_llvm_ceil_f32
Yu:__ZN8Animator13GetAvatarRootEv
j6c:__GLOBAL__sub_I_InputScriptingClasses_cpp
mlk:_Array_InternalArray__ICollection_Add_TisResourceCacheItem_t51292791_m3851804827_gshared
aDp:___toread
wVb:__ZNSt3__26vectorI10vector_mapIiiNS_4lessIiEE13stl_allocatorINS_4pairIiiEEL18MemLabelIdentifier38ELi16EEES4_IS9_LS7_38ELi16EEE26__swap_out_circular_bufferERNS_14__split_bufferIS9_RSA_EE
kCi:_BigInteger_get_Rng_m3283260184
GU:__ZN8Animator22ScriptingStringToCRC32ERK11ICallString
FM:__ZN7mecanim9animation16EvaluateAvatarDXEPKNS0_14AvatarConstantEPKNS0_11AvatarInputEPNS0_12AvatarMemoryEPNS0_15AvatarWorkspaceEPNS0_12AvatarOutputE
Yhe:_RaycastResult_ToString_m2678663776_AdjustorThunk
ZJl:_Array_InternalArray__get_Item_TisKeyValuePair_2_t2530217319_m2886833132_gshared
_kh:_ScrollRect_OnEndDrag_m3202230060
Q_c:__Z34Transform_CUSTOM_SetAsFirstSiblingP12Il2CppObject
POo:__ZNK15dense_hashtableINSt3__24pairIK10KeyWrapperINS1_IPK14Il2CppAssemblyP11Il2CppClassEEEjEES9_17ReflectionMapHashIS8_EN14dense_hash_mapIS9_jSD_NS9_14EqualsComparerINS0_8equal_toIS8_EEEENS0_9allocatorISB_EEE9SelectKeyESI_SK_E10test_emptyEj
f6g:_InputField_Delete_m3471899192
lVh:_RemotingConfiguration_get_ProcessId_m2180277012
x8:__ZN11UnityEngine15CloudWebService17SessionEventQueue14ParseEventDataERKN4core12basic_stringIcNS2_20StringStorageDefaultIcEEEE
Ogb:__ZThn356_N14SpriteRendererD1Ev
X1b:__ZN13TranslateGLES4InitERK12GraphicsCaps16GfxDeviceLevelGL
bDj:_Int64_System_IConvertible_ToUInt16_m848637338_AdjustorThunk
W_d:__Z32CustomEventData_CUSTOM_AddUInt32P12Il2CppObjectP12Il2CppStringj
Dwn:_Uri_get_PathAndQuery_m2396197970
Zik:_Array_InternalArray__IndexOf_TisLink_t544317964_m455584088_gshared
VW:__ZN9Scripting11UnityEngine14AudioClipProxy9InitProxyEv
WRm:_ReadOnlyCollection_1_IndexOf_m2539022912_gshared
gBd:__ZN20TextRenderingPrivate7GUIText23VirtualRedirectTransferER17RemapPPtrTransfer
jrf:__ZL66Selectable_t3250028441_CustomAttributesCacheGenerator_m_TransitionP21CustomAttributesCache
kAp:__ZN6il2cpp2os6Memory12AlignedAllocEjj
rsd:__ZN20SpriteTilingProperty8TransferI19StreamedBinaryWriteEEvRT_
x9c:__ZN9JSONWrite8TransferI13dynamic_arrayIN4math12int3_storageELj0EEEEvRT_PKc17TransferMetaFlags
Mqh:_Text_set_alignByGeometry_m3828822280
eQo:__ZN15dense_hashtableINSt3__24pairIK10KeyWrapperINS1_IPK9FieldInfoP11Il2CppClassEEEjEES9_17ReflectionMapHashIS8_EN14dense_hash_mapIS9_jSD_NS9_14EqualsComparerINS0_8equal_toIS8_EEEENS0_9allocatorISB_EEE9SelectKeyESI_SK_E9copy_fromERKSN_j
Aej:_HybridDictionary__ctor_m1681134385
OOa:__ZN21ScalableBufferManager11GetInstanceEv
qKc:__ZN18BackgroundJobQueue19ScheduleJobInternalEPFvPvES0_RKNS_8JobFenceEN8JobQueue16JobQueuePriorityE
ahp:__ZNSt3__218uninitialized_fillIPNS_4pairIK10KeyWrapperIP12Il2CppObjectEN6il2cpp2gc9CachedCCWEEESA_EEvT_SC_RKT0_
p$k:_TimeSpan_op_LessThan_m1594498345
tSc:__ZL27GetComponentsImplementationILb0ELi0EEbR10GameObjectbRK17CompareParametersRK39GetComponentsImplementation_ReturnValue
y7m:_Event_GetHashCode_m3559153592
xUb:__ZN9Scripting36IsSystemCollectionsGenericDictionaryE17ScriptingClassPtr
gHn:_UnityEvent_1_FindMethod_Impl_m322741469_gshared
iFp:___ofl_unlock
qIh:__Z31Enumerator_MoveNext_m1050804954P22Enumerator_t2017297076PK10MethodInfo
r9m:_TextEditor_SelectCurrentWord_m2393978600
E3d:__Z54Register_UnityEngine_Networking_UnityWebRequest_Createv
Cna:__ZL16ReadTypeTreeImplILb0EEbR8TypeTreeRK16TypeTreeIteratorRPKhS6_i
tln:_Interval_Contains_m110351300_AdjustorThunk
N2i:_Convert_ToInt32_m3048308591
nv:__ZN25RuntimeAnimatorControllerD2Ev
Qgh:_RectMask2D_OnCanvasHierarchyChanged_m3195492255
A8i:_DateTimeOffset_Equals_m3030958070
JXa:__ZNK22BuiltinResourceManager21GetResourceInstanceIDEPKN5Unity4TypeERKN4core12basic_stringIcNS4_20StringStorageDefaultIcEEEE
yZc:__Z42Register_UnityEngine_RectOffset_set_bottomv
CZn:_AnalyticsTracker_BuildParameters_m43920649
h4c:__Z28GUIStyleState_CUSTOM_CleanupP12Il2CppObject
jZj:_DateTimeFormatInfo_GetMonthName_m2034512315
Udc:__ZN28LightProbeProxyVolumeContext8CopyFromERKS_
HSm:_ReadOnlyCollection_1_System_Collections_Generic_IListU3CTU3E_Insert_m2489506856_gshared
NNa:__ZN23TransformChangeDispatch32QueueTransformChangeIfHasChangedER18TransformHierarchy
IFg:__Z75InternalEnumerator_1_System_Collections_IEnumerator_get_Current_m2102877703P32InternalEnumerator_1_t1012836222PK10MethodInfo
FUg:__Z26Enumerator_Reset_m54102781P21Enumerator_t934104361PK10MethodInfo
qFh:_Matrix4x4_MultiplyPoint_m1575665487
brl:__Z105RuntimeInvoker_RuntimeObject_Vector3_t3722313464_Vector3_t3722313464_Single_t1397266774_Int32_t2950945753PFvvEPK10MethodInfoPvPS4_
E4b:__ZN7ApiGLES18DeleteRenderbufferERj
Q3b:__ZL23ProgramUniformMatrix4fvPK7ApiGLESjiihPKv
OZb:__ZN7ApiGLES13CreateTextureEjj14GraphicsFormatiiiii
kOl:__Z34Enumerator_get_Current_m1054301626P22Enumerator_t3843782539PK10MethodInfo
bwc:__ZN9ShaderLab20SerializedSubProgram15MatrixParameter8TransferI14SafeBinaryReadEEvRT_
mRp:_emscripten_glUniform2i__wrapper
vSc:__ZL27GetComponentsImplementationILb0ELi1EEbR10GameObjectbRK17CompareParametersRK39GetComponentsImplementation_ReturnValue
osj:_X509Store__ctor_m275383717
NJk:_SimpleCollator_LastIndexOfOrdinalIgnoreCase_m2984667899
TJd:_Round_Down_To_Grid
jQa:__ZN13RenderTexture7ReleaseEv
TEa:__ZN9Scripting11UnityEngine12Hash128Proxy12CleanupProxyEv
S9c:__Z18Transfer_BlittableI8JSONReadLb1EN4math12int3_storageEEvRK29SerializationCommandArgumentsR31RuntimeSerializationCommandInfo
hgb:__ZN10MeshFilter23VirtualRedirectTransferER14SafeBinaryRead
LE:__ZN7mecanim9animation18ClipMuscleConstant8TransferI8BlobSizeEEvRT_
Zji:_X509CertificateEnumerator_MoveNext_m2269241175
Ejb:__ZN12MeshRenderer17MainThreadCleanupEv
Wxg:__Z74InternalEnumerator_1_System_Collections_IEnumerator_get_Current_m782232053P31InternalEnumerator_1_t715526830PK10MethodInfo
kEb:__ZN22CreateGpuProgramOutput12CreateParamsEv
pZ:__ZN10ObjectPoolIN4FMOD7ChannelENS0_8ChannelIEE7GetFreeEi
TQj:_DynamicMethod_IsDefined_m2556354904
Yug:_InternalEnumerator_1_System_Collections_IEnumerator_get_Current_m548105685_gshared
N1b:__ZNK14GfxContextGLES13GetDefaultFBOEv
pti:_Byte_System_IConvertible_ToType_m2251112646
qXc:__Z55Register_UnityEngine_MonoBehaviour_StopCoroutineManagedv
o7i:_DateTime_get_Hour_m4153505178_AdjustorThunk
P6n:_AudioExtensionManager_WriteExtensionProperties_m3028464154
htk:_Evidence_Equals_m1478353107
rNc:__Z13GetImagePixelI10ColorRGBAfET_PKhii13TextureFormat15TextureWrapModeS5_ii
hrm:_List_1_System_Collections_IList_set_Item_m1842844683_gshared
Pdc:__ZN19SharedRendererSceneC2E10MemLabelId
CYj:_CultureInfo_construct_datetime_format_m1928121315
PZb:__ZNK13TranslateGLES25GetTextureTargetDimensionEj
XPm:_ReadOnlyCollection_1_System_Collections_IList_Remove_m1842121503_gshared
yKh:_PlayableHandle_Equals_m2546735654
Rga:__ZN9profiling27GetBuiltinCategoryRgbaColorEt
vhb:__Z16SnapToPixelSpaceRK8Vector3f
CRj:_File_OpenRead_m2936789020
tja:__ZN9Scripting12LogExceptionE21ScriptingExceptionPtriPKcb
kol:__Z94RuntimeInvoker_Void_t1185182177_RuntimeObject_PlayableGraph_t3515989261_RuntimeObject_IntPtr_tPFvvEPK10MethodInfoPvPS4_
fi:_emscripten_glVertexAttrib4f
TJb:__ZN14SafeBinaryRead21TransferSTLStyleArrayI13dynamic_arrayIN4math12int3_storageELj0EEEEvRT_17TransferMetaFlags
ERb:__Z19TransferField_ArrayI18StreamedBinaryRead27Converter_UnityEngineObjectEvRK23StaticTransferFieldInfoR31RuntimeSerializationCommandInfoRT0_
EJg:_InternalEnumerator_1_System_Collections_IEnumerator_Reset_m4072625129_AdjustorThunk
Ltj:_X509CertificateCollection_AddRange_m3683116910
f3c:__ZN10GUIUtility22Internal_GetHotControlEv
x9m:_TextEditor_SelectToPosition_m2765508349
OZh:_SinkProviderData__ctor_m1624738837
Ajl:__Z88RuntimeInvoker_RuntimeObject_RuntimeObject_SByte_t1669577662_RuntimeObject_RuntimeObjectPFvvEPK10MethodInfoPvPS4_
ENj:_CustomAttributeTypedArgument_Equals_m2261980307
O2a:__ZN19ShaderPropertySheet24SetTextureScaleAndOffsetERK23FastTexturePropertyName8Vector2fS3_
$Jl:_Array_InternalArray__get_Item_TisLink_t544317964_m1669566993_gshared
KBb:__ZN9GfxDevice18SetGlobalDepthBiasEff
jKo:__ZN6il2cpp6icalls8mscorlib6System8MonoType12get_AssemblyEP20Il2CppReflectionType
s7j:_IsolatedStorageException__ctor_m3386787868
RUa:__ZN14SharedMeshData22ClearCachedBoneWeightsEv
aql:__Z106RuntimeInvoker_Void_t1185182177_Rect_t2360479859_Vector2_t2156229523_Vector2_t2156229523_SByte_t1669577662PFvvEPK10MethodInfoPvPS4_
Fg:_emscripten_glGetPointerv
BIl:_Dictionary_2_Do_CopyTo_TisKeyValuePair_2_t3842366416_TisRuntimeObject_m1564656153_gshared
mM:__ZN8Animator22ApplyBuiltinRootMotionEv
tep:__ZN15dense_hashtableI10KeyWrapperIP18Il2CppGenericClassES3_N6il2cpp8metadata22Il2CppGenericClassHashEN14dense_hash_setIS3_S6_NS3_14EqualsComparerINS5_25Il2CppGenericClassCompareEEENSt3__29allocatorIS3_EEE8IdentityESA_SD_E5clearEv
WWb:__Z26ApplyMaterialPassWithCacheRK18SharedMaterialDataR17ShaderPassContextP6ShaderPN9ShaderLab4PassEibPKNS6_10GrabPassesEPNS6_11SubProgramsEPK22DeviceRenderStateBlock
K2e:__ZL81Camera_t4157153871_CustomAttributesCacheGenerator_Camera_RaycastTry2D_m2460696262P21CustomAttributesCache
vSh:_StackTraceUtility_SetProjectFolder_m830524047
DIj:_MulticastDelegate_KPM_m22863605
rDg:_InternalEnumerator_1_get_Current_m1897120917_AdjustorThunk
SHj:_MonoType_ReorderParamArrayArguments_m2458683451
o1f:_FormatterConverter_ToInt16_m4282804414
Hfl:__Z81RuntimeInvoker_Void_t1185182177_Int64_t3736567304_RuntimeObject_Int64_t3736567304PFvvEPK10MethodInfoPvPS4_
qje:_StandaloneInputModule_ProcessTouchPress_m4019232747
RRj:_FileStream__ctor_m3151488352
Wqi:_Array_swap_m547389985
_db:__ZN8Renderer23VirtualRedirectTransferER14SafeBinaryRead
H3k:_UInt32_ToString_m2420423038
Jnm:_List_1_System_Collections_IList_Add_m634558835_gshared
u5j:_FileStream_get_Length_m426703983
$wo:_WWW_get_text_m898164367
PMl:_Enumerator__ctor_m1558933899_AdjustorThunk
ovo:__ZN6il2cpp2vmL15GetBitmapNoInitEP11Il2CppClassPjRjj
ijm:__Z31Enumerator_MoveNext_m1619775188P21Enumerator_t246177295PK10MethodInfo
NX:__ZN12AudioManager5ResetEv
c2e:__ZL68DisallowMultipleComponent_t1422053217_CustomAttributesCacheGeneratorP21CustomAttributesCache
qxa:__ZN6prcoreL17RemapGenericFloatI17TexFormatRGBAHalf15TexFormatRGHalfEEvPKNS_9InnerInfoE
ZNl:_Enumerator_System_Collections_IEnumerator_get_Current_m183009269_AdjustorThunk
oXo:__ZNK15dense_hashtableINSt3__24pairIK10KeyWrapperIPK14Il2CppAssemblyEPK22Il2CppMonoAssemblyNameEES6_N6il2cpp5utils11PointerHashIS4_EEN14dense_hash_mapIS6_SA_SF_NS6_14EqualsComparerINS0_8equal_toIS5_EEEENS0_9allocatorISB_EEE9SelectKeyESK_SM_E10test_emptyEj
knp:__ZN6il2cpp6icalls8mscorlib6System11Environment20GetWindowsFolderPathEi
Iz:__ZN7mecanim5human18HumanPoseBlendNodeERNS0_9HumanPoseEPS1_f
ODd:_UNITY_FT_RoundFix
_vp:_GC_is_heap_ptr
O0c:__ZN9Scripting11UnityEngine8GUIProxy12CleanupProxyEv
dI:__Z14resize_trimmedINSt3__26vectorI24CompressedAnimationCurve13stl_allocatorIS2_L18MemLabelIdentifier26ELi16EEEEEvRT_j
zMk:_ASN1_DecodeTLV_m1200977460
gAh:_UnityEventBase_PrepareInvoke_m1785382128
qHm:_Collection_1_IsSynchronized_m4171956644_gshared
Gjb:__ZNK12MeshRenderer22GetTypeVirtualInternalEv
Yui:_Char_System_IConvertible_ToUInt32_m3901815580
jmh:_Scrollbar_set_onValueChanged_m346467699
Mtd:__ZN13ProduceHelperI13BoxCollider2DLb0EE7ProduceE10MemLabelId18ObjectCreationMode
bpe:_ColorBlock_set_disabledColor_m2996580094
nil:__Z157RuntimeInvoker_Int32_t2950945753_RuntimeObject_Int32_t2950945753_Int32_t2950945753_Int32_t2950945753_SByte_t1669577662_SByte_t1669577662_Int32U26_t1369213839PFvvEPK10MethodInfoPvPS4_
sti:_Byte_System_IConvertible_ToBoolean_m2888023769_AdjustorThunk
BUc:__Z32Behaviour_Get_Custom_PropEnabledP12Il2CppObject
cUh:_Transform_set_localPosition_Injected_m2951700666
TEp:_write
d1a:__ZN14SafeBinaryRead19TransferSTLStyleMapINSt3__23mapIN4core12basic_stringIcNS3_20StringStorageDefaultIcEEEES7_NS1_4lessIS7_EE13stl_allocatorINS1_4pairIKS7_S7_EEL18MemLabelIdentifier1ELi16EEEEEEvRT_17TransferMetaFlags
kBa:__ZL51__ManagedRegistrationHelperFunction_QuaternionProxyPv
TRd:__ZN2UI6Canvas27UpdateEventIndexesRecursiveERi
G8:__ZN11UnityEngine15CloudWebService16SessionContainer21PrepareDataErrorEventERN4core12basic_stringIcNS2_20StringStorageDefaultIcEEEE
wbe:_ExecuteEvents_get_pointerUpHandler_m3515704212
iwi:_ArrayList_set_Item_m2003485935
jop:__ZNSt3__218uninitialized_copyIPNS_4pairIK10KeyWrapperIPK19Il2CppGenericMethodEP10MethodInfoEESB_EET0_T_SD_SC_
uXf:_SatelliteContractVersionAttribute__ctor_m3630863995
Jhe:_MouseButtonEventData_PressedThisFrame_m1060658845
pQm:_ReadOnlyCollection_1_System_Collections_Generic_IListU3CTU3E_RemoveAt_m3969985996_gshared
o3n:_UnityWebRequest_SetUploadHandler_m2465141380
SOc:__Z28BuildSingleStreamChannelInfoP11ChannelInfo17ShaderChannelMaskS1_
uTp:_emscripten_glCopyTexSubImage2D__wrapper
wHh:_PlayerConnection_get_isConnected_m911966057
uBe:_GraphicRegistry_GetGraphicsForCanvas_m4219276355
iBj:_NumberFormatter_FastToDecHex_m699829267
Lnn:_PatternCompiler_MakeFlags_m1977119795
G9c:__Z35Transfer_Blittable_FixedBufferFieldI8JSONReadiEvRK29SerializationCommandArgumentsR31RuntimeSerializationCommandInfo
MIo:__ZNSt3__213__vector_baseIN6il2cpp2os19SocketHandleWrapperENS_9allocatorIS3_EEED2Ev
pJe:__ZL48_Type_t3588564251_CustomAttributesCacheGeneratorP21CustomAttributesCache
WTn:_dreamloPromoCode_GetSceneDreamloPromoCode_m2579867555
QLk:_BigInteger_GeneratePseudoPrime_m1941064930
oEn:_InvokableCall_1_Invoke_m4071643321_gshared
Jeb:__ZN28ReflectionProbeAnchorManager18RemoveCachedAnchorERK4PPtrI9TransformE
Sb:invoke_viiffi
Hqc:__ZN13sorted_vectorINSt3__24pairIN4core12basic_stringIcNS2_20StringStorageDefaultIcEEEEPK17MessageIdentifierEEN10vector_mapIS6_S9_NS0_4lessIS6_EENS0_9allocatorISA_EEE13value_compareESF_E10insert_oneERKSA_
mXf:_ResourceSet_ReadResources_m3663669011
vTa:__ZL13MeshExtractorPv16VertexInputMasksiR11MeshBuffersR16DrawBuffersRangeRiS5_
Z_k:_TimeSpan_FromHours_m1109641064
Ywc:__Z14resize_trimmedINSt3__26vectorIN9ShaderLab18SerializedPropertyENS0_9allocatorIS3_EEEEEvRT_j
kxg:__Z41InternalEnumerator_1_MoveNext_m2234422530P32InternalEnumerator_1_t1765566171PK10MethodInfo
f9d:_EventSystem_set_current_m38955169
Asd:__ZN13BoxCollider2D23VirtualRedirectTransferER18StreamedBinaryRead
GUg:_Enumerator_Reset_m54102781_gshared
hrf:__ZL53Selectable_t3250028441_CustomAttributesCacheGeneratorP21CustomAttributesCache
Zln:_CostDelegate_EndInvoke_m2797921932
b4a:__ZN10VertexData8TransferI24GenerateTypeTreeTransferEEvRT_
e1j:__ZN6Guid_t9set__k_10Eh
Gnp:__ZN13Il2CppHashMapIPK19Il2CppGenericMethodP10MethodInfoN6il2cpp8metadata23Il2CppGenericMethodHashENS6_26Il2CppGenericMethodCompareENSt3__29allocatorINS9_4pairIK10KeyWrapperIS2_ES4_EEEEEC2EjRKS7_RKS8_
bRh:_Screen_get_dpi_m495672463
KUk:_UTF8Encoding_InternalGetByteCount_m2120178851
qkc:__ZL10CullLightsRK22SceneCullingParametersR11CullResults
b5g:_InputField_SendOnSubmit_m3463846103
S4i:_Convert_ToUInt64_m3170916409
UA:__ZN7mecanim12statemachine20GetBlendTreeConstantERKNS0_13StateConstantEi
RCj:_Int64_System_IConvertible_ToInt16_m4062196970_AdjustorThunk
sIj:_MonoType_GetGenericTypeDefinition_m3201894896
VMc:__Z40GetTemporaryCachePathApplicationSpecificv
jAb:__ZN9GfxDevice16EndAsyncJobFrameEv
arl:__Z99RuntimeInvoker_Int32_t2950945753_Ray_t3785851493_RuntimeObject_Single_t1397266774_Int32_t2950945753PFvvEPK10MethodInfoPvPS4_
Q4n:_WWWForm_get_DefaultEncoding_m4131957975
yGd:_UNITY_tt_face_load_hhea
a$:__ZN12AudioManager27InitialCompleteDomainReloadEv
ue:___syscall3
Sql:__Z135RuntimeInvoker_RaycastHit2D_t2279581989_Vector2_t2156229523_Vector2_t2156229523_Single_t1397266774_Int32_t2950945753_Single_t1397266774PFvvEPK10MethodInfoPvPS4_
Ee:___syscall6
ye:___syscall4
kha:__ZN24ProfilerCallbacksHandler27RegisterCreateEventCallbackEPFvPK23UnityProfilerMarkerDescPvES3_
ici:_ReturnMessage__ctor_m2352989078
mKh:__ZN39PlayableBinding_t354260709_StaticFields21set_DefaultDuration_5Ed
G1m:_PKCS12_set_Password_m4088935795
fzb:__ZNSt3__26__treeINS_12__value_typeIN4core12basic_stringIcNS2_20StringStorageDefaultIcEEEEPN16MemoryFileSystem4NodeEEENS_19__map_value_compareIS6_SA_NS_4lessIS6_EELb1EEE13stl_allocatorISA_L18MemLabelIdentifier55ELi16EEE7destroyEPNS_11__tree_nodeISA_PvEE
xqh:__ZNK16Text_t190188271442get_m_DisableFontTextureRebuiltCallback_35Ev
qpl:__Z67RuntimeInvoker_Boolean_t97287965_TextGenerationSettings_t1351628751PFvvEPK10MethodInfoPvPS4_
yhp:__ZN6il2cpp2vm3RCW14QueryInterfaceILb1EEEP14Il2CppIUnknownP15Il2CppComObjectRK10Il2CppGuid
ZNi:_TlsServerCertificateRequest__ctor_m1334974076
jed:__ZN27PerformanceReportingManager23VirtualRedirectTransferER14SafeBinaryRead
It:__ZN9Scripting11UnityEngine30RuntimeAnimatorControllerProxy9InitProxyEv
Rhp:__ZN6il2cpp2vmL25InflatePropertyDefinitionEPK12PropertyInfoPS1_P11Il2CppClassP20Il2CppGenericContext
Q2i:_Convert_ToInt32_m1613163543
idh:_MatEntry__ctor_m1949610076
PPm:_ReadOnlyCollection_1_System_Collections_ICollection_CopyTo_m3127175806_gshared
rh:_emscripten_glShaderBinary
fuk:_String_op_Inequality_m215368492
K2k:_UInt16_ToString_m760649087
evb:__ZNK20LocalFileSystemPosix6ExistsERK13FileEntryData
EXi:_Queue_Dequeue_m2397857002
Kuh:_Camera_GetAllCameras_m668492922
GUd:__Z58Register_UnityEngine_Canvas_GetETC1SupportedCanvasMaterialv
o$k:_TimeSpan_op_Inequality_m2467851530
EGl:_Array_Sort_TisUIVertex_t4057497605_m3996333845_gshared
Akf:__ZL73ContactFilter2D_t3805203441_CustomAttributesCacheGenerator_maxNormalAngleP21CustomAttributesCache
uKf:__ZN31OpCodes_t126150456_StaticFields13set_Ldftn_205E17OpCode_t123070264
sri:_Swapper_BeginInvoke_m1688449973
wxh:_Display_get_renderingWidth_m1970428952
Qjl:__Z81RuntimeInvoker_Void_t1185182177_RuntimeObject_Int32_t2950945753_Int64_t3736567304PFvvEPK10MethodInfoPvPS4_
lyc:__ZN15SerializeTraitsI13dynamic_arrayIN9ShaderLab21SerializedBindChannelELj0EEE8TransferI19StreamedBinaryWriteEEvRS3_RT_
dDp:_islower
Nnm:_List_1_System_Collections_IList_Remove_m3654336679_gshared
EU:__ZNSt3__26vectorIN4core12basic_stringIcNS1_20StringStorageDefaultIcEEEE13stl_allocatorIS5_L18MemLabelIdentifier1ELi16EEE21__push_back_slow_pathIS5_EEvOT_
g5l:__ZNK23RC2Transform_t4583214879get_R3_15Ev
lgl:__Z86RuntimeInvoker_Boolean_t97287965_Int16_t2552820387_Int16_t2552820387_Int32_t2950945753PFvvEPK10MethodInfoPvPS4_
PGa:__ZN9Scripting11UnityEngine11CameraProxy12CleanupProxyEv
lIn:_IndexedSet_1_IndexOf_m241693686_gshared
EXd:__ZN11UnityEngine15PlatformWrapper30GetGraphicsDriverLibraryStringEv
mPb:__ZL17Transfer_GUIStyleI19StreamedBinaryWriteLb1EEvRK29SerializationCommandArgumentsR31RuntimeSerializationCommandInfo
eoe:__Z32IndexedSet_1_Contains_m896713622P24IndexedSet_1_t3571286806P12Il2CppObjectPK10MethodInfo
eWh:_CADMethodReturnMessage_GetException_m4034410903
d4k:_UInt64_System_IConvertible_ToSingle_m925613075_AdjustorThunk
qWo:__ZN6il2cpp2vm10Reflection27GetCustomAttributesCacheForEPK12PropertyInfo
DKn:_ListPool_1__cctor_m704263611_gshared
yu:__ZN16MecanimAnimation24DeleteAnimatedPropertiesERP26IAnimatedPropertyEvaluator
_Qn:_Music_Start_m75845250
X9b:__Z14DrawGUITextureRK5RectTIfEP7Texture11ColorRGBA32P8Materiali
sE:__Z32GenerateRootMotionRotationCurvesRNSt3__26vectorI15RootMotionCurve13stl_allocatorIS1_L18MemLabelIdentifier1ELi16EEEERK17AnimationCurveTplI11QuaternionfE
Q$a:__ZNK15PlayableMethods18InvokeProcessFrameER18ScriptingObjectPtrRK9HPlayableP18ScriptingFrameDataRK9FrameData
bL:__ZN9BlobWrite8TransferI22OffsetPtrArrayTransferIKN4math7_float4EEEEvRT_PKc17TransferMetaFlags
AUh:_Transform_IsChildOf_m224006092
wkd:__ZNK11b2EdgeShape7RayCastEP15b2RayCastOutputRK14b2RayCastInputRK11b2Transformi
tjg:__Z27Action_1_Invoke_m1892723854P19Action_1_t269755560bPK10MethodInfo
p9c:__ZN9JSONWrite8TransferI4AABBEEvRT_PKc17TransferMetaFlags
dvc:__ZN15dense_hashtableINSt3__24pairIKiN4core17string_with_labelILi1EEEEEi18SInt32HashFunctionN14dense_hash_mapIiS5_S7_NS0_8equal_toIiEE13stl_allocatorIS6_L18MemLabelIdentifier1ELi16EEE9SelectKeyESA_SD_E12expand_arrayEjN21dense_hash_map_traits17integral_constantIbLb0EEE
dAg:_InternalEnumerator_1_get_Current_m3191242573_AdjustorThunk
Lpd:__ZN10Collider2D13AwakeFromLoadE17AwakeFromLoadMode
dWn:_Aes__ctor_m178909601
f8a:__ZNK9Texture2D20GetRuntimeMemorySizeEv
Wcd:__ZN5Unity9rapidjson13GenericReaderINS0_4UTF8IcEES3_13JSONAllocatorE9ParseTrueILj0ENS0_19GenericStringStreamIS3_EENS0_15GenericDocumentIS3_S4_S4_EEEEvRT0_RT1_
R9n:_Vector2_op_Implicit_m4260192859
Nh:_emscripten_glUniform2iv
v2j:_Guid_ToString_m2120285561
ihm:_Enumerator_Dispose_m2367629053_gshared
yVk:_UnicodeEncoding_CopyChars_m785272451
F3l:_Enumerator_Dispose_m1204547613_AdjustorThunk
uzd:_UNITY_FT_Outline_Transform
Vvo:__ZN6il2cpp2vm5Class10GetMethodsEP11Il2CppClassPPv
Zfc:__Z30AddDefaultStreamsToMeshBuffersR9GfxDeviceR11MeshBuffersRK16DrawBuffersRange17ShaderChannelMaskS6_
dqi:_Array_GetValue_m2528546681
opm:_List_1_GetEnumerator_m1430071802_gshared
g4b:__ZN7ApiGLES17DeleteFramebufferERN2gl6HandleILNS0_10ObjectTypeE9EEES3_
lPp:_glGenFramebuffers__wrapper
w6b:__ZN15UniformTFMethod13MapBoneBufferEj
aQd:__ZN2UI14CanvasRendererD2Ev
sKl:_Array_InternalArray__get_Item_TisParameterModifier_t1461694466_m29553316_gshared
uNf:_FieldInfo_internal_from_handle_type_m3256989094
hDj:_Int64_CompareTo_m1928360444_AdjustorThunk
KLo:__ZN6il2cpp6icalls8mscorlib6SystemL23GetPropertiesByNameImplINS_5utils10functional6FilterINSt3__212basic_stringIcNS7_11char_traitsIcEENS7_9allocatorIcEEEENS4_13VmStringUtils21CaseSensitiveComparerEEEEEP11Il2CppArrayPK10Il2CppTypejRKT_
rXb:__Z9SetupArgviPPKc
j3i:_Convert_ToInt64_m2075031821
x5d:__ZL55__ManagedRegistrationHelperFunction_ReferencePointProxyPv
_ck:_Array_get_swapper_TisVector3_t3722313464_m1221246401_gshared
HQp:_glTexParameteri__wrapper
Kef:__ZL56AudioListener_t2734094699_CustomAttributesCacheGeneratorP21CustomAttributesCache
goa:__ZN12FileAccessor4OpenER15FileSystemEntry14FilePermission16FileAutoBehavior
Wmp:__ZN6il2cpp2os9Directory6CreateERKNSt3__212basic_stringIcNS2_11char_traitsIcEENS2_9allocatorIcEEEEPi
KNa:__ZN23TransformChangeDispatch32QueueTransformChangeIfHasChangedERK15TransformAccess
DTp:_glTexImage3D__wrapper
hmp:__ZN6il2cpp2os26LibraryNamePrefixAndSuffixC2EPKcS3_
ufm:_Enumerator_VerifyState_m3505660202_AdjustorThunk
FKj:_Assembly_get_FullName_m293988418
Hud:__ZN22WorldContactListener2D8PreSolveEP9b2ContactPK10b2Manifold
quh:_Camera_get_pixelRect_Injected_m2326986893
wEa:__ZN9Scripting11UnityEngine25ManagedStreamHelpersProxy9InitProxyEv
x:tempValue
FQn:_dreamloLeaderBoard_ToStringArray_m2563213966
pBp:__ZN6il2cpp8metadata24Il2CppGenericContextHash4HashEPK20Il2CppGenericContext
nzg:_InternalEnumerator_1_get_Current_m356936020_AdjustorThunk
Jac:__ZN6Camera21RenderODSWorldTextureERK11CullResultsRK19SharedRendererSceneR17ShaderPassContextNS_10RenderFlagE
wCj:_Int32_ToString_m141394615_AdjustorThunk
Wja:__Z29scripting_class_from_fullnamePKcS0_S0_
ISj:_Directory_GetCurrentDirectory_m219218555
BWf:__Z36il2cpp_codegen_com_get_or_create_ccwI14Il2CppIUnknownEPT_P12Il2CppObject
Vl:_llvm_floor_f32
Nmi:_SmallXmlParser_UnexpectedEndError_m1914362401
rB:__ZN26AnimatorControllerPlayable18DeallocateBindingsEv
qpp:__ZN4utf88internal20is_overlong_sequenceIiEEbjT_
$pc:__ZN20TextureStreamingData19AllocateTextureInfoEP17StreamingRendererjPK20StreamingTextureInfo
M1:__ZN11AudioSource19CreateOpenALRolloffEfff
sGd:_UNITY_FT_Stream_ReadAt
R8l:__Z36KeyValuePair_2_set_Value_m3305319569P26KeyValuePair_2_t3842366416bPK10MethodInfo
GHo:__ZN24dense_hashtable_iteratorINSt3__24pairIK10KeyWrapperIP9FieldInfoEiEES5_N6il2cpp5utils11PointerHashIS3_EEN14dense_hash_mapIS5_iSB_NS5_14EqualsComparerINS0_8equal_toIS4_EEEENS0_9allocatorIS7_EEE9SelectKeyESG_SI_EC2EPK15dense_hashtableIS7_S5_SB_SK_SG_SI_EPS7_SQ_b
b_k:_TimeSpan__ctor_m1896986612_AdjustorThunk
_Db:__ZN13ComputeBuffer7SetDataER9GfxDevicePKvjj
Xgi:_ArgumentException__ctor_m1216717135
TMh:_Ray_ToString_m1732834890_AdjustorThunk
d9c:__ZN9JSONWrite8TransferI13dynamic_arrayI5RectTIfELj0EEEEvRT_PKc17TransferMetaFlags
Zqm:_List_1_System_Collections_IList_Contains_m3860993176_gshared
x5:__ZN11AudioModule22CreateAudioClipFromWWWEP10IWWWStreamPKcbbi
eDc:__ZN9Texture2DC2E10MemLabelId18ObjectCreationMode
nZb:__Z17DebugStringToFileIA59_cEvRKT_iPKci15LogMessageFlagsiiPFvRK11CppLogEntryE
H0f:_ObjectRecord_get_IsUnsolvedObjectReference_m1163921033
bBp:___cxx_global_var_init_1_44860
O2k:_UInt32_System_IConvertible_ToBoolean_m1763673183_AdjustorThunk
MT:__ZZN8Animator15InitializeClassEvEN43FunctorImpl_449kDidModifyAnimatorController4CallEPviR11MessageData
bUa:__ZN21InstanceBufferJobDataIN10Instancing14RenderLoopArgsEED2Ev
RYa:__ZN6prcoreL11inner_clearILj4EEEvPhjjj
vf:_emscripten_glClear
TA:__ZN7mecanim12statemachine27CreateStateMachineWorkspaceEPKNS0_20StateMachineConstantEjR20RuntimeBaseAllocator
jda:__GLOBAL__sub_I_Runtime_SceneManager_0_cpp
pvp:_GC_initialize_offsets
Tbm:_Enumerator_MoveNext_m2142368520_AdjustorThunk
Ata:__ZNK8Playable6HandleEv
A3g:_SetPropertyUtility_SetColor_m2229203028
K$o:_il2cpp_class_get_field_from_name
fma:__ZN14MessageHandler28MessageIDToMessageIdentifierEi
L4a:__ZNK11SpriteAtlas20GetRuntimeRenderDataEPK6Sprite
r4j:_FileSystemInfo__ctor_m3035148496
NBj:_Int32_System_IConvertible_ToDecimal_m2190376994_AdjustorThunk
H8l:_KeyValuePair_2_set_Key_m2121548577_AdjustorThunk
_U:__Z51Register_UnityEngine_Animator_get_hasBoundPlayablesv
Om:emscriptenWebGLGetUniform
fo:FUNCTION_TABLE_iiiiiiiiiii
Jcn:_GUI_CallWindowDelegate_m3309453386
MEd:_cff_set_mm_blend
Cno:_AnimationScriptPlayable_GetHandle_m632811930_AdjustorThunk
hmc:__ZL10CleanUpJobP20CullingGroupsJobData
ejb:__ZN16BlendShapeVertex8TransferI19StreamedBinaryWriteEEvRT_
f4j:_DirectoryInfo_get_Exists_m3142069876
ggb:__ZN10MeshFilter23VirtualRedirectTransferER24GenerateTypeTreeTransfer
O9b:__ZN13RenderManager15BatchModeUpdateEv
sW:__ZN20DiagnosticSwitchEnumI23FMODDebugDisplayOptionsE18SetValueFromStringEPKc
isj:_X509Chain_get_CertificateAuthorities_m804805415
Cgc:__Z14SetupLightmapsRK8Vector4fS1_R17ShaderPassContext
rkf:__ZL71ContactFilter2D_t3805203441_CustomAttributesCacheGenerator_useLayerMaskP21CustomAttributesCache
W9n:_Vector2_get_one_m738793577
mrd:__ZN10ClipperLib7Clipper15SetWindingCountERNS_5TEdgeE
aag:_InstanceComparer_System_Collections_IHashCodeProvider_GetHashCode_m1305577427
UNc:__ZNK4Mesh14GetIndexFormatEv
vgp:__ZN14dense_hash_mapI10KeyWrapperIP12Il2CppObjectEN6il2cpp2gc9CachedCCWENS4_5utils11PointerHashIS1_EENS3_14EqualsComparerINSt3__28equal_toIS2_EEEENSB_9allocatorINSB_4pairIKS3_S6_EEEEE13set_empty_keyERSH_
wFa:__ZN9Scripting11UnityEngine12Experimental9Rendering21CameraPropertiesProxy9InitProxyEv
Kl:_glVertexAttribIPointer
WSk:_StringBuilder_ToString_m3317489284
Men:_GUIWordWrapSizer__ctor_m3789151557
uko:_Canvas_get_pixelPerfect_m333060872
oNc:__ZNK6Sprite10GetPaddingE20SpriteRenderDataMode
$ek:_Array_InternalArray__ICollection_Remove_TisUInt32_t2560061978_m733727733_gshared
vdg:_CryptographicException__ctor_m503735289
c6j:_Stream_EndRead_m1896469262
g7k:__Z93RuntimeInvoker_Boolean_t97287965_Int32_t2950945753_SByte_t1669577662_ExceptionU26_t3600731591PFvvEPK10MethodInfoPvPS4_
L1j:_Guid_CompareTo_m243656946
bHd:_UNITY_ft_glyphslot_alloc_bitmap
aSl:_Dictionary_2_GetObjectData_m3463318060_gshared
wJg:__Z41InternalEnumerator_1_MoveNext_m1396448578P31InternalEnumerator_1_t807363631PK10MethodInfo
cOm:_ReadOnlyCollection_1_System_Collections_IList_Add_m3642938800_gshared
qTi:_RSASslSignatureDeformatter_SetHashAlgorithm_m895570787
qia:__ZL36TransformAccessArray_InitializeClassPv
U5m:_X509CrlEntry__ctor_m4013514048
naj:_Delegate_CreateDelegate_internal_m2845516975
$Fa:__ZN9Scripting11UnityEngine31ExcludeFromPresetAttributeProxy12CleanupProxyEv
SLd:_ft_raster1_render
fio:_Font_Internal_CreateFont_m3912844329
EYc:__Z47Register_UnityEngine_Mesh_RecalculateBoundsImplv
hgm:_Enumerator_get_Current_m3382684163_AdjustorThunk
Qog:_InternalEnumerator_1_System_Collections_IEnumerator_Reset_m3677481164_AdjustorThunk
xGf:_OpCode_get_OperandType_m1634816806_AdjustorThunk
h1d:__ZN9Scripting11UnityEngine10Networking23CertificateHandlerProxy12CleanupProxyEv
HGp:__ZNKSt3__221__basic_string_commonILb1EE20__throw_length_errorEv
p_l:_EqualityComparer_1_System_Collections_IEqualityComparer_Equals_m245992594_gshared
nKf:__ZN31OpCodes_t126150456_StaticFields17set_Prefixref_198E17OpCode_t123070264
Jei:_RealProxy_GetObjectData_m3709348912
qjk:_Array_InternalArray__IndexOf_TisParameterModifier_t1461694466_m1227120810_gshared
R4b:__ZN18GfxFramebufferGLES13ReadbackImageER14ImageReferenceiiiiii
wdd:__ZN5Unity9rapidjson6WriterI16TempBufferWriterNS0_4UTF8IcEES4_13JSONAllocatorE11WriteStringEPKcj
Vxa:__ZN6prcoreL12RemapGenericI17TexFormatARGB888815TexFormatRGB565EEvPKNS_9InnerInfoE
ZY:__ZN4FMOD7Channel19setReverbPropertiesEPK29FMOD_REVERB_CHANNELPROPERTIES
y9j:_StreamReader_Dispose_m156389394
Jla:__ZN13MonoBehaviour22GetScriptFullClassNameEv
ZKc:__ZN13ProduceHelperI11MonoManagerLb0EE7ProduceE10MemLabelId18ObjectCreationMode
E5l:_RIPEMD160Managed_JJ_m112143231
Gmm:_List_1_System_Collections_IList_Contains_m727430316_gshared
jKk:_PreviousInfo_t2148130204_marshal_pinvoke_back
Vyb:__ZNK16MemoryFileSystem9EnumerateEPKcP19dynamic_block_arrayI13FileEntryInfoLj32EEbPPv19FileEnumerationFlag
fUb:__ZN13MonoBehaviour9CallAwakeEv
FYa:__ZN20SphericalHarmonicsL211AddWeightedERKS_f
lal:__Z82RuntimeInvoker_RuntimeObject_Int64_t3736567304_Int64_t3736567304_Int64_t3736567304PFvvEPK10MethodInfoPvPS4_
Bwi:__Z41Array_IndexOf_TisRuntimeObject_m828474689P12Il2CppObjectP24ObjectU5BU5D_t2843939325S0_iiPK10MethodInfo
BLb:__Z19TransferField_ArrayI17RemapPPtrTransfer27Converter_SimpleNativeClassI8GUIStyleEEvRK23StaticTransferFieldInfoR31RuntimeSerializationCommandInfoRT0_
I6c:__ZN9JSONWrite8TransferI10ColorRGBAfEEvRT_PKc17TransferMetaFlags
v_d:__ZN11UnityEngine9Analytics22EventLimitResumedEventC2EjRKN4core12basic_stringIcNS2_20StringStorageDefaultIcEEEEb
zHg:_InternalEnumerator_1__ctor_m3913006324_AdjustorThunk
$la:__Z25scripting_method_get_name18ScriptingMethodPtr
dVi:_SslCipherSuite_ComputeKeys_m661027754
VJb:__Z19TransferField_ArrayI14SafeBinaryRead16Converter_StringEvRK23StaticTransferFieldInfoR31RuntimeSerializationCommandInfoRT0_
SPd:__ZN2UI6Canvas8TransferI19StreamedBinaryWriteEEvRT_
W9i:_Decimal_Equals_m2486655999
svp:_GC_exit_check
mMj:_AssemblyName_SetPublicKeyToken_m582470133
chm:__Z58Enumerator_System_Collections_IEnumerator_Reset_m688431936P22Enumerator_t1222580846PK10MethodInfo
hH:__ZN7mecanim9animation9DenseClip8TransferI14SafeBinaryReadEEvRT_
gSg:__Z26Enumerator__ctor_m65667165P22Enumerator_t1957567516P21Dictionary_2_t3384741PK10MethodInfo
Zgc:__Z34SetupObjectBakedOcclusionInForwardbRK15SharedLightDataRK26SharedLightmapSettingsDataRK15LightmapIndicesR17ShaderPassContext
WNk:_DSAManaged_get_Random_m923751780
uia:__ZL29TransformAccessChangeCallbackPK15TransformAccessj
zfd:__ZL53__ManagedRegistrationHelperFunction_RaycastHit2DProxyPv
qao:_Vector3_set_Item_m1772472431_AdjustorThunk
_wj:_Interpreter_PopulateGroup_m4042796257
S8o:__ZN6il2cpp2vm13LivenessState25FieldCanContainReferencesEP9FieldInfo
$qc:__ZNSt3__26vectorINS_4pairIN4core12basic_stringIcNS2_20StringStorageDefaultIcEEEES6_EE13stl_allocatorIS7_L18MemLabelIdentifier38ELi16EEE6insertENS_11__wrap_iterIPKS7_EERSD_
sBh:_RenderPipelineManager_DoRenderLoop_Internal_m3799666479
XK:__ZN9BlobWrite8TransferI22OffsetPtrArrayTransferI9OffsetPtrIN7mecanim12statemachine18StateMachineMemoryEEEEEvRT_PKc17TransferMetaFlags
yh:_emscripten_glStencilOpSeparate
DHm:_Collection_1_System_Collections_IList_IndexOf_m3894953546_gshared
N6l:_RSACryptoServiceProvider_OnKeyGenerated_m863837376
z2m:_PKCS12_get_Certificates_m26161562
Ufj:_NameObjectCollectionBase_Init_m2525481323
lE:__ZN13AnimationClip18GenerateMuscleClipEv
Yfc:__ZN15SkyboxGenerator28GetCubemapSkyboxVertexFormatEv
iDb:__ZN19ShaderPropertySheet24SetTextureWithExplicitIDERK23FastTexturePropertyNameP7Texture9TextureID
JIo:__ZN6il2cpp2os19SocketHandleWrapperC2ERKS1_
$jm:_List_1_Insert_m1582252370_gshared
bqp:__ZN6il2cpp2vm6String8NewUtf16EPKDsi
kcg:_SByte_System_IConvertible_ToByte_m2268214252_AdjustorThunk
ymp:__ZN6il2cpp2os10ThreadImpl12QueueUserAPCEPFvPvES2_
w_d:__ZN22BaseUnityConnectClient10QueueEventERN11UnityEngine15CloudWebService17CloudServiceEventEPKcjb
$hh:_DelegatePInvokeWrapper_RaycastAllCallback_t1884415901
mQm:_ReadOnlyCollection_1_System_Collections_Generic_ICollectionU3CTU3E_Clear_m522482168_gshared
J5c:__Z69Register_UnityEngine_GUILayoutUtility_Internal_GetWindowRect_Injectedv
o7h:_ConstructionCall_InitMethodProperty_m2021094586
JZc:__Z27Texture_CUSTOM_GetDataWidthP12Il2CppObject
bHa:__ZN9Scripting11UnityEngine15BoneWeightProxy12CleanupProxyEv
mDc:__ZN23TextureStreamingResultsC2Ev
ymd:__ZN7b2World19ContactsCollideTaskEv
H7:__ZN23CloudWebServicesManager25RemoveCloudServiceHandlerEP19CloudServiceHandler
bJd:_UNITY_FT_Hypot
FZh:_MethodDictionary_get_InternalProperties_m321207497
Hdf:__ZL53SpriteAtlas_t646931412_CustomAttributesCacheGeneratorP21CustomAttributesCache
isf:__ZL74CanvasScaler_t2767979955_CustomAttributesCacheGenerator_m_DefaultSpriteDPIP21CustomAttributesCache
zg:_emscripten_glGetError
c_:__Z14FMOD_FILE_SeekPvjS_
Cyg:__Z37InternalEnumerator_1__ctor_m236665673P32InternalEnumerator_1_t1391455104P11Il2CppArrayPK10MethodInfo
CGo:__ZN14dense_hash_mapI10KeyWrapperIPK11Il2CppClassEPKcN6il2cpp5utils11PointerHashIS1_EENS4_14EqualsComparerINSt3__28equal_toIS3_EEEENSC_9allocatorINSC_4pairIKS4_S6_EEEEE3endEv
Aeh:_MaskableGraphic_OnDisable_m1757789159
d_a:__ZN7TextureC2E10MemLabelId18ObjectCreationMode
A9g:_LayoutGroup__ctor_m2162961217
b$d:__Z56Register_UnityEngine_Analytics_CustomEventData_AddStringv
unc:__ZNK13RenderTexture32CalculateNeedsInvertedProjectionEv
ntc:__ZN10systeminfo18GetOperatingSystemEv
Im:emscriptenWebGLGet
Ucp:__ZN14dense_hash_mapI10KeyWrapperINSt3__24pairIPKcS4_EEEi24NamespaceAndNamePairHashNS6_14EqualsComparerI26NamespaceAndNamePairEqualsEENS1_9allocatorINS2_IKS6_iEEEEED2Ev
voa:__Z19CanReplaceComponentRN5Unity9ComponentEPKNS_4TypeEPN4core12basic_stringIcNS5_20StringStorageDefaultIcEEEE
Ick:_UnmanagedMemoryStream_Flush_m1540584491
dNa:__ZN14SafeBinaryRead8TransferIN10GameObject13ComponentPairEEEvRT_PKc17TransferMetaFlags
n1j:_GuidParser_ParseGuid2_m1914838819
DFc:__ZN12CubemapArray11InitTextureEiii13TextureFormatb
hRc:__Z17GetSceneBuildInfoRKN4core12basic_stringIcNS_20StringStorageDefaultIcEEEEiR14SceneBuildInfo
jPe:__ZL70ReliabilityContractAttribute_t502331440_CustomAttributesCacheGeneratorP21CustomAttributesCache
Qmg:_InternalEnumerator_1_System_Collections_IEnumerator_get_Current_m55999184_gshared
vvp:_GC_print_all_errors
SQo:__ZN24dense_hashtable_iteratorINSt3__24pairIK10KeyWrapperIPK10Il2CppTypeEjEES6_N6il2cpp8metadata14Il2CppTypeHashEN14dense_hash_mapIS6_jSB_NS6_14EqualsComparerINSA_26Il2CppTypeEqualityComparerEEENS0_9allocatorIS8_EEE9SelectKeyESF_SH_E30advance_past_empty_and_deletedEv
a3n:_DownloadHandlerBuffer_GetData_m752341367
WMk:_BitConverterLE_GetULongBytes_m1393773100
A2k:_UInt32_Parse_m3755665066
Bze:_Graphic_get_depth_m815589653
IBh:_SupportedRenderingFeatures_FallbackMixedLightingModeByRef_m3859171964
wL:__ZN7mecanim5human13HumanFixTwistEPKNS0_5HumanEPNS_8skeleton13SkeletonPoseTIN4math4trsXEEES9_iiRKf
Mgc:__ZL24AssignProjectorQueuesJobP30AssignProjectorQueuesJobHeader
RSf:_ParameterModifier_t1461694466_marshal_pinvoke
XDg:__Z44InternalEnumerator_1_get_Current_m1007906068P32InternalEnumerator_1_t1629489814PK10MethodInfo
Azc:__ZNSt3__26vectorIN9ShaderLab20SerializedSubProgram15StructParameterENS_9allocatorIS3_EEE21__push_back_slow_pathIS3_EEvOT_
jyj:_Int16_System_IConvertible_ToUInt32_m3410279543
XD:__ZNK21AnimationHandleBinder36CreateAnimationStreamHandlesBindingsEv
nzc:__ZN9ShaderLab20SerializedSubProgram14SetConstBufferEPKci
UNo:__ZN6il2cpp2os4File5CloseEPNS0_10FileHandleEPi
IOd:__ZN31CanvasBatchIntermediateRenderer15AddAsRenderNodeER15RenderNodeQueueRK20DeprecatedSourceData
qTh:_Touch_get_fingerId_m859576425_AdjustorThunk
$Xk:_Thread_GetDomain_m1615404259
ggn:__ZNK26GUILayoutGroup_t215778969522get_m_ChildMaxWidth_23Ev
bCd:_cf2_getStdVW
p2k:_UInt16_CompareTo_m2664746316_AdjustorThunk
zOl:_ValueCollection_GetEnumerator_m616748621_gshared
szb:__ZN9GfxDevice13SetActiveTierE12GraphicsTier
wbd:__Z29Transfer_Blittable_ArrayFieldI8JSONReadjEvRT_R9ArrayInfoRK23StaticTransferFieldInfo
NVd:__ZN11UnityEngine9Analytics15DeviceInfoEvent7GFXInfoD2Ev
yvp:_GC_check_finalizer_nested
Ne:__setLetterbox
z3a:__ZNSt3__26vectorI13dynamic_arrayI8Vector2fLj0EENS_9allocatorIS3_EEEC2INS_11__wrap_iterIPS3_EEEET_SB_RKS5_PNS_9enable_ifIXaasr21__is_forward_iteratorISB_EE5valuesr16is_constructibleIS3_NS_15iterator_traitsISB_E9referenceEEE5valueEvE4typeE
Tkh:_ScrollRect_OnScroll_m3861066534
Jdk:_Array_InternalArray__ICollection_Contains_TisResourceCacheItem_t51292791_m2991582559_gshared
$qo:__ZN27ContactFilter2D_t380520344127set_useOutsideNormalAngle_5Eb
tIn:_U3CStartU3Ec__Iterator0_MoveNext_m524356752_gshared
bdf:__ZL72FormerlySerializedAsAttribute_t2859083114_CustomAttributesCacheGeneratorP21CustomAttributesCache
pon:_PatternCompiler_EmitFastRepeat_m3012952683
vib:__ZNSt3__26vectorI17BlendShapeChannelNS_9allocatorIS1_EEE6assignINS_11__wrap_iterIPS1_EEEENS_9enable_ifIXaasr21__is_forward_iteratorIT_EE5valuesr16is_constructibleIS1_NS_15iterator_traitsISA_E9referenceEEE5valueEvE4typeESA_SA_
Zgi:_StrongName__ctor_m3939359439
oZb:__Z12SetGfxDeviceP9GfxDevice
eQc:__ZN22AnimationCurveBindings7SetKeysEP17AnimationCurveTplIfERK13dynamic_arrayI11KeyframeTplIfELj0EE
gtc:__ZN11TimeManager11GetRealtimeEv
Xcm:_Enumerator_Dispose_m3500272053_gshared
y_:__ZN29AudioEffectInternalDefinitionC2EP26UnityAudioEffectDefinitionb
nVm:_ReadOnlyCollection_1_System_Collections_IList_Remove_m2434650390_gshared
mzo:__ZN14dense_hash_mapI10KeyWrapperIP9FieldInfoEiN6il2cpp5utils11PointerHashIS1_EENS3_14EqualsComparerINSt3__28equal_toIS2_EEEENS9_9allocatorINS9_4pairIKS3_iEEEEED2Ev
uZg:_ShimEnumerator_get_Value_m1878724567_gshared
EUj:_CultureInfo_get_IcuName_m2258611679
ind:__ZN35b2SynchronizeContinuousFixturesTaskD2Ev
l$o:__ZNSt3__2plIcNS_11char_traitsIcEENS_9allocatorIcEEEENS_12basic_stringIT_T0_T1_EERKS9_PKS6_
Afl:__Z110RuntimeInvoker_Void_t1185182177_RuntimeObject_StreamingContext_t3711869237_Int32_t2950945753_Int32_t2950945753PFvvEPK10MethodInfoPvPS4_
Q5a:_stbir_resize
gik:_Array_IndexOf_TisCustomAttributeTypedArgument_t2723150157_m3158556463_gshared
Cr:__GLOBAL__sub_I_AnimationScriptingClasses_cpp
iRj:_Environment_GetOSVersionString_m407782784
YBk:_DecoderExceptionFallback_Equals_m1082173956
ENe:__ZL69Assembly_t_CustomAttributesCacheGenerator_Assembly_GetName_m981771927P21CustomAttributesCache
FUo:__ZN15dense_hashtableINSt3__24pairIK10KeyWrapperINS1_IPK12PropertyInfoP11Il2CppClassEEEjEES9_17ReflectionMapHashIS8_EN14dense_hash_mapIS9_jSD_NS9_14EqualsComparerINS0_8equal_toIS8_EEEENS0_9allocatorISB_EEE9SelectKeyESI_SK_E5clearEv
I5e:__ZL93Mesh_t3648964284_CustomAttributesCacheGenerator_Mesh_GetAllocArrayFromChannelImpl_m3084065604P21CustomAttributesCache
Bjd:__ZN24b2ChainAndCapsuleContact6CreateEP9b2FixtureiS1_iP16b2BlockAllocator
jxb:__Z37ReadDirectoryInfo_UnityWebAndUnityRawR12FileAccessorRKN20ArchiveStorageHeader6HeaderERNS1_13DirectoryInfoE
Kia:__ZNSt3__26__treeINS_12__value_typeIPKciEENS_19__map_value_compareIS3_S4_15compare_tstringIS3_ELb1EEENS_9allocatorIS4_EEE7destroyEPNS_11__tree_nodeIS4_PvEE
qDl:_Array_InternalArray__Insert_TisIntPtr_t_m189626842_gshared
hqj:_X509Certificate2_get_IssuerName_m1277209535
Q7l:_RijndaelManaged_CreateEncryptor_m263736311
Fdc:__ZN20DynamicPropertySheet14SetValueQueuedEN9ShaderLab16FastPropertyNameEN19ShaderPropertySheet12PropertyTypeEjNS2_8SetFlagsE
_yh:_InvokableCallList_ClearPersistent_m1904264973
nVb:__ZN25PathNamePersistentManagerD2Ev
$nb:__ZN17PersistentManager48IntegrateObjectAndUnlockIntegrationMutexInternalEi
lwa:__ZZ29InitializeSortingGroupManagerPvEN44PostLateUpdateSortingGroupsUpdateRegistrator7ForwardEv
Rlf:__ZL55EventTrigger_t1076084509_CustomAttributesCacheGeneratorP21CustomAttributesCache
Yuk:_SecurityElement_SearchForChildByTag_m900466299
Xp:__ZN6Object12SetHideFlagsENS_9HideFlagsE
Jid:__ZN9b2Fixture11SynchronizeEP12b2BroadPhaseRK11b2TransformS4_
L3i:_Convert_ToSingle_m3227075028
Jmc:__ZN13RendererScene15InitializeUmbraEv
vWa:__Z28CalculateGlobalMatrixInverse23TransformAccessReadOnly
E2l:_GenericEqualityComparer_1_Equals_m3457564127_gshared
GCi:_BigInteger_ModInverse_m2426215562
Wu:__ZN7mecanim9animation21CreateAvatarWorkspaceEPKNS0_14AvatarConstantER20RuntimeBaseAllocator
X2b:__ZN4gles15UpdateDepthTestER15DeviceStateGLESPK20DeviceDepthStateGLESb
UBk:_DecoderExceptionFallback__ctor_m4044614564
Wug:_InternalEnumerator_1_System_Collections_IEnumerator_Reset_m3011999097_AdjustorThunk
e2o:__ZN6il2cpp2vm6Thread17FullMemoryBarrierEv
CEj:_LocalDataStoreSlot__cctor_m644942532
nBp:__ZN6il2cpp6icalls8mscorlib6System6Object7GetTypeEP12Il2CppObject
yRf:_MonoProperty_CachePropertyInfo_m2968057423
o1d:__ZNK25UnityWebRequestJavaScript18GetDownloadedBytesEv
RMh:_Ray_GetPoint_m1852405345_AdjustorThunk
tEf:__ZN18VirtActionInvoker1I17OpCode_t123070264E6InvokeEjP12Il2CppObjectS0_
z1d:__ZN12HeaderHelper14SetUnvalidatedERKN4core12basic_stringIcNS0_20StringStorageDefaultIcEEEES6_b
EY:__ZN4FMOD6SoundI7releaseEv
vgb:__ZN14SpriteRenderer13AwakeFromLoadE17AwakeFromLoadMode
DDd:_cff_parse_num
Lxb:__ZN10MemoryFile9SetLengthEy
GNb:__ZN5RectTIiE8TransferI24GenerateTypeTreeTransferEEvRT_
wTj:_Exception_get_ClassName_m2428844642
JUb:__Z28scripting_class_is_interface17ScriptingClassPtr
kl:_glTexStorage2D
gIf:__ZN31OpCodes_t126150456_StaticFields15set_Stind_I4_83E17OpCode_t123070264
VWi:_SyncHashtable_get_Item_m2686606216
H0a:__ZNK9ShaderLab10SubProgram14EnsureCompiledEv
vDf:_MethodBuilder_GetGenericArguments_m1765425737
C7i:_DateTime_CompareTo_m3687348273
a8i:_DateTime_ToUniversalTime_m1945318289_AdjustorThunk
z2i:_Convert_ToInt16_m1336719169
Rla:__Z18BuildScriptClassId17ScriptingClassPtr
slo:_CanvasRenderer_CreateUIVertexStreamInternal_m543814397
F3g:__ZN22InputField_t376291743134get_address_of_m_SelectionColor_35Ev
XTf:_TypeDelegator_GetElementType_m4265261164
gbn:_TextEditor_Cut_m1289908069
uvb:__ZL31DeleteLastPathNameComponentImplRKN4core12basic_stringIcNS_20StringStorageDefaultIcEEEEPKc
Y5i:_DBNull_System_IConvertible_ToUInt64_m4072736670
sVd:__ZN18UnityConnectClient15GetCloudServiceEv
qJb:__Z29Transfer_Blittable_ArrayFieldI14SafeBinaryRead5RectTIiEEvRT_R9ArrayInfoRK23StaticTransferFieldInfo
Gwg:_InternalEnumerator_1_get_Current_m2698009637_gshared
CIo:__ZN6il2cpp2os19SocketHandleWrapperD2Ev
fjd:__ZN15b2CircleContact6CreateEP9b2FixtureiS1_iP16b2BlockAllocator
EUb:__ZL28SerializationCommandGroupForRK31TransferFunctionScriptingTraits17ScriptingClassPtr17ScriptingFieldPtrRK20CoreScriptingClasses
ULa:__ZN10TagManager32RegisterDefaultTagsAndLayerMasksEv
nhl:__Z50RuntimeInvoker_Double_t594665363_Int32_t2950945753PFvvEPK10MethodInfoPvPS4_
esl:__Z104RuntimeInvoker_Void_t1185182177_Color_t2555686324_Single_t1397266774_SByte_t1669577662_SByte_t1669577662PFvvEPK10MethodInfoPvPS4_
dhm:_Enumerator_System_Collections_IEnumerator_get_Current_m1540440674_gshared
Ewk:_Single_System_IConvertible_ToInt16_m809233024_AdjustorThunk
d$d:__Z56Register_UnityEngine_Analytics_CustomEventData_AddUInt32v
NEp:_fmodf
tvd:__Z75Register_UnityEngine_Physics2D_GetRayIntersectionNonAlloc_Internal_Injectedv
W1b:__ZN4gles8InitCapsEP7ApiGLESP12GraphicsCapsR16GfxDeviceLevelGL
Y$b:__ZN13GfxDeviceGLES22GetNativeBufferPointerEP9GfxBuffer
oYa:__Z24CalculateVertexLightDataRK15SharedLightDataR14GfxVertexLight
Vj:_glEnable
ZTo:__ZN15dense_hashtableINSt3__24pairIK10KeyWrapperINS1_IPK12PropertyInfoP11Il2CppClassEEEjEES9_17ReflectionMapHashIS8_EN14dense_hash_mapIS9_jSD_NS9_14EqualsComparerINS0_8equal_toIS8_EEEENS0_9allocatorISB_EEE9SelectKeyESI_SK_E15insert_noresizeERKSB_
q1n:_VertexHelper_Clear_m627349662
gJa:__ZN12CachedWriter11Align4WriteEv
Omb:__ZNSt3__26vectorIN30RuntimeInitializeOnLoadManager9ClassInfoE13stl_allocatorIS2_L18MemLabelIdentifier13ELi16EEE7reserveEj
U6c:__Z35Transfer_Blittable_FixedBufferFieldI9JSONWriteiEvRK29SerializationCommandArgumentsR31RuntimeSerializationCommandInfo
Hnp:__ZN14dense_hash_mapI10KeyWrapperIPK19Il2CppGenericMethodEP10MethodInfoN6il2cpp8metadata23Il2CppGenericMethodHashENS4_14EqualsComparerINS8_26Il2CppGenericMethodCompareEEENSt3__29allocatorINSD_4pairIKS4_S6_EEEEED2Ev
j0g:__ZN22InputField_t376291743120set_m_ContentType_22Ei
g3l:_Enumerator__ctor_m1590062855_AdjustorThunk
vYo:__ZN14dense_hash_mapI10KeyWrapperINSt3__24pairIPK10MethodInfoP11Il2CppClassEEEj17ReflectionMapHashIS8_ENS9_14EqualsComparerINS1_8equal_toIS8_EEEENS1_9allocatorINS2_IKS9_jEEEEEC2EjRKSB_RKSF_
WXb:__ZN19RuntimeSceneManager11CreateSceneEv
jB:__ZN26AnimatorControllerPlayable17ProcessRootMotionEP35AnimationPlayableEvaluationConstantP32AnimationPlayableEvaluationInputP33AnimationPlayableEvaluationOutput
YQb:__Z18Transfer_BlittableI18StreamedBinaryReadLb1E10Matrix4x4fEvRK29SerializationCommandArgumentsR31RuntimeSerializationCommandInfo
Jif:__ZL102GUIStyle_t3956901511_CustomAttributesCacheGenerator_GUIStyle_Internal_DrawWithTextSelection_m628777321P21CustomAttributesCache
gJl:_Component_GetComponents_TisRuntimeObject_m2416546752_gshared
ack:_UnexceptionalStreamReader_Peek_m1842169584
Jth:_Bounds_GetHashCode_m1844059663_AdjustorThunk
vqf:__ZL66Navigation_t3049316579_CustomAttributesCacheGenerator_m_SelectOnUpP21CustomAttributesCache
q5f:_BinaryFormatter_NoCheckDeserializeMethodResponse_m1919376975
Gbo:_Vector4_Equals_m1779210055_AdjustorThunk
rt:__ZN9Scripting11UnityEngine14HumanBoneProxy12CleanupProxyEv
U4i:_Convert_ChangeType_m739676612
k2o:__ZN14dense_hash_mapI10KeyWrapperINSt3__24pairIP11Il2CppClassjEEES4_N6il2cpp8metadata14ArrayClassHashENS6_14EqualsComparerINS8_17ArrayClassCompareEEENS1_9allocatorINS2_IKS6_S4_EEEEED2Ev
S7b:__ZN20ArchiveStorageReader10InitializeER15FileSystemEntryyb
MLd:_New_Profile
qLk:_ModulusRing_BarrettReduction_m167376748
uYh:_RemotingServices_GetRealProxy_m2081098851
nNk:_BlockProcessor_Core_m189015002
zSp:_emscripten_glScissor__wrapper
So:FUNCTION_TABLE_viifi
Mo:FUNCTION_TABLE_viiff
lDe:__ZN42HorizontalOrVerticalLayoutGroup_t72972557042get_address_of_m_ChildForceExpandHeight_14Ev
X1k:_UInt16_System_IConvertible_ToDouble_m333121300_AdjustorThunk
KLk:_PrimalityTests_Test_m2932837908
eJe:__ZL37Type_t_CustomAttributesCacheGeneratorP21CustomAttributesCache
dKd:_UNITY_tt_face_free_hdmx
Gld:__ZNSt3__26__sortIRN18Overlap2DQueryBase29ColliderHitsByDepthComparitorEPP10Collider2DEEvT0_S7_T_
guh:_Bounds_ToString_m4208690781
E2o:__ZN15dense_hashtableINSt3__24pairIK10KeyWrapperINS1_IP11Il2CppClassjEEES4_EES6_N6il2cpp8metadata14ArrayClassHashEN14dense_hash_mapIS6_S4_SB_NS6_14EqualsComparerINSA_17ArrayClassCompareEEENS0_9allocatorIS8_EEE9SelectKeyESF_SH_E5clearEv
Ybl:__Z88RuntimeInvoker_RuntimeObject_RuntimeObject_RuntimeObject_Int32_t2950945753_RuntimeObjectPFvvEPK10MethodInfoPvPS4_
oyo:__ZNSt3__218uninitialized_copyIPNS_4pairIK10KeyWrapperIPK11Il2CppClassEPKcEESB_EET0_T_SD_SC_
SZo:__ZN6il2cpp2vm14TypeNameParser5ParseEb
Lvp:_GC_grow_table
c4e:__ZL100GameObject_t1113636619_CustomAttributesCacheGenerator_GameObject_SendMessage_m3720186693____options2P21CustomAttributesCache
dak:_StreamWriter_Initialize_m3490883444
f1k:_Type_GetGenericArguments_m3500465462
DHo:__ZN15dense_hashtableINSt3__24pairIK10KeyWrapperIP9FieldInfoEiEES5_N6il2cpp5utils11PointerHashIS3_EEN14dense_hash_mapIS5_iSB_NS5_14EqualsComparerINS0_8equal_toIS4_EEEENS0_9allocatorIS7_EEE9SelectKeyESG_SI_E12resize_deltaEjj
F0d:__ZN23UnityPurchasingSettingsC2Ev
WOf:_Module_IsDefined_m2423524910
WRh:_Sprite__ctor_m332781120
b6j:_FileStream_EndRead_m3904255625
ohf:__ZL60EventType_t3528516131_CustomAttributesCacheGenerator_repaintP21CustomAttributesCache
IQa:__ZN17GPUFenceInternals7ReleaseEv
irf:__ZL66Selectable_t3250028441_CustomAttributesCacheGenerator_m_NavigationP21CustomAttributesCache
NNc:__ZN17MaterialScripting18CreateWithMaterialE21ScriptingObjectOfTypeI8MaterialEPS1_
TRb:__ZN8Gradient8TransferI18StreamedBinaryReadEEvRT_
pMl:_Transform_1_Invoke_m2276349830_gshared
vnc:__ZL10RenderFaceR9GfxDeviceR18MaterialStateCacheP13RenderTextureiif
jln:_Interval_get_IsEmpty_m2731597232_AdjustorThunk
eik:_Array_IndexOf_TisCustomAttributeNamedArgument_t287865710_m2817957199_gshared
Oog:__Z37InternalEnumerator_1__ctor_m619554185P32InternalEnumerator_1_t4116331090P11Il2CppArrayPK10MethodInfo
I0m:_ExtendedKeyUsageExtension_ToString_m2116504780
Oqb:__ZNK5Unity9Component38MarkGameObjectAndComponentDependenciesER27GarbageCollectorThreadState
T2j:_BinaryReader_Read_m3708759962
fng:_InternalEnumerator_1__ctor_m3349908318_AdjustorThunk
qma:__ZNK11TypeManager15ClassNameToRTTIEPKcb
B1b:__ZN9GfxDevice26CreateDefaultVertexBuffersEv
ebk:_SynchronizedReader_ReadToEnd_m2160105378
t7a:__ZN4crnd12symbol_codec32decode_receive_static_data_modelERNS_25static_huffman_data_modelE
KDc:__ZN18ScriptingArguments8AddFloatEf
cEe:_Image_set_fillOrigin_m469806249
Ump:__ZN6il2cpp2vmL24HexValueToLowercaseAsciiEh
qfn:_GUILayout_BeginHorizontal_m276262640
RWd:__ZN11UnityEngine15PlatformWrapper16GetVRRenderScaleEv
U7c:__Z18Transfer_BlittableI9JSONWriteLb0EaEvRK29SerializationCommandArgumentsR31RuntimeSerializationCommandInfo
iNd:__Z51Register_UnityEngine_TextGenerator_Internal_Destroyv
Q7:__ZN11UnityEngine15CloudWebService14DataDispatcher34OnSessionContainerArchivedAndReadyERNS0_16SessionContainerE
jHh:_ConnectionChangeEvent__ctor_m764126802
kgd:__ZN7b2World11CreateJointEPK10b2JointDef
htd:__ZN7b2World11DestroyBodyEP6b2Body
Ydm:_Enumerator_VerifyState_m2621680056_gshared
nvn:_UriParser_InternalRegister_m3643767086
Puc:__ZN14SafeBinaryRead19TransferSTLStyleMapINSt3__23mapIN4core12basic_stringIcNS3_20StringStorageDefaultIcEEEEiNS1_4lessIS7_EENS1_9allocatorINS1_4pairIKS7_iEEEEEEEEvRT_17TransferMetaFlags
sId:_gray_move_to
U5i:_DBNull_System_IConvertible_ToSingle_m13713620
zvi:_Char_ToLowerInvariant_m1926695830
oPm:_ReadOnlyCollection_1_System_Collections_IList_Contains_m1327645028_gshared
uEe:_Image_GetDrawingDimensions_m3060965396
l4n:_UnityWebRequest_Dispose_m3261105905
y1k:_TypeLoadException__ctor_m1154572625
hTc:__Z30RegisterValidateMethodCallbackiPF18ScriptingMethodPtrS_17ScriptingClassPtrP6ObjectEPKc
o2a:__ZNSt3__27__sort4IRPFbRKNS_4pairIN9ShaderLab16FastPropertyNameE10ColorRGBAfEES7_EPS5_EEjT0_SC_SC_SC_T_
HOi:_Context_get_WriteSequenceNumber_m1115956887
P4c:__Z57Register_UnityEngine_GUIStyleState_set_textColor_Injectedv
NIl:_Dictionary_2_Do_ICollectionCopyTo_TisKeyValuePair_2_t2401056908_m1169495264_gshared
EGf:_OpCodes__cctor_m3821715395
Ape:_ContentSizeFitter__ctor_m2349275633
GMo:__ZN6il2cpp5utils9PathUtils13DirectoryNameIcEENSt3__212basic_stringIT_NS3_11char_traitsIS5_EENS3_9allocatorIS5_EEEERKNS0_10StringViewIS5_EE
hRa:__ZN20IntermediateRendererD2Ev
ocd:__ZN8JSONRead8TransferI9BoundsIntEEvRT_PKc17TransferMetaFlagsb
xkp:__ZN24dense_hashtable_iteratorINSt3__24pairIK10KeyWrapperIPcES3_EES4_N6il2cpp5utils15PassThroughHashIS3_EEN14dense_hash_mapIS4_S3_SA_NS4_14EqualsComparerINS0_8equal_toIS3_EEEENS0_9allocatorIS6_EEE9SelectKeyESF_SH_E30advance_past_empty_and_deletedEv
Mb:invoke_viidi
Vxb:__ZN25SingleBlockMemoryFileData9SetLengthEy
nGl:_Array_Sort_TisOrderBlock_t1585977831_m2922111197_gshared
Fqo:__ZNSt3__211char_traitsIcE6lengthEPKc
mcg:_SByte_System_IConvertible_ToChar_m1489191771_AdjustorThunk
uY:__ZN9AudioClip7CleanupEv
G4o:__ZNK15dense_hashtableINSt3__24pairIK10KeyWrapperIP11Il2CppClassES4_EES5_N6il2cpp8metadata16SZArrayClassHashEN14dense_hash_mapIS5_S4_SA_NS5_14EqualsComparerINS9_19SZArrayClassCompareEEENS0_9allocatorIS7_EEE9SelectKeyESE_SG_E12test_deletedEj
J2i:_Convert_ToInt16_m1223489986
Pad:__Z18Transfer_BlittableI8JSONReadLb0EdEvRK29SerializationCommandArgumentsR31RuntimeSerializationCommandInfo
a9a:__ZN14SafeBinaryRead22TransferWithTypeStringI7CubemapEEvRT_PKcS5_17TransferMetaFlags
FFb:__ZN21InstanceBufferJobDataIN10Instancing11DrawAPIArgsEED2Ev
B3h:_SynchronizationAttribute_EnterContext_m1660729920
sko:_Canvas_get_referencePixelsPerUnit_m3420541976
r7m:_Event_get_current_m2393892120
Pzb:__ZNK9GfxDevice13GetViewMatrixEv
Jck:_UnmanagedMemoryStream_Dispose_m2681886347
Gqi:_Array_Copy_m1988610914
Ppb:__ZN17RemapPPtrTransferC2E24TransferInstructionFlagsb
wog:_InternalEnumerator_1_System_Collections_IEnumerator_get_Current_m1295084274_gshared
$Q:__ZN14SafeBinaryRead21TransferSTLStyleArrayI22OffsetPtrArrayTransferIiEEEvRT_17TransferMetaFlags
vna:__ZN8TypeTree8BlobReadERPKhS1_ib
DWf:__ZN6il2cpp2vm9Exception13RaiseIfFailedEibP19Il2CppSequencePoint
G3e:__ZL87Display_t1387065949_CustomAttributesCacheGenerator_Display_GetSystemExtImpl_m2808197389P21CustomAttributesCache
prg:__Z44InternalEnumerator_1_get_Current_m2223614542P32InternalEnumerator_1_t1451382081PK10MethodInfo
ioe:_CanvasUpdateRegistry_InternalRegisterCanvasElementForGraphicRebuild_m3522560454
Sx:__ZN7mecanim9animation23ComputeRootMotionValuesERKNS0_14AvatarConstantERKNS0_14SkeletonTQSMapERKNS0_16MotionXReferenceERNS_10ValueArrayESB_SB_b
mob:__ZN18LoadSceneOperation23GetAllowSceneActivationEv
VOa:__ZN6CameraD0Ev
Bwo:__ZNK6il2cpp2vm17TypeNameParseInfo10is_boundedEv
JYd:__ZN11UnityEngine9Analytics20BasePersistentValues5ResetEv
jWm:_ReadOnlyCollection_1_System_Collections_Generic_IListU3CTU3E_Insert_m2579693514_gshared
BA:__ZN7mecanim12AndValueMaskILb0EEEvPKNS_14ValueArrayMaskEPS1_
Cmb:__ZN14SafeBinaryRead21TransferSTLStyleArrayINSt3__26vectorIi13stl_allocatorIiL18MemLabelIdentifier13ELi16EEEEEEvRT_17TransferMetaFlags
UCk:_EncoderFallback__cctor_m3806755293
Dpg:_InternalEnumerator_1__ctor_m962177456_AdjustorThunk
eAd:_raccess_guess_apple_double
t5d:__ZL50__ManagedRegistrationHelperFunction_SubsystemProxyPv
w3b:__ZL18ProgramUniform1uivPK7ApiGLESjiihPKv
MFc:__ZN14Texture2DArray13RebuildMipMapEv
SAo:__ZN13Il2CppHashSetIPK17Il2CppGenericInstN6il2cpp8metadata21Il2CppGenericInstHashENS4_24Il2CppGenericInstCompareENSt3__29allocatorI10KeyWrapperIS2_EEEEC2EjRKS5_RKS6_
tHb:__Z18Transfer_BlittableI14SafeBinaryReadLb1EaEvRK29SerializationCommandArgumentsR31RuntimeSerializationCommandInfo
ozc:__ZN9ShaderLab20SerializedSubProgram14AddVectorParamEPKcii15ShaderParamTypei
tqm:_List_1_GetEnumerator_m563931292_gshared
Z1a:__ZN18StreamedBinaryRead19TransferSTLStyleMapINSt3__23mapIN9ShaderLab16FastPropertyNameEfNS1_4lessIS4_EENS1_9allocatorINS1_4pairIKS4_fEEEEEEEEvRT_17TransferMetaFlags
ftp:_GC_max
BQd:__ZN2UI14CanvasRenderer12CleanupClassEv
HZi:_Enumerator__ctor_m3362421874
Mfp:__ZN6il2cpp2vm6Object3BoxEP11Il2CppClassPv
d2o:__ZN6il2cpp2vm6Thread7SetNameEP12Il2CppThreadP12Il2CppString
Utl:__Z74RuntimeInvoker_Double_t594665363_DateTime_t3738529785_DateTime_t3738529785PFvvEPK10MethodInfoPvPS4_
u9:__ZN11UnityEngine15CloudWebService10RestClientINS0_23WebRequestRestHeaderMapEE16SetRequestHeaderERKN4core12basic_stringIcNS4_20StringStorageDefaultIcEEEESA_
Hmb:__ZN30RuntimeInitializeOnLoadManager15ClassMethodInfo8TransferI14SafeBinaryReadEEvRT_
N6h:_ConstructionCall_InitDictionary_m2824447813
s6:__ZL22InitializeModule_Audiov
Hyb:__ZN16MemoryFileSystem8IsLockedERK13FileEntryData
f9l:__Z35KeyValuePair_2_ToString_m2480962023P26KeyValuePair_2_t3842366416PK10MethodInfo
H7o:__ZN6il2cpp6icalls8mscorlib6System2IO6MonoIO5WriteEiP11Il2CppArrayiiPi
vEh:_Mathf_InverseLerp_m4155825980
qdl:__Z92RuntimeInvoker_RuntimeObject_RuntimeObject_RuntimeObject_SByte_t1669577662_SByte_t1669577662PFvvEPK10MethodInfoPvPS4_
kf:_emscripten_glBindRenderbuffer
bwn:_UriScheme__ctor_m1399779782
$Pi:_Context_set_ReadSequenceNumber_m2154909392
Mnm:_List_1_System_Collections_IList_Insert_m1011775503_gshared
kvp:_GC_dirty_init
sdp:__ZN6il2cpp2vm5Image33GetCachedMemoryMappedResourceFileEP24Il2CppReflectionAssembly
Kdp:__ZN6il2cpp2vm5Field14GetValueObjectEP9FieldInfoP12Il2CppObject
YRd:__ZNK2UI6Canvas16GetTargetDisplayEv
a$d:__Z63Register_UnityEngine_Analytics_CustomEventData_Internal_Destroyv
N_k:_TimeSpan_CompareTo_m3633415627_AdjustorThunk
$Tb:__ZN13MonoBehaviour17RemoveFromManagerEv
oao:_Vector3_get_Item_m668685504_AdjustorThunk
GPa:__ZN12ImageFilters14AddImageFilterERK11ImageFilter
Sab:__ZL11DecodeValuePPKcS0_
muk:_WindowsIdentity_System_Runtime_Serialization_IDeserializationCallback_OnDeserialization_m3428853631
Yda:__ZN13MemoryManagerC2Ev
Djh:_ScrollRect_SetDirty_m214267968
PAl:__Z74RuntimeInvoker_Int32_t2950945753_UIVertex_t4057497605_UIVertex_t4057497605PFvvEPK10MethodInfoPvPS4_
TTg:__Z73Enumerator_System_Collections_IDictionaryEnumerator_get_Value_m3510383352P22Enumerator_t2086727927PK10MethodInfo
p7l:_RSAParameters_t1728406613_marshal_pinvoke_cleanup
_xb:__ZN20ArchiveStorageReader28AcquireAndPrefillUnusedBlockEjPNS_11CacheResultE
Dsi:_Boolean_System_IConvertible_ToDateTime_m603510836
HFc:__Z12NHxRoughnessIA4_tEvP9Texture2DPT_iiii
q_d:__ZN11UnityEngine15PlatformWrapper33GetTimeSinceStartupInMillisecondsEv
U4c:__Z38Register_UnityEngine_GUIStyle_get_fontv
nra:__ZN18AsyncUploadManagerD2Ev
qkk:__ZN21InterfaceFuncInvoker2Ii20UIVertex_t4057497605S0_E6InvokeEjP11Il2CppClassP12Il2CppObjectS0_S0_
Csb:__ZN9Transform5ResetEv
bbj:_DelegateSerializationHolder__ctor_m23226427
uBa:__ZL59__ManagedRegistrationHelperFunction_GraphicsDeviceTypeProxyPv
O2i:_Decimal_op_Explicit_m1842265407
VNb:__Z22TransferField_NonArrayI24GenerateTypeTreeTransfer16Converter_StringEvRK23StaticTransferFieldInfoR31RuntimeSerializationCommandInfoRT0_
gEd:_UNITY_FT_CMap_New
w_c:__Z38Transform_CUSTOM_set_position_InjectedP12Il2CppObjectRK8Vector3f
pUc:__Z57Register_UnityEngine_RectTransform_get_anchorMax_Injectedv
Kdl:__Z109RuntimeInvoker_Void_t1185182177_RuntimeObject_RuntimeObject_RuntimeObject_SByte_t1669577662_SByte_t1669577662PFvvEPK10MethodInfoPvPS4_
vng:_InternalEnumerator_1_MoveNext_m154749640_AdjustorThunk
oWb:__Z17MainLoopKeepalivePv
c5e:__ZL99RectOffset_t1369453676_CustomAttributesCacheGenerator_RectOffset_t1369453676____bottom_PropertyInfoP21CustomAttributesCache
bP:__ZN15AnimationBinder10BindCurvesERKN4core8hash_mapI7CurveIDj10hash_curveNSt3__28equal_toIS2_EEEER9TransformR13dynamic_arrayI20BoundCurveDeprecatedLj0EERNS4_6vectorIPSA_13stl_allocatorISH_L18MemLabelIdentifier26ELi16EEEE
pBo:__ZN15dense_hashtableI10KeyWrapperIPK17Il2CppGenericInstES4_N6il2cpp8metadata21Il2CppGenericInstHashEN14dense_hash_setIS4_S7_NS4_14EqualsComparerINS6_24Il2CppGenericInstCompareEEENSt3__29allocatorIS4_EEE8IdentityESB_SE_E12expand_arrayEjN21dense_hash_map_traits17integral_constantIbLb0EEE
NDg:_InternalEnumerator_1_get_Current_m1588647567_AdjustorThunk
V9o:__ZN14dense_hash_mapI10KeyWrapperIP14Il2CppIUnknownEjN6il2cpp5utils11PointerHashIS1_EENS3_14EqualsComparerINSt3__28equal_toIS2_EEEENS9_9allocatorINS9_4pairIKS3_jEEEEED2Ev
dBf:_ILGenerator_Emit_m2239205197
vPe:__ZL51GCHandle_t3351438187_CustomAttributesCacheGeneratorP21CustomAttributesCache
f3g:_InputField_get_caretBlinkRate_m3620074524
BRm:_ReadOnlyCollection_1_System_Collections_Generic_IListU3CTU3E_set_Item_m375376101_gshared
Gpg:_InternalEnumerator_1_System_Collections_IEnumerator_Reset_m1716381123_AdjustorThunk
g7l:_RSAPKCS1SignatureFormatter_CreateSignature_m3191980616
x0a:__ZN10builtintex16GetDefaultTexEnvE16TextureDimensionb
Adc:__Z19SetupLODFadeKeywordR17ShaderPassContextb
G5b:__ZL25CheckCopyTextureArgumentsRK7ApiGLESP11GLESTextureS3_
xfe:_PointerEventData_get_pointerCurrentRaycast_m2627585223
RDg:_InternalEnumerator_1__ctor_m362401472_AdjustorThunk
Pff:__ZL104UnityWebRequest_t463507806_CustomAttributesCacheGenerator_UnityWebRequest_get_isNetworkError_m1231611882P21CustomAttributesCache
MNp:_glDeleteShader__wrapper
oin:_GUIStyle_GetStyleStatePtr_m751258175
jua:__ZNK15PlayableMethods18InvokeOnGraphStartER18ScriptingObjectPtrRK9HPlayable
sNb:__Z29Transfer_Blittable_ArrayFieldI24GenerateTypeTreeTransferyEvRT_R9ArrayInfoRK23StaticTransferFieldInfo
bWg:__Z31Enumerator_MoveNext_m3542650857P22Enumerator_t1626871233PK10MethodInfo
oZ:__ZN4FMOD7SystemI9playSoundE17FMOD_CHANNELINDEXPNS_5SoundEbPPNS_7ChannelE
JYj:_CultureInfo_set_DateTimeFormat_m1843682751
f7m:_Event_get_commandName_m4275147343
AA:__ZN27AnimationLayerMixerPlayable17LayerMixerProcessEP35AnimationPlayableEvaluationConstantP32AnimationPlayableEvaluationInputP33AnimationPlayableEvaluationOutputM17AnimationPlayableFvS1_S3_S5_EMS_FvS1_S3_S5_ESA_MS_FvS5_S1_S3_S5_ifE
U1i:_Decimal_op_Implicit_m4256234411
XHb:__Z24TransferPPtrToMonoObjecti17ScriptingClassPtrP23DataToCreateNullWrapper24TransferInstructionFlags
dal:__Z60RuntimeInvoker_RuntimeObject_RuntimeObject_Int16_t2552820387PFvvEPK10MethodInfoPvPS4_
s9j:_StreamReader__ctor_m3941437302
YEa:__ZN9Scripting11UnityEngine13GradientProxy9InitProxyEv
oKp:dynCall_viif
C_f:_RemoteActivator_Activate_m3917386814
dfe:__ZN28PointerEventData_t380790109238set_U3CclickCountU3Ek__BackingField_18Ei
Zak:_StringReader_ReadLine_m2337102945
Rsi:_Boolean_System_IConvertible_ToSingle_m1524606222
aLb:__ZL26Transfer_SimpleNativeClassI17RemapPPtrTransfer8GradientLb0EEvRK29SerializationCommandArgumentsR31RuntimeSerializationCommandInfo
s4e:__ZL49Shader_t4151988712_CustomAttributesCacheGeneratorP21CustomAttributesCache
ati:_Boolean_Equals_m2410333903_AdjustorThunk
kKo:__ZN6il2cpp6icalls8mscorlib6System8MonoType14get_attributesEP20Il2CppReflectionType
Jph:_Slider_OnPointerDown_m3052086073
jLc:__ZL41RuntimeInitializeOnSceneLoadedBeforeAwakeiR18AwakeFromLoadQueue16SceneLoadingMode
paa:__ZN13UploadHandlerD2Ev
vV:__GLOBAL__sub_I_Modules_AssetBundle_Public_1_cpp
LKp:dynCall_viiiiiffi
azh:_InvokableCallList_PrepareInvoke_m4003891334
rf:_emscripten_glBlendFuncSeparate
OHm:_Collection_1_Add_m809543251_gshared
kDa:__ZN9Scripting11UnityEngine9Rendering28AsyncGPUReadbackRequestProxy9InitProxyEv
Dja:__Z20scripting_string_newPKc
fWa:__ZN18StreamedBinaryRead21TransferSTLStyleArrayI13dynamic_arrayI21PlatformShaderDefinesLj0EEEEvRT_17TransferMetaFlags
dqn:_Parser_IsSingleline_m326238187
GKk:_BigInteger_Randomize_m2194703121
iAi:_CollectionBase_get_Count_m1708965601
fhg:_HMAC__ctor_m97939284
fnm:_List_1_GetEnumerator_m730414427_gshared
E5k:_ValueType_DefaultEquals_m2927252100
z6c:__ZN9JSONWrite12AppendToNodeEPN5Unity9rapidjson12GenericValueINS1_4UTF8IcEE13JSONAllocatorEEPKcRS6_
NMk:_ASN1_ToString_m1340204511
vid:__ZN16PhysicsManager2D20GetRigidBodyVelocityERK11Rigidbody2D
ysj:_X509Store_get_Certificates_m2149701265
I0k:_Type_GetField_m2961003358
Gnf:__ZL144StandaloneInputModule_t2760469101_CustomAttributesCacheGenerator_StandaloneInputModule_t2760469101____allowActivationOnMobileDevice_PropertyInfoP21CustomAttributesCache
$Sk:_StringBuilder_set_Chars_m3548656617
INo:__ZN6il2cpp2os4File17GetFileAttributesERKNSt3__212basic_stringIcNS2_11char_traitsIcEENS2_9allocatorIcEEEEPi
fM:__ZNSt3__26__sortIRPFbPKN8Animator11AnimatorJobES4_EPS4_EEvT0_S9_T_
k3:__ZN17AudioCustomFilterD2Ev
Cif:__ZL86GUIStyle_t3956901511_CustomAttributesCacheGenerator_GUIStyle_Internal_Copy_m2771217011P21CustomAttributesCache
bRb:__Z18Transfer_BlittableI18StreamedBinaryReadLb0E12PropertyNameEvRK29SerializationCommandArgumentsR31RuntimeSerializationCommandInfo
Dxl:__Z56RuntimeInvoker_Void_t1185182177_MonoResource_t4103430009PFvvEPK10MethodInfoPvPS4_
W2c:__ZNK8GUIStyle13GetLineHeightEv
A4b:__ZN18GfxFramebufferGLES18ReleaseFramebufferEP17RenderSurfaceBaseP14GfxContextGLES
F9c:__Z18Transfer_BlittableI8JSONReadLb1EiEvRK29SerializationCommandArgumentsR31RuntimeSerializationCommandInfo
i5l:__ZNK23RC2Transform_t4583214879get_R1_13Ev
zQb:__Z18Transfer_BlittableI18StreamedBinaryReadLb1EN4math12int2_storageEEvRK29SerializationCommandArgumentsR31RuntimeSerializationCommandInfo
Taa:__ZN19CloudServiceHandler34HandleSaveFileWebRequestPlayerLoopEv
ZB:__ZN7mecanim21ValueArrayReverseCopyEPKNS_18ValueArrayConstantEPKNS_10ValueArrayES2_PS3_PKi
C2:__Z31GetParentSampleClipFromInstancePN11SoundHandle8InstanceE
iCc:__ZNK28RectTransformPropertyBinding13GetFloatValueERKN11UnityEngine9Animation10BoundCurveE
Rnc:__ZN6Camera22StandaloneCustomRenderENS_10RenderFlagEP6ShaderRKN4core12basic_stringIcNS3_20StringStorageDefaultIcEEEEPNS_21PerformRenderFunctionE
Wik:_Array_InternalArray__IndexOf_TisKeyValuePair_2_t2401056908_m4118889689_gshared
_Hf:__ZN31OpCodes_t126150456_StaticFields15set_Ldind_I8_75E17OpCode_t123070264
IBp:__ZN6il2cpp2os16ThreadLocalValue8GetValueEPPv
pqj:_X509Certificate2_get_PublicKey_m370665820
eWg:__Z34Enumerator_get_Current_m2704389975P22Enumerator_t1626871233PK10MethodInfo
hGo:__ZN6il2cpp2vm13MetadataCache14GetGenericInstEPKPK10Il2CppTypej
l4:__ZN13AudioListener17ReadExtensionNameEi
sl:_glUniform1uiv
yp:setThrew
PVi:_SslClientStream_OnLocalPrivateKeySelection_m1934775249
v3o:__ZN15dense_hashtableINSt3__24pairIK10KeyWrapperIP11Il2CppClassES4_EES5_N6il2cpp8metadata16SZArrayClassHashEN14dense_hash_mapIS5_S4_SA_NS5_14EqualsComparerINS9_19SZArrayClassCompareEEENS0_9allocatorIS7_EEE9SelectKeyESE_SG_E5clearEv
gui:_Byte_ToString_m721125428
Ruc:__ZN14SafeBinaryRead21TransferSTLStyleArrayINSt3__26vectorIN9ShaderLab20SerializedSubProgramENS1_9allocatorIS4_EEEEEEvRT_17TransferMetaFlags
vjk:_Array_InternalArray__IndexOf_TisX509ChainStatus_t133602714_m48896230_gshared
xvb:__ZN19dynamic_block_arrayI13FileEntryInfoLj32EE4growEj
O9c:__Z15Transfer_StringI8JSONReadLb1EEvRK29SerializationCommandArgumentsR31RuntimeSerializationCommandInfo
Pra:__ZN16LightmapSettings15AppendLightmapsEiRK13dynamic_arrayI12LightmapDataLj0EE
Hwa:__ZN6prcoreL17RemapGenericFloatI17TexFormatRGBFloat15TexFormatRGHalfEEvPKNS_9InnerInfoE
ihp:__ZN14dense_hash_mapI10KeyWrapperIP12Il2CppObjectEN6il2cpp2gc9CachedCCWENS4_5utils11PointerHashIS1_EENS3_14EqualsComparerINSt3__28equal_toIS2_EEEENSB_9allocatorINSB_4pairIKS3_S6_EEEEE4findERSH_
B4:__Z36AudioSource_CUSTOM_PlayOneShotHelperP12Il2CppObjectS0_f
vGd:_sfnt_load_face
rzd:_UNITY_FT_Render_Glyph_Internal
R9m:_GUISettings_get_cursorFlashSpeed_m873595026
wEd:_UNITY_ft_service_list_lookup
S1c:__ZN5IMGUI21SelectReceivingWindowER8GUIStateb
dkn:_IntStack_set_Count_m756607812
Xhg:_HMAC_Initialize_m3157696427
Ts:__ZL59__ManagedRegistrationHelperFunction_RotationConstraintProxyPv
uEp:___strchrnul
gva:__ZN4core8hash_mapINS_12basic_stringIcNS_20StringStorageDefaultIcEEEEPKvNS_4hashIS4_EENSt3__28equal_toIS4_EEEixERKS4_
hfa:__ZN13BaseAllocator13TryDeallocateEPv
_nj:_X509SubjectKeyIdentifierExtension__ctor_m2055934916
Nem:_Enumerator_Dispose_m2531396701_AdjustorThunk
BEe:__ZNK33UIVertex_t4057497605_StaticFields17get_simpleVert_10Ev
iDp:_sprintf
Zzc:__ZN9Scripting25CreateNullExceptionObjectE18ScriptingObjectPtr
DQk:_PrivateKeyInfo_DecodeRSA_m2889346634
Z2:__ZN13AudioListener17RemoveFromManagerEv
Ti:_glAttachShader
Vpe:_ContentSizeFitter_SetLayoutHorizontal_m2833273874
iOm:_ReadOnlyCollection_1_System_Collections_IList_RemoveAt_m134366701_gshared
rOa:__ZNK6Camera19GetProjectionMatrixEv
aSk:_SymmetricTransform_InternalTransformBlock_m946892271
Tpf:__ZL70InputField_t3762917431_CustomAttributesCacheGenerator_m_SelectionColorP21CustomAttributesCache
d4g:_InputField_SetToCustomIfContentTypeIsNot_m2813459946
Fpd:__ZN21b2FindNewContactsTask15AddContactPairsERK16b2ContactManagerP14b2FixtureProxyS4_R13dynamic_arrayINS_17b2DeferredContactELj0EE
q2e:__ZL70RuntimePlatform_t4159857903_CustomAttributesCacheGenerator_FlashPlayerP21CustomAttributesCache
d2j:_Guid_GetHashCode_m3042133858_AdjustorThunk
_tp:_GC_next_used_block
wIa:__Z38PreallocateObjectFromPersistentManagerib
GWa:__ZN15ReflectionProbe23VirtualRedirectTransferER24GenerateTypeTreeTransfer
mxj:_Interpreter_Backtrack_m2828876822
m8a:__ZNK9Texture2D20GetUnscaledTextureIDEv
Dcg:_SByte_System_IConvertible_ToType_m4075253447
NUo:__ZN15dense_hashtableINSt3__24pairIK10KeyWrapperINS1_IPK12PropertyInfoP11Il2CppClassEEEjEES9_17ReflectionMapHashIS8_EN14dense_hash_mapIS9_jSD_NS9_14EqualsComparerINS0_8equal_toIS8_EEEENS0_9allocatorISB_EEE9SelectKeyESI_SK_E21fill_range_with_emptyEPSB_SO_
nMp:_glFenceSync__wrapper
Twk:_Single_System_IConvertible_ToUInt64_m3299129161
L3e:__ZL53GameObject_t1113636619_CustomAttributesCacheGeneratorP21CustomAttributesCache
Qqp:__ZN6il2cpp2vm17ThreadStateSetterC2ENS0_11ThreadStateE
r8a:__ZNK9Texture2D26CanReuploadDataToGfxDeviceEv
syg:_InternalEnumerator_1_Dispose_m1971295898_AdjustorThunk
mUe:__ZL63CodeAccessPermission_t2681295399_CustomAttributesCacheGeneratorP21CustomAttributesCache
Rob:__Z29ClearRepeatingLogMessageStatev
WUg:__Z39Enumerator_get_CurrentValue_m1048753843P21Enumerator_t934104361PK10MethodInfo
Uzg:_InternalEnumerator_1_get_Current_m3191242573_gshared
aqp:__ZN6il2cpp2vm6String6NewLenEPKcj
Bra:__ZN21EnlightenSceneMappingaSERKS_
ZOh:_RectTransform_set_anchorMax_Injected_m389283802
YLa:__ZN14SafeBinaryRead21TransferSTLStyleArrayI13dynamic_arrayI17SortingLayerEntryLj0EEEEvRT_17TransferMetaFlags
m7b:__ZN7ApiGLESD2Ev
aam:_KeyValuePair_2_get_Key_m2065642340_AdjustorThunk
uNa:__ZN9Transform47ClearTransformHierarchyAndApplyToSerializedDataEv
tbc:__ZN22AsyncGPUReadbackBuffer4InitEjb
bbd:__ZN8JSONRead21TransferSTLStyleArrayINSt3__26vectorI8MonoPPtr13stl_allocatorIS3_L18MemLabelIdentifier1ELi16EEEEEEvRT_17TransferMetaFlags
Rip:__ZN6il2cpp6icalls8mscorlib6SystemL16write_enum_valueEPcP11Il2CppClassy
z6g:_InputField_IsSelectionVisible_m3622592134
xri:_AssemblyLoadEventHandler_Invoke_m1462077361
KIp:dynCall_fidi
dlk:_Array_InternalArray__ICollection_Add_TisCustomAttributeNamedArgument_t287865710_m4157175270_gshared
Qdn:_GUILayoutEntry__ctor_m2229197035
XRa:__ZN15dense_hashtableINSt3__24pairIKN9ShaderLab7Program23ShaderKeywordSetAndHashEPKNS2_10SubProgramEEES4_NS3_24ShaderKeywordHashFunctorEN14dense_hash_mapIS4_S8_SA_NS0_8equal_toIS4_EE13stl_allocatorIS9_L18MemLabelIdentifier67ELi16EEE9SelectKeyESD_SG_E15insert_noresizeERKS9_
sfd:__ZL62__ManagedRegistrationHelperFunction_CachedContactPoints2DProxyPv
b_a:__ZN13RenderTexture12SetDimensionE16TextureDimension
AVi:_SslClientStream_set_ClientCertSelectionDelegate_m1261530976
Mca:__GLOBAL__sub_I_Runtime_Graphics_8_cpp
zd:_SDL_FreeRW
eTd:__Z34CanvasRenderer_Get_Custom_PropCullP12Il2CppObject
G1:__ZN20SoundChannelInstance8getDelayE14FMOD_DELAYTYPEPjS1_
kSa:__ZNSt3__26vectorIN20GpuProgramParameters15StructParameterENS_9allocatorIS2_EEEC2ERKS5_
Jlg:_ArrayReadOnlyList_1_Contains_m232667507_gshared
KKh:_PlayableHandle_GetPlayableType_m432385838_AdjustorThunk
byd:__ZNSt3__26vectorIN20TextRenderingPrivate8FontImpl13CharacterInfoE13stl_allocatorIS3_L18MemLabelIdentifier1ELi16EEE8__appendEj
v:tempBigInt
RDl:_Array_InternalArray__Insert_TisKeyframe_t4206410242_m1558638568_gshared
ai:_emscripten_glVertexAttrib1fv
vvc:__ZNSt3__26vectorIN9ShaderLab20SerializedSubProgram12UAVParameterENS_9allocatorIS3_EEE7reserveEj
t2d:__ZN29UnityWebRequestAsyncOperationD0Ev
CHp:__ZSt11__terminatePFvvE
o3o:__ZN15dense_hashtableINSt3__24pairIK10KeyWrapperIP11Il2CppClassES4_EES5_N6il2cpp8metadata16SZArrayClassHashEN14dense_hash_mapIS5_S4_SA_NS5_14EqualsComparerINS9_19SZArrayClassCompareEEENS0_9allocatorIS7_EEE9SelectKeyESE_SG_E9set_valueEPS7_RKS7_
g_:__ZN12AudioManager14systemCallbackEP11FMOD_SYSTEM24FMOD_SYSTEM_CALLBACKTYPEPvS3_
K1o:__ZN6il2cpp2vm6Thread10InitializeEP12Il2CppThreadP12Il2CppDomain
kTm:_ReadOnlyCollection_1_System_Collections_Generic_ICollectionU3CTU3E_Clear_m3451551308_gshared
tle:_BaseMeshEffect_OnEnable_m3291426649
QTa:__Z26TransformVerticesInnerLoopILb0ELb0ELb1EEvPhRK10Matrix4x4fRK10Matrix3x3fbjPKhiS8_ii25GfxTransformVerticesFlagsj
YXa:__ZN16ReflectionProbes16UpdateSampleDataEv
h7m:_Event_Internal_Destroy_m928770705
P6i:_DateTime_System_IConvertible_ToSingle_m2193708681_AdjustorThunk
GWh:_TrackingServices_NotifyUnmarshaledObject_m2784831802
ly:__ZN7mecanim9animation15CloneClipMemoryEPKNS0_10ClipMemoryER20RuntimeBaseAllocator
TYj:_CultureInfo_GetCultureInfo_m56098747
CJg:__Z38InternalEnumerator_1__ctor_m2490839835P31InternalEnumerator_1_t669594426P11Il2CppArrayPK10MethodInfo
Ekc:__Z20AddActiveLocalLightsR11CullResultsR27LocalLightCullingParametersPPK15SharedLightDataPK8Vector4fRK9IndexListPfRSA_R12ActiveLightsSG_P5RectTIfEP13TargetEyeMask
KKe:__ZL80Hashtable_t1853889766_CustomAttributesCacheGenerator_Hashtable__ctor_m1763145853P21CustomAttributesCache
D1i:_Convert_ToDecimal_m1284148187
gEg:__Z40InternalEnumerator_1_MoveNext_m190587569P32InternalEnumerator_1_t1629489814PK10MethodInfo
ZBd:_cf2_getNormalizedVector
Mc:_JS_Sound_Play
PXg:_KeyCollection_GetEnumerator_m1862005650_gshared
BSp:_emscripten_glRenderbufferStorage__wrapper
kUm:_ReadOnlyCollection_1_System_Collections_IList_set_Item_m1538987737_gshared
BMg:_DefaultComparer_Compare_m1920986590_gshared
ouc:__ZN9ShaderLab16SerializedShader8TransferI14SafeBinaryReadEEvRT_
uCe:_GridLayoutGroup_set_constraint_m3308895167
Z7h:_ConstructionCallDictionary_SetMethodProperty_m3145285304
cCj:_Int32_System_IConvertible_ToUInt32_m3557270157
Wjb:__ZN11TimeManagerD2Ev
kng:_InternalEnumerator_1_System_Collections_IEnumerator_get_Current_m1503522504_gshared
yL:__ZN7mecanim8skeleton13SkeletonAlignEPKNS0_8SkeletonERKN4math7_float4ES7_i
BGc:__ZN19ShaderPropertySheet16SetVectorIndexedEN9ShaderLab16FastPropertyNameEifRK8Vector4fNS_8SetFlagsE
Y$k:_Type_get_IsAbstract_m1120089130
Gao:_Vector3_get_normalized_m2454957984_AdjustorThunk
Ywn:_UriFormatException__ctor_m1115096473
evg:_InternalEnumerator_1_Dispose_m2818366163_AdjustorThunk
Qgk:_Array_InternalArray__IEnumerable_GetEnumerator_TisSlot_t384495010_m460993382_gshared
D2o:__ZN15dense_hashtableINSt3__24pairIK10KeyWrapperINS1_IP11Il2CppClassjEEES4_EES6_N6il2cpp8metadata14ArrayClassHashEN14dense_hash_mapIS6_S4_SB_NS6_14EqualsComparerINSA_17ArrayClassCompareEEENS0_9allocatorIS8_EEE9SelectKeyESF_SH_E9copy_fromERKSK_j
xdb:__ZN21EnlightenSceneMapping8TransferI19StreamedBinaryWriteEEvRT_
CHa:__ZN9Scripting5Unity11Collections31NativeFixedLengthAttributeProxy9InitProxyEv
wjn:_GUIUtility_IsExitGUIException_m3644066650
bYc:__Z40SpriteRenderer_CUSTOM_set_color_InjectedP12Il2CppObjectRK10ColorRGBAf
Isb:__ZN9Transform23VirtualRedirectTransferER19StreamedBinaryWrite
Jba:__ZN11UnityEngine15CloudWebService14DataDispatcher4StopEv
Ddm:__Z29Enumerator_Dispose_m786980821P21Enumerator_t652329154PK10MethodInfo
sdi:_StackBuilderSink_ExecuteAsyncMessage_m277782655
xvc:__ZNSt3__26vectorIN9ShaderLab20SerializedSubProgram12UAVParameterENS_9allocatorIS3_EEE8__appendEj
q1c:__ZN5IMGUI9GUIWindow5OnGUIER8GUIState
h_c:__Z55Register_UnityEngine_Texture2DArray_Internal_CreateImplv
avp:_GC_maybe_gc
oPc:__ZNK17AnimationCurveTplI11QuaternionfE8GetRangeEv
Amk:_Array_InternalArray__ICollection_CopyTo_TisSingle_t1397266774_m455540885_gshared
Wya:__ZN17ScriptingGCHandle7AcquireE18ScriptingObjectPtr25ScriptingGCHandleWeakness
ejl:__Z74RuntimeInvoker_RuntimeObject_RuntimeObject_Int64_t3736567304_RuntimeObjectPFvvEPK10MethodInfoPvPS4_
Eoo:_SessionStateChanged_Invoke_m4203746932
GDg:__Z75InternalEnumerator_1_System_Collections_IEnumerator_get_Current_m2395961985P31InternalEnumerator_1_t746136913PK10MethodInfo
DEa:__ZN9Scripting11UnityEngine17LightmapDataProxy12CleanupProxyEv
hdi:_ServerObjectReplySink_AsyncProcessMessage_m1580266605
W2o:__ZN15dense_hashtableINSt3__24pairIK10KeyWrapperINS1_IP11Il2CppClassjEEES4_EES6_N6il2cpp8metadata14ArrayClassHashEN14dense_hash_mapIS6_S4_SB_NS6_14EqualsComparerINSA_17ArrayClassCompareEEENS0_9allocatorIS8_EEE9SelectKeyESF_SH_E21fill_range_with_emptyEPS8_SL_
Lxo:__ZN14dense_hash_mapI10KeyWrapperIPK11Il2CppClassEPKcN6il2cpp5utils11PointerHashIS1_EENS4_14EqualsComparerINSt3__28equal_toIS3_EEEENSC_9allocatorINSC_4pairIKS4_S6_EEEEE13set_empty_keyERSI_
dva:__ZN20BurstCompilerServiceC2Ev
sfn:_GUILayoutUtility_CreateGUILayoutGroupInstanceOfType_m1053115040
P3l:_HashSet_1__ctor_m620629637_gshared
G5a:__Z21HasAlphaTextureFormat13TextureFormat
e6:__ZN12AudioManager6UpdateEv
uoj:_X509EnhancedKeyUsageExtension_ToString_m350388564
Byn:__Z30Comparison_1_Invoke_m668117148P24Comparison_1_t397019798922UILineInfo_t4195266810S1_PK10MethodInfo
Sv:__ZN8Animator12AddToManagerEv
_tj:_X509Chain__ctor_m2674663382
Dca:__GLOBAL__sub_I_Runtime_Core_Callbacks_0_cpp
aXg:_Enumerator_System_Collections_IEnumerator_Reset_m1959936800_AdjustorThunk
lTm:_ReadOnlyCollection_1_System_Collections_Generic_IListU3CTU3E_Insert_m1121807192_gshared
UUb:__ZN23CachedSerializationDataD2Ev
Qmc:__ZNK25CameraStackRenderingState31CalculateStereoCameraTargetTypeEv
wXa:__ZN14RenderSettings23VirtualRedirectTransferER14SafeBinaryRead
Ykd:__ZNK13b2CircleShape5CloneEP16b2BlockAllocator
Imp:__ZN6il2cpp2os10ThreadImpl15CurrentThreadIdEv
wbo:_Vector4_set_Item_m1183742235
fPn:_DragHandler_highlightPos_m3555889703
nXi:_Queue_CopyTo_m737385843
fqk:_SymmetricAlgorithm_get_Key_m3241860519
s8g:_U3CMouseDragOutsideRectU3Ec__Iterator1_Reset_m2233410497
wca:__GLOBAL__sub_I_Runtime_Camera_5_cpp
Jtd:__ZN10Collider2DC2E10MemLabelId18ObjectCreationMode
jKd:_UNITY_tt_face_load_fpgm
nNa:__Z17IsObjectAvailablei
mkb:__ZN12InputManagerD0Ev
cBm:_Queue_1_Peek_m1713833142_gshared
ayi:_SimpleEnumerator_MoveNext_m3113120129
Npg:_InternalEnumerator_1_System_Collections_IEnumerator_get_Current_m2889979481_AdjustorThunk
kNh:_Rect_get_position_m2115952571
HGa:__ZN9Scripting11UnityEngine15ColorGamutProxy12CleanupProxyEv
KMk:_ASN1_GetBytes_m3305539297
Dla:__ZNK15MonoScriptCache7ReleaseEv
xvo:__ZN6il2cpp2vm5Class13HasReferencesEP11Il2CppClass
aj:_glBindTexture
DEp:_snprintf
_lk:_Array_InternalArray__ICollection_CopyTo_TisKeyValuePair_2_t2401056908_m4025041902_gshared
Kca:__GLOBAL__sub_I_Runtime_Graphics_5_cpp
SPp:_emscripten_glVertexAttrib1fv__wrapper
Uyh:_InvokableCallList_RemoveListener_m1769379719
Aqb:__Z36scripting_liveness_calculation_begin17ScriptingClassPtriPFvPP12Il2CppObjectiPvES3_PFvvES7_
bSb:__Z29Transfer_Blittable_ArrayFieldI18StreamedBinaryRead10Matrix4x4fEvRT_R9ArrayInfoRK23StaticTransferFieldInfo
OR:__ZN7mecanim12statemachine13StateConstant8TransferI24GenerateTypeTreeTransferEEvRT_
yGh:_MonoBehaviour_Internal_IsInvokingAll_m2820042090
dv:__Z16AppendPathToHashRK5crc32PKc
t5k:_UnitySerializationHolder_GetModuleData_m1550266881
Msk:_String_Equals_m1744302937
txh:_Display__ctor_m501911701
JPm:_ReadOnlyCollection_1_System_Collections_Generic_IListU3CTU3E_Insert_m1020890112_gshared
Xre:_DefaultControls_SetDefaultTextValues_m1943359795
nfc:__Z19SetupMotionMatricesR6CameraR18RPDataMotionVector
mqo:__ZL7log2_64y
hN:__ZN8Animator11AnimatorJob11AddPlayableEP17AnimationPlayablef
jCe:_GridLayoutGroup_get_cellSize_m2967185053
B5i:_CurrentSystemTimeZone_GetUtcOffset_m340358963
Q1m:_PKCS12_Decrypt_m1280162536
pfd:__GLOBAL__sub_I_Physics2DScriptingClasses_cpp
eqg:_InternalEnumerator_1_get_Current_m3081223448_gshared
u7m:_Event_get_isMouse_m1058251071
Jzi:_CaseInsensitiveHashCodeProvider_AreEqual_m1790260777
FZc:__Z43SceneManager_CUSTOM_GetActiveScene_InjectedRi
ZEd:_otv_JSTF_validate
mSa:__ZN22CreateGpuProgramOutputC2Ev
dDi:_BigInteger_op_LessThanOrEqual_m3925173639
Izh:_PersistentCallGroup_Initialize_m4253175514
Csi:_Boolean_System_IConvertible_ToChar_m4279513009_AdjustorThunk
cfj:_DictionaryNodeEnumerator__ctor_m1005316675
lWh:_LogicalCallContext__ctor_m1263247987
EAj:_NumberFormatter_ScaleOrder_m3813786990
qZi:_Stack__ctor_m2602729586
pP:__Z21GetAnimatableBindTypeRK16TypeTreeIterator
aKa:__ZN11SpriteAtlas8TransferI14SafeBinaryReadEEvRT_
EQk:_PrivateKeyInfo_DecodeDSA_m771724585
lln:_Interval_get_Size_m4163671410_AdjustorThunk
p0g:__ZN22InputField_t376291743128set_m_CharacterValidation_28Ei
QDc:__ZN8GUILayer12CleanupClassEv
d3k:_UInt32_System_IConvertible_ToSByte_m1061556466
X$f:_WellKnownClientTypeEntry__ctor_m2471908952
rvo:__ZN6il2cpp2vm5Class4InitEP11Il2CppClass
xb:invoke_vidi
pJj:_NumberFormatter_FormatRoundtrip_m19342689
Lfi:_RemotingServices_CreateClientProxyForContextBound_m783705199
WOc:__ZNK15GUIEventManager15GetEventAtIndexEi
KRd:__ZN2UI14CanvasRenderer17SyncDirtyElementsER8JobFence
bRg:_Enumerator_System_Collections_IEnumerator_get_Current_m3816090481_gshared
upp:__ZN6il2cpp5utils11StringUtils15StringDuplicateEPKc
XXl:_DefaultComparer_Equals_m2480133610_gshared
ada:__GLOBAL__sub_I_Runtime_Logging_0_cpp
w8a:__ZN7Cubemap34UpdateFileTextureUploadInstructionEP24TextureUploadInstructionj
GRa:__ZNK9ShaderLab21ShaderRasterStateDesc16ToGfxRasterStateEPK19ShaderPropertySheetS3_R14GfxRasterState
Ssd:__ZN13BoxCollider2D8TransferI18StreamedBinaryReadEEvRT_
KGl:_Array_Sort_TisVector3_t3722313464_m1915176437_gshared
UBp:__ZN6il2cpp2os9EventImplC2Ebb
Wkh:_ScrollRect_OnInitializePotentialDrag_m3139711961
x0k:_Type_GetType_m3605423543
Qrm:_List_1_get_Item_m2113769949_gshared
Iha:__ZN13HandleManagerC2Ev
gap:__ZN15dense_hashtableINSt3__24pairIK10KeyWrapperIP14Il2CppIUnknownEjEES5_N6il2cpp5utils11PointerHashIS3_EEN14dense_hash_mapIS5_jSB_NS5_14EqualsComparerINS0_8equal_toIS4_EEEENS0_9allocatorIS7_EEE9SelectKeyESG_SI_E9set_valueEPS7_RKS7_
BH:__ZNSt3__26vectorIN13AnimationClip9PPtrCurveE13stl_allocatorIS2_L18MemLabelIdentifier26ELi16EEE6resizeEj
Lha:__Z20IsMatrixBuiltinParamPKcPi
wVk:_UnicodeEncoding_GetBytesInternal_m1902824297
dGc:__ZN8Renderer19PostInitializeClassEv
Whk:_Array_FindIndex_TisRuntimeObject_m2504082708_gshared
GRd:__ZNSt3__26__treeINS_12__value_typeINS_4pairIKiS3_EEN2UI14DepthSortLayerEEENS_19__map_value_compareIS4_S7_NS_4lessIS4_EELb1EEE13stl_allocatorIS7_L18MemLabelIdentifier1ELi16EEE25__emplace_unique_key_argsIS4_JRKNS_21piecewise_construct_tENS_5tupleIJOS4_EEENSK_IJEEEEEENS2_INS_15__tree_iteratorIS7_PNS_11__tree_nodeIS7_PvEEiEEbEERKT_DpOT0_
A5m:_X509Chain_FindCertificateRoot_m1937726457
Bsn:__ZNK22AnchorInfo_t33870111519get_pos_1Ev
XWd:__ZN11UnityEngine15PlatformWrapper21GetVRPlayAreaGeometryER13dynamic_arrayI8Vector3fLj0EE
sxp:__ZN6il2cpp6icalls8mscorlib6System8Delegate23CreateDelegate_internalEP20Il2CppReflectionTypeP12Il2CppObjectP22Il2CppReflectionMethodb
wTg:_Enumerator_System_Collections_IEnumerator_get_Current_m921113401_AdjustorThunk
QAi:_DictionaryEntry_get_Value_m618120527_AdjustorThunk
mUb:__ZN18DelayedCallManager18CancelCallDelayed2E4PPtrI6ObjectEPF15CallObjectStatePS1_PvES7_
BFp:_threebyte_strstr
uVl:_Dictionary_2_InitArrays_m2036227893_gshared
rLa:__ZN25ThreadsafeLinearAllocator10ReallocateEPvji
KGb:__Z18Transfer_BlittableI14SafeBinaryReadLb1E11QuaternionfEvRK29SerializationCommandArgumentsR31RuntimeSerializationCommandInfo
hwa:__ZN18SpriteAtlasManagerD0Ev
LWm:_SslHandshakeHash__ctor_m4169387017
ty:__ZN7mecanim9animation10SampleClipERKNS0_12ConstantClipEjPf
K3a:__ZN10Matrix4x4f8TransferI14SafeBinaryReadEEvRT_
eBn:__Z30Predicate_1_Invoke_m2308795536P23Predicate_1_t3776239877iPK10MethodInfo
Zdg:_CryptographicUnexpectedOperationException__ctor_m2381988196
VM:__ZN14AvatarPlayback8StopTimeEv
iwg:_InternalEnumerator_1_System_Collections_IEnumerator_get_Current_m4213507601_gshared
hpa:__Z6AppendRKN4core12basic_stringIcNS_20StringStorageDefaultIcEEEEPKc
f2i:_Convert_ToDouble_m996590115
Zgk:_Array_InternalArray__IEnumerable_GetEnumerator_TisCustomAttributeNamedArgument_t287865710_m523021714_gshared
_fp:__ZN6il2cpp2vm6Object12NullableInitEPhP12Il2CppObjectP11Il2CppClass
hS:__ZN18StreamedBinaryRead21TransferSTLStyleArrayI22OffsetPtrArrayTransferIKN4math7_float3EEEEvRT_17TransferMetaFlags
RAd:__ZN20TextRenderingPrivate19NativeTextGeneratorC2ERK11UTF16StringPNS_8FontImplE11ColorRGBA32ifRK8Vector2fbifiibffbbP13dynamic_arrayIN2UI8UIVertexELj0EE
jjn:_GUIUtility_RemoveCapture_m1294193818
m1b:__ZN7ApiGLES18ClearBufferSubDataEjN2gl12BufferTargetEll
U7o:__ZN6il2cpp6icalls8mscorlib6System5Array9GetLengthEP11Il2CppArrayi
S4c:__Z38Register_UnityEngine_GUIStyle_get_namev
nti:_Boolean_ToString_m663098404
NLd:_Split_Cubic
wa:invoke_fiiii
$6g:_InputField_OnSubmit_m3583210804
m3n:_UnityWebRequest_set_uploadHandler_m54574009
Pan:_TextEditor_MoveGraphicalLineEnd_m1598222378
avn:_Uri_CheckHostName_m2213216182
PPp:_emscripten_glBindRenderbuffer__wrapper
CJl:_Mesh_SetUvsImpl_TisVector2_t2156229523_m3009194955_gshared
nFi:_HMAC_set_Key_m3535779141
MGl:_Array_Sort_TisVector4_t3319028937_TisVector4_t3319028937_m4254533673_gshared
qGg:_InternalEnumerator_1_System_Collections_IEnumerator_Reset_m729791527_AdjustorThunk
qxi:_ArrayListWrapper_Contains_m2641184447
yLd:_ft_black_render
Zca:__GLOBAL__sub_I_Runtime_Interfaces_2_cpp
hgl:__Z177RuntimeInvoker_Int32_t2950945753_RuntimeObject_Int32_t2950945753_Int32_t2950945753_RuntimeObject_Int32_t2950945753_EncoderFallbackBufferU26_t2343550713_CharU5BU5DU26_t3299466565PFvvEPK10MethodInfoPvPS4_
BKp:dynCall_viiifi
b4b:__ZN18GfxFramebufferGLES20ActiveContextChangedEPP17RenderSurfaceBaseS2_
$Op:_glAttachShader__wrapper
zDb:__Z19PluginsRenderMarkeri
hLg:_InternalEnumerator_1__ctor_m2307827786_AdjustorThunk
Evc:__ZNSt3__26vectorIN9ShaderLab20SerializedSubProgram15StructParameterENS_9allocatorIS3_EEE6assignINS_11__wrap_iterIPS3_EEEENS_9enable_ifIXaasr21__is_forward_iteratorIT_EE5valuesr16is_constructibleIS3_NS_15iterator_traitsISC_E9referenceEEE5valueEvE4typeESC_SC_
tTh:_Touch_get_position_m3109777936_AdjustorThunk
Adp:__ZNSt3__214__split_bufferIN6il2cpp2vm5Image20EmbeddedResourceDataERNS_9allocatorIS4_EEEC2EjjS7_
Igf:__ZL66SkeletonBone_t4134054672_CustomAttributesCacheGenerator_parentNameP21CustomAttributesCache
idi:_ServerObjectTerminatorSink_SyncProcessMessage_m2085589766
p$d:__Z69Register_UnityEngine_Analytics_UnityAnalyticsHandler_Internal_Destroyv
zsj:_X509Certificate2Collection_Add_m3151757943
NOg:_Comparer_1__cctor_m951016718_gshared
vld:__ZNSt3__227__insertion_sort_incompleteIR15DepthComparitorP8DepthHitEEbT0_S5_T_
Szi:_CaseInsensitiveHashCodeProvider_get_DefaultInvariant_m4264275163
zgl:__Z195RuntimeInvoker_Int32_t2950945753_RuntimeObject_Int32_t2950945753_Int32_t2950945753_Int32_t2950945753_RuntimeObject_DecoderFallbackBufferU26_t3866396827_ByteU5BU5DU26_t4057885439_SByte_t1669577662PFvvEPK10MethodInfoPvPS4_
QFa:__ZN9Scripting11UnityEngine12Experimental9Playables27MaterialEffectPlayableProxy9InitProxyEv
d7:__ZN5physx14PxLightCpuTask12addReferenceEv
aUa:__ZNK15InstancingProps35FillInstanceBufferDispatchConstantsIN10Instancing14RenderLoopArgsEEEvPPvjjRK19ShaderPropertySheetRKT_
fxl:__Z86RuntimeInvoker_Int32_t2950945753_Color32_t2600501292_Color32_t2600501292_RuntimeObjectPFvvEPK10MethodInfoPvPS4_
ehp:__ZN6il2cpp2gc16GarbageCollector19InitializeFinalizerEv
n2c:__ZN10GUIManager10DoGUIEventER10InputEventb
tMb:__Z35Transfer_Blittable_FixedBufferFieldI24GenerateTypeTreeTransferxEvRK29SerializationCommandArgumentsR31RuntimeSerializationCommandInfo
NFd:_otv_LangSys_validate
yOh:_RectOffset_get_right_m2294081512
YHj:_MonoType_getFullName_m837685882
rEl:_Array_InternalArray__set_Item_TisLink_t544317964_m1234244240_gshared
pKd:_UNITY_TT_Init_Glyph_Loading
pBd:__ZN20TextRenderingPrivate7GUIText8TransferI19StreamedBinaryWriteEEvRT_
Zag:_SerializationInfo_GetBoolean_m1756153320
X$:__Z32AudioMixerDuckingProcessCallbackP21UnityAudioEffectStatePfS1_jii
VFh:_Mesh_get_uv2_m3615020997
bFc:__ZN26CustomRenderTextureManagerD2Ev
Ubp:__ZN15dense_hashtableINSt3__24pairIK10KeyWrapperINS1_IPKcS4_EEEiEES6_24NamespaceAndNamePairHashN14dense_hash_mapIS6_iS9_NS6_14EqualsComparerI26NamespaceAndNamePairEqualsEENS0_9allocatorIS8_EEE9SelectKeyESD_SF_E9set_valueEPS8_RKS8_
GZl:_EqualityComparer_1_System_Collections_IEqualityComparer_Equals_m4172006498_gshared
zon:_PatternLinkStack_SetCurrent_m366511098
VX:__ZN12AudioManager8TransferI24GenerateTypeTreeTransferEEvRT_
iEh:_Mathf_Round_m4098141538
TYa:__Z25GetBytesFromTextureFormat13TextureFormat
rI:__ZN13dynamic_arrayI11KeyframeTplI11QuaternionfELj0EE18resize_initializedEj12ResizePolicy
aYb:__ZNK11PreloadData18GetInstanceIDArrayER13dynamic_arrayIiLj0EE
rlf:__ZL64UnityAnalyticsHandler_t3011359618_CustomAttributesCacheGeneratorP21CustomAttributesCache
NJf:__ZN31OpCodes_t126150456_StaticFields19set_Conv_Ovf_U8_170E17OpCode_t123070264
zma:__Z32scripting_class_get_assemblyname17ScriptingClassPtr
UPd:__ZN2UI13CanvasManager8SortListEv
TWd:__ZN11UnityEngine15PlatformWrapper15GetVRDeviceNameEv
Orl:__Z99RuntimeInvoker_Boolean_t97287965_Int32_t2950945753_PointerEventDataU26_t867828220_SByte_t1669577662PFvvEPK10MethodInfoPvPS4_
htg:_InternalEnumerator_1_get_Current_m2128158355_AdjustorThunk
$Ab:__ZN9GfxDevice21RegisterNativeTextureE9TextureIDi16TextureDimension
jze:_GraphicRegistry__ctor_m1851575309
Oxl:__Z52RuntimeInvoker_Void_t1185182177_Keyframe_t4206410242PFvvEPK10MethodInfoPvPS4_
Jyp:__ZN6il2cpp6icalls8mscorlib6System10Reflection4Emit11TypeBuilder20create_generic_classEP27Il2CppReflectionTypeBuilder
m4b:__ZNK16UniformCacheGLES6SubmitEjRK13dynamic_arrayIN20GpuProgramParameters14ValueParameterELj0EERKS0_IiLj0EE
Jfk:_PlayableHandle_IsPlayableOfType_TisAnimationLayerMixerPlayable_t3631223897_m201603007_gshared
T4:__Z60Register_UnityEngine_AudioListener_GetNumExtensionPropertiesv
Yh:_emscripten_glUniformMatrix4fv
_2o:__ZN15dense_hashtableINSt3__24pairIK10KeyWrapperINS1_IP11Il2CppClassjEEES4_EES6_N6il2cpp8metadata14ArrayClassHashEN14dense_hash_mapIS6_S4_SB_NS6_14EqualsComparerINSA_17ArrayClassCompareEEENS0_9allocatorIS8_EEE9SelectKeyESF_SH_E13set_empty_keyERKS8_
krb:__ZN12ScriptMapperD2Ev
rNl:_Enumerator_Dispose_m3040896940_AdjustorThunk
QHf:__ZN31OpCodes_t126150456_StaticFields13set_Bgt_Un_65E17OpCode_t123070264
YFh:_Mesh_get_colors32_m1253190811
Btp:_GC_stopped_mark
zKp:dynCall_viii
Crh:_AnimationCurve_Finalize_m2397002729
Wqh:_Text_OnEnable_m616205807
JCl:__Z50RuntimeInvoker_RuntimeObject_ColorTween_t809614380PFvvEPK10MethodInfoPvPS4_
G6g:_InputField_OnFillVBO_m3649106646
Stg:__Z74InternalEnumerator_1_System_Collections_IEnumerator_get_Current_m888718134P32InternalEnumerator_1_t3459884504PK10MethodInfo
wag:_SerializationCallbacks__cctor_m1674315180
kek:_Array_InternalArray__ICollection_Contains_TisVector4_t3319028937_m4078183023_gshared
fRa:__ZNSt3__26vectorIN12FlareManager10FlareEntryENS_9allocatorIS2_EEE21__push_back_slow_pathIS2_EEvOT_
lKa:__ZNK7Hash12812PackToUInt32Ev
L0c:__ZN9Scripting11UnityEngine19GUILayoutEntryProxy9InitProxyEv
wyi:_SynchronizedArrayListWrapper_IndexOf_m3642674350
Rba:__ZN11UnityEngine15CloudWebService16SessionContainer8AddEventEPNS0_14CloudEventInfoE
QEb:__Z4TrimRKN4core12basic_stringIcNS_20StringStorageDefaultIcEEEES5_
mmj:_SPKey_Equals_m4205549017
EIl:_Dictionary_2_Do_ICollectionCopyTo_TisKeyValuePair_2_t3842366416_m1399105608_gshared
zQj:_DynamicMethod_destroy_dynamic_method_m2651031212
AVf:_ResourceReader_Read7BitEncodedInt_m3568166465
lMp:_glGetStringi__wrapper
F3a:__ZN10VertexData8TransferI14SafeBinaryReadEEvRT_
Eva:__ZN13RuntimeStaticI12AdsIdHandlerLb0EE16StaticInitializeEPv
Gvp:_GC_malloc_atomic
KZf:_ActivatedClientTypeEntry_ToString_m2494181680
F4l:_HashSet_1_GetEnumerator_m3346268098_gshared
rzp:__ZN6il2cpp5utils6Memory13AlignedMallocEjj
JLh:_PropertyName_GetHashCode_m3570549176_AdjustorThunk
vTf:_StrongNameKeyPair_GetRSA_m2008774769
o7g:_Selectable_get_animator_m2899312855
Bka:__ZL20SortItemByInstanceIDRKN18AwakeFromLoadQueue4ItemES2_
khj:_TypeConverterAttribute__ctor_m1774069684
ZZc:__Z36RenderTexture_CUSTOM_Internal_CreateP12Il2CppObject
kC:__ZNK34AnimationStateMachineMixerPlayable26GetInterruptedPosePlayableEv
Q$d:__ZN20UnityConnectSettings8TransferI24GenerateTypeTreeTransferEEvRT_
eL:__ZN34BlobWriteTransferSTLStyleArrayImplI22OffsetPtrArrayTransferIbEEclERS1_17TransferMetaFlagsR9BlobWrite
oBf:_OpCode_get_Value_m917085326
rHj:_MonoType_GetConstructors_m2574682189
Fnd:__ZN25b2SynchronizeFixturesTask7TaskJobEPS_j
Bsg:__Z44InternalEnumerator_1_get_Current_m3225386639P31InternalEnumerator_1_t350626606PK10MethodInfo
Bjj:_ServicePointManager_FindServicePoint_m4119451290
Msa:__ZL31InitializeRendererUpdateManagerPv
JCf:_ParameterInfo__ctor_m2779026345
M3g:_InputField_set_onValueChange_m1251390545
fii:_DeriveBytes_set_Password_m3005258189
cug:__Z37InternalEnumerator_1__ctor_m217498388P32InternalEnumerator_1_t3858009870P11Il2CppArrayPK10MethodInfo
L2c:__ZN8GUIState12GetControlIDEi9FocusTypeRK5RectTIfE
D8f:_ObjectWriter_GetAssemblyNameId_m2316410453
_Zm:_X509Certificate_PEM_m2020851166
kDl:_Array_InternalArray__Insert_TisDateTime_t3738529785_m2308632330_gshared
hBa:__ZL49__ManagedRegistrationHelperFunction_ProfilerProxyPv
a6l:_RNGCryptoServiceProvider_RngGetBytes_m1695806698
PRi:_TlsServerCertificateRequest_ProcessAsTls1_m3214041063
kbo:__ZN32Vector3_t3722313464_StaticFields14set_upVector_7E19Vector3_t3722313464
hGd:_compare_uni_maps
JXd:__ZN11UnityEngine15PlatformWrapper27GetGraphicsCapsSupportFlagsEv
FIl:_Dictionary_2_Do_ICollectionCopyTo_TisRuntimeObject_m3695543300_gshared
K4c:__Z57GUIStyle_CUSTOM_Internal_CalcSizeWithConstraints_InjectedP12Il2CppObjectS0_RK8Vector2fRS1_
bQb:__ZN12NativeBufferI16Converter_StringE15SetupForWritingER9ArrayInfo
cMk:_SequentialSearchPrimeGeneratorBase_GenerateSearchBase_m3595783982
TVl:_Dictionary_2_ToTKey_m3917206791_gshared
wV:__ZN13RuntimeStaticI18AssetBundleManagerLb1EE16StaticInitializeEPv
dNp:___cxa_end_catch__wrapper
Kvi:_Char_ToString_m278452217
u7k:__Z32RuntimeInvoker_Boolean_t97287965PFvvEPK10MethodInfoPvPS4_
UCi:_BigInteger_op_RightShift_m460065452
fNj:__Z72Array_AsReadOnly_TisCustomAttributeTypedArgument_t2723150157_m2714472677P12Il2CppObjectP46CustomAttributeTypedArgumentU5BU5D_t1465843424PK10MethodInfo
O7o:__ZN6il2cpp6icalls8mscorlib6System5Array13ClearInternalEP11Il2CppArrayii
Egh:_RectMask2D_get_rootCanvasRect_m2913509457
UMd:__Z38TextGenerator_Get_Custom_PropLineCountP12Il2CppObject
Mpj:_X509BasicConstraintsExtension_get_HasPathLengthConstraint_m2072837820
OXm:_InternalAsyncResult_SetComplete_m963842420
Jzk:_Encoding_GetEncoding_m2801244948
QPe:__ZL52_Assembly_t1988906988_CustomAttributesCacheGeneratorP21CustomAttributesCache
HId:_tt_get_interface
RYm:_SslStreamBase_EndRead_m495357226
L6o:__ZN6il2cpp5utils9PathUtils7CombineIcEENSt3__212basic_stringIT_NS3_11char_traitsIS5_EENS3_9allocatorIS5_EEEERKSA_SC_
tYg:_KeyCollection_GetEnumerator_m982770428_gshared
QTg:__Z38Enumerator_get_CurrentValue_m785745355P22Enumerator_t2086727927PK10MethodInfo
EMc:__ZN13PlayableGraph21InvalidateMultithreadEv
Ugn:_GUIScrollGroup_CalcHeight_m3173593443
Gja:__Z18ConvertUTF16toUTF8PPKtS0_PPhS2_15ConversionFlags
mEk:_TableRange__ctor_m3039750162
tnp:__ZN6il2cpp2os20PathErrnoToErrorCodeERKNSt3__212basic_stringIcNS1_11char_traitsIcEENS1_9allocatorIcEEEEi
Jpf:__ZL68InputField_t3762917431_CustomAttributesCacheGenerator_m_KeyboardTypeP21CustomAttributesCache
Xpo:__ZL16my_g_bit_nth_msfj
mpk:_SHA512Managed_Sigma1_m922902398
z3o:__ZN15dense_hashtableINSt3__24pairIK10KeyWrapperIP11Il2CppClassES4_EES5_N6il2cpp8metadata16SZArrayClassHashEN14dense_hash_mapIS5_S4_SA_NS5_14EqualsComparerINS9_19SZArrayClassCompareEEENS0_9allocatorIS7_EEE9SelectKeyESE_SG_E12expand_arrayEjN21dense_hash_map_traits17integral_constantIbLb0EEE
fT:__ZN9Animation12CleanupClassEv
Wzm:_Enumerator_MoveNext_m3662315381_AdjustorThunk
tcc:__Z23SetupStereoFlareElementP11FlareVertexRK8Vector2fS3_S3_RK11ColorRGBA32RK10Matrix4x4fRK8Vector3fb
Y6m:_Event_set_modifiers_m1736248727
boi:_AppDomain_InternalPushDomainRefByID_m1598870089
Wa:invoke_iiiifiiii
J8e:__ZL57ReflectionProbe_t175708936_CustomAttributesCacheGeneratorP21CustomAttributesCache
Wdd:__ZN9Scripting11UnityEngine31ParticleSystemVertexStreamProxy9InitProxyEv
_El:_Array_InternalArray__set_Item_TisPlayerLoopSystem_t105772105_m93492520_gshared
szk:_String_Join_m2050845953
pZg:_ShimEnumerator_MoveNext_m2406150314_gshared
G4b:__ZL19BlitFramebufferImplRN4gles23BlitFramebufferDrawQuadER9GfxDevice9TextureIDRK8Vector4f
zNn:_ButtonQuiz_closequiz_m2629344116
sRo:__ZN15dense_hashtableINSt3__24pairIK10KeyWrapperIPK10Il2CppTypeEjEES6_N6il2cpp8metadata14Il2CppTypeHashEN14dense_hash_mapIS6_jSB_NS6_14EqualsComparerINSA_26Il2CppTypeEqualityComparerEEENS0_9allocatorIS8_EEE9SelectKeyESF_SH_E4findERS7_
XKp:dynCall_viiiiiiiiiiiiii
Vzd:_UNITY_FT_List_Add
BFc:__ZN14Texture2DArray11InitTextureEiii13TextureFormatb
IEn:_InvokableCall_1_Invoke_m1524307439_gshared
Jsp:_total_stack_black_listed
sEf:__ZNK31OpCodes_t126150456_StaticFields13get_Ldarg_0_2Ev
KBg:__Z41InternalEnumerator_1_MoveNext_m3134701632P32InternalEnumerator_1_t2304330891PK10MethodInfo
Lpc:__Z34TextureStreamingCalculateLoadOrderP23TextureStreamingJobData
c4j:_Directory_CreateDirectoriesInternal_m3735342319
flm:_List_1_RemoveAll_m517055598_gshared
Nbh:_LayoutUtility_GetLayoutProperty_m3731360667
NYo:__ZN15dense_hashtableINSt3__24pairIK10KeyWrapperINS1_IPK11Il2CppImageP11Il2CppClassEEEjEES9_17ReflectionMapHashIS8_EN14dense_hash_mapIS9_jSD_NS9_14EqualsComparerINS0_8equal_toIS8_EEEENS0_9allocatorISB_EEE9SelectKeyESI_SK_E14squash_deletedEv
XWg:_Enumerator_System_Collections_IEnumerator_get_Current_m3218070833_gshared
Fpk:_SHAConstants__cctor_m1699027474
Pnd:__ZN39b2PrepareDiscreteIslandContactIndexTask7TaskJobEPS_j
Jgc:__ZNK6Camera26GetStereoSingleCullEnabledEv
cRg:__Z35Enumerator_VerifyCurrent_m829026141P22Enumerator_t3398877024PK10MethodInfo
S8m:_GUIStyle_GetCursorPixelPosition_m3960759208
Smb:__Z14resize_trimmedINSt3__26vectorIN4core12basic_stringIcNS2_20StringStorageDefaultIcEEEE13stl_allocatorIS6_L18MemLabelIdentifier13ELi16EEEEEvRT_j
kca:__GLOBAL__sub_I_Runtime_2D_SpriteAtlas_0_cpp
sHb:__Z18Transfer_BlittableI14SafeBinaryReadLb0EaEvRK29SerializationCommandArgumentsR31RuntimeSerializationCommandInfo
Rvi:_CharEnumerator_System_Collections_IEnumerator_get_Current_m1328529384
G5i:_DBNull__ctor_m3431698857
dmo:_AnimationLayerMixerPlayable__ctor_m860721801
zKd:_UNITY_FT_List_Iterate
ZIf:__ZN31OpCodes_t126150456_StaticFields22set_Conv_Ovf_I2_Un_128E17OpCode_t123070264
LQn:_dreamloLeaderBoard_CheckInt_m4214776006
_ui:_Char_System_IConvertible_ToUInt64_m3536560782
BYl:_EqualityComparer_1__cctor_m3452395357_gshared
Duj:_X509ChainStatus_get_Status_m2572005749_AdjustorThunk
wxc:__ZN15SerializeTraitsINSt3__26vectorIN9ShaderLab20SerializedSubProgram15MatrixParameterENS0_9allocatorIS4_EEEEE8TransferI24GenerateTypeTreeTransferEEvRS7_RT_
REe:__Z23il2cpp_codegen_multiplyIxxEN11pick_biggerIT_T0_E4typeES1_S2_
Bac:__Z20SyncFenceCullResultsR11CullResults
k6b:__ZN15TextureTFMethod20IsBoneCountSupportedEi
WCl:_Array_InternalArray__ICollection_CopyTo_TisScore_t1179825972_m4245532266_gshared
r5g:_InputField_AssignPositioningIfNeeded_m1037632400
kdj:_Double_ToString_m3828879243_AdjustorThunk
ELb:__Z22TransferField_NonArrayI17RemapPPtrTransfer27Converter_SimpleNativeClassI8GUIStyleEEvRK23StaticTransferFieldInfoR31RuntimeSerializationCommandInfoRT0_
Ebk:_TextReader_Synchronized_m3004980758
b2d:__ZNK20UnityWebRequestProtoI24UnityWebRequestTransport16AtomicRefCounter14RedirectHelper14ResponseHelper15DownloadHandler13UploadHandler18CertificateHandler12HeaderHelper14AsyncOperationE16GetUploadedBytesEv
MGc:__ZNK17AnimationCurveTplIfE20EvaluateWithoutCacheEfRf
wnl:__Z67RuntimeInvoker_Boolean_t97287965_Rect_t2360479859_SByte_t1669577662PFvvEPK10MethodInfoPvPS4_
a5l:__ZN23RC2Transform_t4583214879set_R0_12Et
vSa:__ZN19ShaderPropertySheet10SetTextureERK23FastTexturePropertyNameP7Texture
WRb:__Z13TransferFieldI18StreamedBinaryReadLb0E27Converter_SimpleNativeClassI17AnimationCurveTplIfEEEvRK23StaticTransferFieldInfoR31RuntimeSerializationCommandInfoRT1_
cNj:_CustomAttributeData__ctor_m2966233049
urg:__Z75InternalEnumerator_1_System_Collections_IEnumerator_get_Current_m1676501075P32InternalEnumerator_1_t1451382081PK10MethodInfo
Fne:_CanvasUpdateRegistry_PerformUpdate_m1793997159
$Ja:__ZN11SpriteAtlas23VirtualRedirectTransferER14SafeBinaryRead
nOc:__ZN4Mesh10SetNormalsEPK8Vector3fj
dIa:__ZN9Scripting5Unity11Collections14AllocatorProxy12CleanupProxyEv
hWn:_AesManaged_CreateDecryptor_m692040246
RCm:_Collection_1_System_Collections_IList_IndexOf_m2903056794_gshared
IH:__ZN17AnimationCurveTplIfE8TransferI14SafeBinaryReadEEvRT_
xEl:_Array_InternalArray__set_Item_TisInt16_t2552820387_m2544074754_gshared
Api:_ArithmeticException__ctor_m3551809662
Lan:_TextEditor_MoveTextEnd_m122202411
zNc:__ZNSt3__26__treeINS_12__value_typeIN9ShaderLab16FastPropertyNameE10ColorRGBAfEENS_19__map_value_compareIS3_S5_NS_4lessIS3_EELb1EEENS_9allocatorIS5_EEE14__assign_multiINS_21__tree_const_iteratorIS5_PNS_11__tree_nodeIS5_PvEEiEEEEvT_SK_
prc:__Z29StdTemplateConversionFunctionIybEbPvR14SafeBinaryRead
W9a:__ZNSt3__26vectorIN15QualitySettings14QualitySettingENS_9allocatorIS2_EEE6assignIPS2_EENS_9enable_ifIXaasr21__is_forward_iteratorIT_EE5valuesr16is_constructibleIS2_NS_15iterator_traitsIS9_E9referenceEEE5valueEvE4typeES9_S9_
VJf:__ZN31OpCodes_t126150456_StaticFields18set_Conv_Ovf_I_178E17OpCode_t123070264
ZXo:__ZN30dense_hashtable_const_iteratorINSt3__24pairIK10KeyWrapperIPK22Il2CppGenericParameterEPK24MonoGenericParameterInfoEES6_N6il2cpp5utils11PointerHashIS4_EEN14dense_hash_mapIS6_SA_SF_NS6_14EqualsComparerINS0_8equal_toIS5_EEEENS0_9allocatorISB_EEE9SelectKeyESK_SM_EppEv
cfh:_Navigation_set_selectOnLeft_m873759494
Pbp:__ZNK15dense_hashtableINSt3__24pairIK10KeyWrapperINS1_IPKcS4_EEEiEES6_24NamespaceAndNamePairHashN14dense_hash_mapIS6_iS9_NS6_14EqualsComparerI26NamespaceAndNamePairEqualsEENS0_9allocatorIS8_EEE9SelectKeyESD_SF_E13find_positionERS7_
dlm:_List_1_CheckCollection_m1671972112_gshared
jkb:__ZN11TimeManager8TransferI18StreamedBinaryReadEEvRT_
LVk:_UnicodeEncoding_GetPreamble_m3002287178
Kuo:__ZNK15dense_hashtableINSt3__24pairIK10KeyWrapperIPK22Il2CppGenericParameterEP11Il2CppClassEES6_N6il2cpp5utils11PointerHashIS4_EEN14dense_hash_mapIS6_S9_SE_NS6_14EqualsComparerINS0_8equal_toIS5_EEEENS0_9allocatorISA_EEE9SelectKeyESJ_SL_E12test_deletedEj
S5n:_AudioSource_get_spatialize_m3609701298
Rrf:__ZL56Toggle_t2735377061_CustomAttributesCacheGenerator_m_IsOnP21CustomAttributesCache
wEb:__ZN20GpuProgramParameters14AddVectorParamEPKcii15ShaderParamTypeiiiP16PropertyNamesSet
y1d:__ZNK12HeaderHelper3GetERKN4core12basic_stringIcNS0_20StringStorageDefaultIcEEEE
Dkb:__ZN9InputAxis8TransferI14SafeBinaryReadEEvRT_
Tka:__ZNK21ExecutionOrderManager30GetCustomAwakeFromLoadQueueForEPKN5Unity4TypeE
I0d:__Z27RegisterModule_UnityConnectv
Y7j:_MemoryStream_Expand_m3554752073
tWo:__ZN6il2cpp2vm10Reflection27GetCustomAttributesCacheForEP25Il2CppReflectionParameter
fRh:_ScriptableObject_CreateInstance_m2611081756
Mqo:__ZNK27ContactFilter2D_t380520344114get_useDepth_2Ev
f5e:__ZL115TouchScreenKeyboard_t731888065_CustomAttributesCacheGenerator_TouchScreenKeyboard_Open_m3609399077____keyboardType1P21CustomAttributesCache
iHg:_InternalEnumerator_1_System_Collections_IEnumerator_get_Current_m1635397542_gshared
O8j:_Path__cctor_m3273994011
AXn:_AnalyticsEventTracker__ctor_m3064238498
lun:__ZN14Uri_t10023632420set_isAbsoluteUri_11Eb
FHp:__ZNSt11logic_errorD2Ev
V6i:_DateTimeUtils_CountRepeat_m3396693018
VYj:_DateTimeFormatInfo__cctor_m4189929746
Xrd:__ZNK17Physics2DSettings22GetTypeVirtualInternalEv
cPp:_glBindRenderbuffer__wrapper
Y_:__ZN10ObjectPoolIN4FMOD12ChannelGroupENS0_13ChannelGroupIEE7SetSizeEi
eNm:_Collection_1_System_Collections_ICollection_CopyTo_m611043256_gshared
FCe:_GridLayoutGroup_SetLayoutHorizontal_m2838109254
vFb:__ZN9GfxDevice8OnDeleteEv
jqn:_Parser_ParseGroupingConstruct_m263270497
yHo:__ZN6il2cpp2vm13MetadataCache40AddThreadLocalStaticOffsetForFieldLockedEP9FieldInfoiRKNS_2os12FastAutoLockE
Ken:_GUILayoutUtility_DoGetRect_m3125143831
RHa:__ZN9Scripting5Unity11Collections8LowLevel6Unsafe54NativeContainerSupportsDeferredConvertListToArrayProxy12CleanupProxyEv
u_d:__ZN11UnityEngine9Analytics22EventLimitReachedEventC2EjyyRKN4core12basic_stringIcNS2_20StringStorageDefaultIcEEEEb
PQ:__ZN15SerializeTraitsINSt3__24pairI8StateKey10StateRangeEEE8TransferI14SafeBinaryReadEEvRS4_RT_
XYo:__ZN14dense_hash_mapI10KeyWrapperINSt3__24pairIPK9EventInfoP11Il2CppClassEEEj17ReflectionMapHashIS8_ENS9_14EqualsComparerINS1_8equal_toIS8_EEEENS1_9allocatorINS2_IKS9_jEEEEE15set_deleted_keyERSH_
ufn:_GUILayoutUtility_EndLayoutGroup_m788283938
bJb:__Z14resize_trimmedINSt3__26vectorI17AnimationCurveTplIfE13stl_allocatorIS3_L18MemLabelIdentifier1ELi16EEEEEvRT_j
kWd:__ZN22BaseUnityConnectClient12IsNewSessionEv
vQc:__Z12GUIDToStringRK9UnityGUID
F6f:_CodeGenerator_EmitLoadTypeAssembly_m1985536832
z1:__ZN11SoundHandleC2ERKS_
uaj:_Delegate_CreateDelegate_m1051651521
Cw:__ZN17AnimationPlayableC2E18DirectorPlayerType
B1g:_InputField_set_shouldHideMobileInput_m1650743574
O5o:__ZN6il2cpp2vm9Exception30GetTypeInitializationExceptionEPKcP15Il2CppException
Ygn:__ZNK26GUIScrollGroup_t152332902131get_needsHorizontalScrollbar_35Ev
Ur:__ZNSt3__26__sortIR23DependencySortPredicatePN4core4pairIiP9BehaviourLb0EEEEEvT0_S9_T_
Pgg:_DSAParameters_t1885824122_marshal_pinvoke_back
UC:__ZN8Animator22OnGraphTopologyChangedEP8Playablei
YLk:_Kernel_MultiplyByDword_m1266935086
Uy:__ZN17AnimationPlayable18DeallocateBindingsEv
tUh:_Transform_get_worldToLocalMatrix_Injected_m3487540861
lyk:_String_Trim_m3384720403
AXa:__ZN14RenderSettings18TransferDeprecatedI14SafeBinaryReadEEvRT_
Fgl:__Z93RuntimeInvoker_Single_t1397266774_SingleU26_t1922108698_Single_t1397266774_Single_t1397266774PFvvEPK10MethodInfoPvPS4_
u5o:__ZN6il2cpp2vm9Exception27RaiseNullReferenceExceptionERKNS_5utils10StringViewIDsEEP19Il2CppSequencePoint
T6m:_Event__ctor_m526447123
Tjl:__Z88RuntimeInvoker_RuntimeObject_RuntimeObject_RuntimeObject_RuntimeObject_Int32_t2950945753PFvvEPK10MethodInfoPvPS4_
e1k:_Type_ToString_m3975981286
nfa:__ZN12TLSAllocatorI14StackAllocatorE8AllocateEji
F8n:_ConsumeSampleFramesNativeFunction_BeginInvoke_m342678987
Qla:__ZN16ScriptingManager18GetMonoScriptCacheEi
RIf:__ZN31OpCodes_t126150456_StaticFields13set_Ldfld_120E17OpCode_t123070264
Rqn:_ExpressionAssertion__ctor_m2554412824
Xbn:_GUIUtility_Internal_GetHotControl_m2856765646
ogb:__ZN14SafeBinaryRead8TransferI10MeshFilterEEvRT_PKc17TransferMetaFlags
KLc:__ZNK6Camera16GetLocalSpaceAimEv
yam:_Enumerator_System_Collections_IEnumerator_get_Current_m2237476582_gshared
zHb:__Z18Transfer_BlittableI14SafeBinaryReadLb1EyEvRK29SerializationCommandArgumentsR31RuntimeSerializationCommandInfo
SZc:__Z41Texture2DArray_CUSTOM_Internal_CreateImplP12Il2CppObjectiii14GraphicsFormat20TextureCreationFlags
QIj:_NullReferenceException__ctor_m3076065613
v6c:__ZN8JSONRead8TransferIfEEvRT_PKc17TransferMetaFlagsb
sah:_LayoutGroup_OnDisable_m3483954898
_yc:__ZN9ShaderLab7Program22ComputeSupportsShadowsEv
goj:_X509SubjectKeyIdentifierExtension_Decode_m1505409124
ezc:__ZL23AddGpuProgramParametersR20GpuProgramParametersRKNSt3__26vectorIN9ShaderLab20SerializedSubProgram15MatrixParameterENS1_9allocatorIS5_EEEERKNS2_INS4_15VectorParameterENS6_ISB_EEEEiiP16PropertyNamesSet
Xwa:__ZN6prcoreL17RemapGenericFloatI18TexFormatARGBFloat17TexFormatRGBAHalfEEvPKNS_9InnerInfoE
tXn:_AnalyticsEventParamListContainer__ctor_m1995104893
Lxk:_String_System_IConvertible_ToUInt16_m2888090399
y0:__ZN11AudioSource21ApplyCachedParametersE12SoundChannel
QKj:_Assembly_InternalGetType_m3065345470
_6:__ZN13Simd4iFactoryIN6detail9FourTupleEEC2Eiiii
vCh:_GameObject_FindGameObjectsWithTag_m2585173894
VWf:_ResourceSet__ctor_m3356376607
ire:_FloatTween_set_startValue_m53556027_AdjustorThunk
hQe:__ZL56_ParameterInfo_t489405856_CustomAttributesCacheGeneratorP21CustomAttributesCache
$cb:__ZN15SerializeTraitsI33EnlightenTerrainChunksInformationE8TransferI14SafeBinaryReadEEvRS0_RT_
Q2k:_UInt32_System_IConvertible_ToByte_m4072781199_AdjustorThunk
Eid:__ZN6b2Body12SetTransformERK6b2Vec2f
yGc:__ZNK32RendererMaterialAnimationBinding9BindValueER6ObjectRKN11UnityEngine9Animation14GenericBindingERNS3_10BoundCurveE
ALl:_Transform_1_Invoke_m1731820209_gshared
a6a:__ZL18stbir__support_onef
Ngm:_Enumerator_get_Current_m2538493517_gshared
axk:_Single_CompareTo_m189772128
i8c:__Z26Transfer_UnityEngineObjectI9JSONWriteLb0EEvRK29SerializationCommandArgumentsR31RuntimeSerializationCommandInfo
kMg:_DefaultComparer_Compare_m4042058291_gshared
BDe:_Image_set_overrideSprite_m3213596394
K1a:__ZNSt3__26vectorIN4core12basic_stringIcNS1_20StringStorageDefaultIcEEEE13stl_allocatorIS5_L18MemLabelIdentifier1ELi16EEE6assignINS_11__wrap_iterIPS5_EEEENS_9enable_ifIXaasr21__is_forward_iteratorIT_EE5valuesr16is_constructibleIS5_NS_15iterator_traitsISF_E9referenceEEE5valueEvE4typeESF_SF_
uJp:dynCall_iiiifii
DRd:__ZNSt3__27__sort5IRNS_6__lessIN2UI14DepthSortEntryES3_EEPS3_EEjT0_S7_S7_S7_S7_T_
$4j:_FileLoadException_ToString_m2989457882
X6n:_AudioListener_ClearExtensionProperties_m3849891634
Bzd:_UNITY_FT_DivFix
dKl:_Array_InternalArray__get_Item_TisDecimal_t2948259380_m3511003792_gshared
Glm:_List_1_System_Collections_IList_Remove_m3140917266_gshared
Ask:_SecurityElement_IsValidAttributeValue_m948345692
NFc:__ZN14Texture2DArrayC2E10MemLabelId18ObjectCreationMode
pb:invoke_vdd
pn:FUNCTION_TABLE_fiii
j0e:__ZL75g_UnityEngine_SharedInternalsModule_Assembly_CustomAttributesCacheGeneratorP21CustomAttributesCache
eVb:__ZN13MonoBehaviour25TransferEngineAndInstanceI19StreamedBinaryWriteEEvRT_
eMc:__Z19RegisterModule_Corev
BJl:_Mesh_SetUvsImpl_TisRuntimeObject_m2275316106_gshared
mn:FUNCTION_TABLE_fiif
NBc:__ZNK30SpriteRendererAnimationBinding12GetPPtrValueERKN11UnityEngine9Animation10BoundCurveE
xMd:__ZZ29InitializeTextRenderingModulevEN27cleanupAfterLoadRegistrator7ForwardEv
zA:__ZN27AnimationLayerMixerPlayable24ProcessAnimationLayerMixEP33AnimationPlayableEvaluationOutputP35AnimationPlayableEvaluationConstantP32AnimationPlayableEvaluationInputS1_if
ZTj:_CCFixed_FromDateTime_m3894190577
dtj:_X509Chain_FindParent_m1515820563
clc:__Z59ProcessShadowCasterNodeVisibilityAndCullWithoutUmbra_KernelILN17CullingParameters9LayerCullE2ELi12EEvR9IndexListRK22SceneCullingParametersPK9SceneNodePK4AABBjjPKN4math7_float4E
Nal:__Z116RuntimeInvoker_RuntimeObject_RuntimeObject_Int32_t2950945753_RuntimeObject_RuntimeObject_RuntimeObject_RuntimeObjectPFvvEPK10MethodInfoPvPS4_
cIm:_Collection_1_SetItem_m2109164320_gshared
Ibg:_RuntimeMethodHandle__ctor_m2229201676_AdjustorThunk
j2f:_MessageFormatter_ReadMethodCall_m2327590823
Cp:__ZL54__ManagedRegistrationHelperFunction_VisionUtilityProxyPv
nFc:__Z14RandomRotationP9Texture2DPhiiii
C9i:_Decimal_GetBits_m453754410
F$n:_ToggleEvent__ctor_m834619998
iKg:_InternalEnumerator_1_Dispose_m436383441_AdjustorThunk
TGi:_PKCS1_Encode_v15_m2077073129
JFb:__ZN10Instancing11DrawAPIArgsC2ERK19ShaderPropertySheetPK8Vector4fS6_S6_i
zWj:_NumberFormatInfo__ctor_m3445216119
wOh:_RectOffset_get_left_m1232181034
j4o:__ZNSt3__214__split_bufferIN6il2cpp8metadata18GenericArrayMethodERNS_9allocatorIS3_EEED2Ev
lEb:__ZN4gles14UseGLSLProgramER15DeviceStateGLESjbij
LNp:_glDeleteProgram__wrapper
LEa:__ZN9Scripting11UnityEngine22ImageEffectOpaqueProxy12CleanupProxyEv
cOj:__ZN26AssemblyBuilder_t35988525026set_is_compiler_context_45Eb
hbn:_TextEditor_Copy_m1714932363
n6a:__ZN6prcoreL18BlitFloatToIntegerERK14ImageReferenceRS0_
X5i:_DBNull_System_IConvertible_ToUInt32_m3784627971
ROi:_ClientSessionCache_Add_m964342678
zRc:__ZN23TransformChangeDispatch46GetAndClearChangedTransformsForMultipleSystemsEyR13dynamic_arrayI23TransformAccessReadOnlyLj0EERS0_IyLj0EEPN9profiling6MarkerE
JKc:__Z18RegisterUnityClassI30RuntimeInitializeOnLoadManagerEvPKc
lba:__ZN11UnityEngine15CloudWebService14RestDownloader17OnCompleteContentEv
rOo:__ZN15dense_hashtableINSt3__24pairIK10KeyWrapperINS1_IPK14Il2CppAssemblyP11Il2CppClassEEEjEES9_17ReflectionMapHashIS8_EN14dense_hash_mapIS9_jSD_NS9_14EqualsComparerINS0_8equal_toIS8_EEEENS0_9allocatorISB_EEE9SelectKeyESI_SK_E15insert_noresizeERKSB_
GFb:__ZN10Instancing11DrawAPIArgsC2Ev
BX:__ZN4FMOD3DSP12getNumInputsEPi
kUh:_Transform_get_localScale_m129152068
Q9i:_DivideByZeroException__ctor_m3496959969
Hb:invoke_viffi
CC:__ZN17AnimationPlayable28UpdateInternalStateRecursiveILi1ELb0EEEvPK35AnimationPlayableEvaluationConstant
Ab:invoke_vifff
lrp:__ZN6il2cpp2vm13CachedCCWBaseINS0_13ManagedObjectEE7ReleaseEv
GQp:_glGetVertexAttribiv__wrapper
ni:_emscripten_request_fullscreen
DBn:_Predicate_1_Invoke_m851618236_gshared
TVb:__ZN20LocalFileSystemWebGL6DeleteER13FileEntryDatab
Zf:_emscripten_glDisableVertexAttribArray
Xek:_Array_InternalArray__ICollection_Remove_TisSingle_t1397266774_m3361324455_gshared
Sn:FUNCTION_TABLE_iiiifiiii
Vkk:_Array_InternalArray__ICollection_Add_TisSlot_t3975888750_m1793695076_gshared
ka:invoke_fifffi
Ian:_TextEditor_MoveToEndOfPreviousWord_m1495106220
U2b:__ZN4gles23ClearCurrentFramebufferEP7ApiGLESbbbRK10ColorRGBAffi
$Pn:_LeaderBoardSample_Start_m3552408723
aHn:_UnityEvent_1_Invoke_m3604335408_gshared
Nf:_emscripten_glDeleteObjectARB
B9d:_EventSystem_RaycastComparer_m3685368675
Sth:_Bounds_get_size_m1178783246_AdjustorThunk
jJo:__ZN6il2cpp2vmL28IsCurrentThreadAWorkerThreadEv
rfl:__Z131RuntimeInvoker_Void_t1185182177_RuntimeObject_RuntimeObject_Int64_t3736567304_ObjectU26_t2146539884_SerializationInfoU26_t419328957PFvvEPK10MethodInfoPvPS4_
Lki:_PKCS12_RemoveCertificate_m1421555398
Mph:_Slider_FindSelectableOnLeft_m1667068522
oxa:__ZN6prcoreL17RemapGenericFloatI17TexFormatRGBAHalf18TexFormatARGBFloatEEvPKNS_9InnerInfoE
P2c:__ZNK8GUIStyle21DrawWithTextSelectionER8GUIStateRK5RectTIfER10GUIContentbbbbbiiRK10ColorRGBAfSA_
Ild:__ZNSt3__27__sort4IRN18Overlap2DQueryBase29ColliderHitsByDepthComparitorEPP10Collider2DEEjT0_S7_S7_S7_T_
a3c:__Z14GetBuiltinSkini
S6:___cxx_global_var_init_12
B6:___cxx_global_var_init_13
Q6:___cxx_global_var_init_10
R6:___cxx_global_var_init_11
$$c:___cxx_global_var_init_18
JKf:__ZN31OpCodes_t126150456_StaticFields13set_Cpblk_220E17OpCode_t123070264
Qt:__ZN9Scripting11UnityEngine19AnimationStateProxy9InitProxyEv
Urb:__ZN2UI13RectTransform23VirtualRedirectTransferER14SafeBinaryRead
pDb:__ZN18AsyncUploadManager19AsyncResourceUploadER9GfxDeviceii
Pwc:__ZNSt3__26vectorIN9ShaderLab20SerializedSubProgramENS_9allocatorIS2_EEE6assignIPS2_EENS_9enable_ifIXaasr21__is_forward_iteratorIT_EE5valuesr16is_constructibleIS2_NS_15iterator_traitsIS9_E9referenceEEE5valueEvE4typeES9_S9_
wad:__Z18Transfer_BlittableI8JSONReadLb0E8BitFieldEvRK29SerializationCommandArgumentsR31RuntimeSerializationCommandInfo
Ivi:_Char_ToString_m3588025615_AdjustorThunk
q4l:_HashSet_1_CopyTo_m2849056227_gshared
GLk:_ModulusRing_Multiply_m343333088
xgf:__ZL76AnimatorTransitionInfo_t2534804151_CustomAttributesCacheGenerator_m_AnyStateP21CustomAttributesCache
Ouc:__ZN9ShaderLab14SerializedPass8TransferI14SafeBinaryReadEEvRT_
DQc:__Z22FindGameObjectsWithTagI13dynamic_arrayIP10GameObjectLj0EEEvjRT_
wqd:__ZNSt3__26__sortIRN10ClipperLib12LocMinSorterEPNS1_12LocalMinimumEEEvT0_S6_T_
c8o:__ZN6il2cpp6icalls8mscorlib6SystemL14AssignUnsignedIhEEvNS2_17WidenedValueUnionEPv14Il2CppTypeEnumjj
sc:invoke_viiiiiiiiiii
zdk:_Array_InternalArray__ICollection_Contains_TisRuntimeObject_m4067783231_gshared
Tfe:_PointerEventData_set_worldNormal_m1888481930
wme:_CanvasScaler_set_referencePixelsPerUnit_m1768965301
osn:_AnchorInfo__ctor_m46784903
hMi:_CipherSuiteCollection_get_Item_m4188309062
aXm:_SslHandshakeHash_HashFinal_m2573455475
gKc:__ZN14qsort_internal30FindAndMovePivotToLastPositionIP8Vector2fi26PointDistanceSortPredicateEEvT_S4_T0_T1_
h$d:__Z56Register_UnityEngine_Analytics_CustomEventData_AddDoublev
Noi:_AppDomain_ProcessMessageInDomain_m1871749965
kpp:__ZN4utf88internal13validate_nextIPKcEENS0_9utf_errorERT_S5_Rj
Srf:__ZL53ToggleGroup_t123837990_CustomAttributesCacheGeneratorP21CustomAttributesCache
_9c:__Z18Transfer_BlittableI8JSONReadLb1E10ColorRGBAfEvRK29SerializationCommandArgumentsR31RuntimeSerializationCommandInfo
N6g:_InputField_CreateCursorVerts_m3585916868
r_c:__Z34Register_UnityEngine_Gradient_Initv
V1h:_Context_ToString_m1073616138
fAf:_OpCode_get_OperandType_m1634816806
TIp:dynCall_fiiffi
_bb:__ZN13ScreenManager23SetIsOrientationEnabledE18EnabledOrientationb
V0g:_InputField_EnforceTextHOverflow_m3400115777
SN:__ZN9Animation13AwakeFromLoadE17AwakeFromLoadMode
JFp:_readlink
Oyj:__Z33il2cpp_codegen_check_sub_overflowxx
u3g:_InputField_get_caretColor_m2973283772
JFn:__Z31UnityAction_1_Invoke_m927447181P25UnityAction_1_t314052246517Color_t2555686324PK10MethodInfo
Knd:__ZN14qsort_internal5QSortIPN25b2SynchronizeFixturesTask14b2DeferredMoveEiPFbRKS2_S5_EEEvT_S8_T0_T1_
ngh:_RectMask2D_get_Canvas_m9990042
m9m:_GUIUtility_set_keyboardControl_m119089252
DGg:_InternalEnumerator_1_MoveNext_m1096095130_AdjustorThunk
Kcj:_Double_System_IConvertible_ToInt16_m3591921965_AdjustorThunk
fVn:_SymmetricTransform__ctor_m2693628991
NUc:__Z36Camera_CUSTOM_get_pixelRect_InjectedP12Il2CppObjectR5RectTIfE
Pol:__Z67RuntimeInvoker_Void_t1185182177_Scene_t2348375561_Scene_t2348375561PFvvEPK10MethodInfoPvPS4_
ek:_glFrontFace
x4a:__ZN16SpriteRenderData8TransferI19StreamedBinaryWriteEEvRT_
KTf:_TypeDelegator_get_AssemblyQualifiedName_m907578895
qSb:__ZN9BoundsInt8TransferI18StreamedBinaryReadEEvRT_
Bdh:_MaskUtilities_IsDescendantOrSelf_m2247511982
Ft:__ZN9Scripting11UnityEngine22AnimatorStateInfoProxy12CleanupProxyEv
lOn:_CoinMod3_positiveCorrect_m2744219863
mNd:__Z51Register_UnityEngine_TextGenerator_GetLinesInternalv
LMl:_Enumerator_get_Current_m2250080680_AdjustorThunk
Gdp:__ZN6il2cpp2vm5Field8GetFlagsEP9FieldInfo
zWn:_AesManaged_set_Key_m767972181
Mxj:_Int16_System_IConvertible_ToBoolean_m1656400658_AdjustorThunk
dVb:__Z23TransferScriptingObjectI18StreamedBinaryReadEvRT_18ScriptingObjectPtr17ScriptingClassPtrPK15MonoScriptCache
D0b:__ZN13GfxDeviceGLES22SetScissorRectPlatformERK5RectTIiE
Ewa:__ZN6prcoreL17RemapGenericFloatI17TexFormatRGBFloat18TexFormatRGBAFloatEEvPKNS_9InnerInfoE
i7:__ZL64__ManagedRegistrationHelperFunction_ClothSphereColliderPairProxyPv
G8h:_ErrorMessage_get_TypeName_m4051144354
RMk:_BitConverterLE_GetUIntBytes_m949779219
Nkk:_Array_InternalArray__ICollection_Add_TisDictionaryEntry_t3123975638_m665385049_gshared
E2e:__ZL57BootConfigData_t3818279794_CustomAttributesCacheGeneratorP21CustomAttributesCache
gP:__ZNK4core8hash_setINS_4pairIK7CurveIDjLb0EEENS_9hash_pairI10hash_curveS3_jEENS_10equal_pairINSt3__28equal_toIS2_EES3_jEEE6lookupIS2_EEPNSD_4nodeERKT_
INp:_glClearStencil__wrapper
vFj:_MissingMemberException__ctor_m2707802176
_Fc:__ZN28ReflectionProbeAnchorManager10InitializeEv
oko:_Canvas_get_renderMode_m841659411
$If:__ZN31OpCodes_t126150456_StaticFields22set_Conv_Ovf_I8_Un_130E17OpCode_t123070264
Kaj:_DelegateSerializationHolder_GetDelegateData_m2109044103
Nud:__ZN16PhysicsManager2D12BeginContactEP9b2Contact
Nag:_SerializationInfo_GetValue_m42271953
u2:__ZN9AudioClip11CreateSoundEv
a7m:_Event_get_keyCode_m1098493350
qZo:__ZN14dense_hash_mapI10KeyWrapperINSt3__24pairIPK9FieldInfoP11Il2CppClassEEEj17ReflectionMapHashIS8_ENS9_14EqualsComparerINS1_8equal_toIS8_EEEENS1_9allocatorINS2_IKS9_jEEEEEC2EjRKSB_RKSF_
xHh:_PlayerConnection_GetConnectionNativeApi_m3116196780
NRo:__ZNK15dense_hashtableINSt3__24pairIK10KeyWrapperINS1_IPK10MethodInfoP11Il2CppClassEEEjEES9_17ReflectionMapHashIS8_EN14dense_hash_mapIS9_jSD_NS9_14EqualsComparerINS0_8equal_toIS8_EEEENS0_9allocatorISB_EEE9SelectKeyESI_SK_E13find_positionERSA_
xNd:__ZL45__ManagedRegistrationHelperFunction_TileProxyPv
KLg:_InternalEnumerator_1_get_Current_m2313784098_gshared
Ole:_U3COnFinishSubmitU3Ec__Iterator0_MoveNext_m2729496168
p2j:_Guid_BaseToString_m3600006650
Vwb:__ZN20ArchiveStorageReader31TryToReadDirectoryFromBlockDataEyPKvj
c8d:_PointerEventData_set_pointerEnter_m3256217464
Gr:__GLOBAL__sub_I_AnimationClip_cpp
$Lh:_Quaternion_get_identity_m3722672781
dbp:__ZN6il2cpp2vmL11GetIdentityEP14Il2CppIUnknown
iup:_GC_push_gc_structures
bDa:__ZN9Scripting11UnityEngine9Rendering29ReflectionProbeBlendInfoProxy12CleanupProxyEv
WIl:_Dictionary_2_Do_ICollectionCopyTo_TisRuntimeObject_m3942192587_gshared
bZc:__Z32RectOffset_CUSTOM_InternalCreatev
kMo:__ZN6il2cpp6icalls8mscorlib6SystemL8IsPublicEPK9EventInfo
RBi:_Hashtable_GetObjectData_m2584507417
NFg:_InternalEnumerator_1_MoveNext_m359138619_AdjustorThunk
TQp:_glUniform4iv__wrapper
YDi:_PrimalityTests_RabinMillerTest_m2544317101
jcb:__ZN14Texture2DArray23VirtualRedirectTransferER18StreamedBinaryRead
ASp:_emscripten_glColorMask__wrapper
NH:__ZNSt3__26vectorIN13AnimationClip10FloatCurveE13stl_allocatorIS2_L18MemLabelIdentifier26ELi16EEE6resizeEj
Imd:__ZN27b2UpdateTriggerContactsTask7TaskJobEPS_j
RCi:_Kernel_DwordDivMod_m1540317819
aVd:__ZN9Scripting11UnityEngine9Analytics25AnalyticsSessionInfoProxy9InitProxyEv
Jzm:_Enumerator_System_Collections_IEnumerator_get_Current_m1399273671_gshared
Dpm:_List_1_set_Capacity_m3382070520_gshared
ULf:_TypeBuilder_GetPropertyImpl_m3104345782
Z4a:__ZNSt3__213__stable_sortIRNS_4lessI4PPtrI11SpriteAtlasEEENS_11__wrap_iterIPS4_EEEEvT0_SA_T_NS_15iterator_traitsISA_E15difference_typeEPNSD_10value_typeEi
JDj:_Int64_ToString_m2085073918_AdjustorThunk
b$g:_Transform_1_Invoke_m4084479750_gshared
fGp:_ftell
wNf:_FieldInfo_GetFieldOffset_m1356898082
o$a:__ZNK13RenderTexture18GetUseDynamicScaleEv
tjk:_Array_InternalArray__IndexOf_TisTypeTag_t3541821701_m2988972362_gshared
Ega:__ZN8keywords6CreateEPKc
nqo:__ZL7log2_32j
rIn:_IndexedSet_1_Sort_m2612539420_gshared
_Lh:_Quaternion_Inverse_Injected_m4070500351
O:Math_imul
elh:_ScrollRect_LateUpdate_m1215231183
Xgb:__ZN14SpriteRenderer15SetupPropertiesEv
oSi:_TlsServerKeyExchange_Update_m453798279
aGa:__ZN9Scripting11UnityEngine38ExcludeFromObjectFactoryAttributeProxy9InitProxyEv
pMi:_CipherSuiteCollection_System_Collections_IList_IndexOf_m1361500977
uS:__ZN18StreamedBinaryRead8TransferI9OffsetPtrIN7mecanim9animation19Blend1dDataConstantEEEEvRT_PKc17TransferMetaFlags
Vqh:_Text_set_fontStyle_m648756124
d6i:_DateTime__ctor_m2135476686_AdjustorThunk
jbd:__ZN13GUIStyleState8TransferI8JSONReadEEvRT_
hPm:_ReadOnlyCollection_1_System_Collections_Generic_IListU3CTU3E_set_Item_m1300028287_gshared
mPh:_RectTransform_GetLocalCorners_m823861473
Eyi:_SynchronizedArrayListWrapper_GetEnumerator_m1579424644
jkh:_Scrollbar_get_value_m760470106
yXk:_RegisteredWaitHandle_DoCallBack_m365365633
vja:__ZN18ScriptingArguments9AddObjectE18ScriptingObjectPtr
SSd:__Z39CanvasGroup_Get_Custom_PropInteractableP12Il2CppObject
K7:__ZN11UnityEngine15CloudWebService16SessionContainerD2Ev
lnc:__ZN13ProbeRenderer8ConvolveEbijjb
AVb:__ZN17GenericDynamicVBOC2ER9GfxDevice13GfxBufferModejj
Yld:__Z28GetPhysics2DScriptingClassesv
i2c:__ZZN10GUIManager14InitGUIManagerEvEN41PreUpdateIMGUISendQueuedEventsRegistrator7ForwardEv
hmj:_ServicePointManager_get_SecurityProtocol_m966397919
iUj:_CCGregorianCalendar_day_from_fixed_m1674702403
Tua:__ZL33CleanupCubemapGPUUtilityMaterialsPv
Qnc:__ZN6Camera16StandaloneRenderENS_10RenderFlagEP6ShaderRKN4core12basic_stringIcNS3_20StringStorageDefaultIcEEEE
uwi:_ArrayList_Add_m730026926
_Wo:__ZN15dense_hashtableINSt3__24pairIK10KeyWrapperIPK14Il2CppAssemblyEPK22Il2CppMonoAssemblyNameEES6_N6il2cpp5utils11PointerHashIS4_EEN14dense_hash_mapIS6_SA_SF_NS6_14EqualsComparerINS0_8equal_toIS5_EEEENS0_9allocatorISB_EEE9SelectKeyESK_SM_EC2ERKSP_j
nlb:__ZN26PlayerSettingsSplashScreen8TransferI18StreamedBinaryReadEEvRT_
jPn:_DragHandler_canPlacePos_m4206523195
mhf:__ZL58EventType_t3528516131_CustomAttributesCacheGenerator_keyUpP21CustomAttributesCache
ESe:__ZL57X509Certificate_t713131622_CustomAttributesCacheGeneratorP21CustomAttributesCache
eFa:__ZN9Scripting11UnityEngine12Experimental9Rendering27VisibleReflectionProbeProxy9InitProxyEv
OAb:__ZN9GfxDevice20DeallocRenderSurfaceEP17RenderSurfaceBase
CEb:__ZN20GpuProgramParameters36UpdatePrepareValuesMaximumBufferSizeEv
CQm:_ReadOnlyCollection_1_System_Collections_IList_RemoveAt_m2129436005_gshared
nHk:_SimpleCollator_GetContraction_m2205549079
YEi:_ARC4Managed_GenerateKey_m1607343060
ypg:__Z41InternalEnumerator_1_MoveNext_m1543390728P31InternalEnumerator_1_t978588483PK10MethodInfo
WNb:__Z29Transfer_Blittable_ArrayFieldI24GenerateTypeTreeTransferfEvRT_R9ArrayInfoRK23StaticTransferFieldInfo
dAh:_UnityEvent_FindMethod_Impl_m2312362624
VIb:__ZN8Gradient8TransferI14SafeBinaryReadEEvRT_
FAp:__ZN6il2cpp2os20ReaderWriterLockImpl10LockSharedEv
rao:_Vector3_GetHashCode_m2879461828
Uwk:_Single_System_IConvertible_ToUInt64_m3299129161_AdjustorThunk
J1a:__ZNSt3__26vectorIN4core12basic_stringIcNS1_20StringStorageDefaultIcEEEE13stl_allocatorIS5_L18MemLabelIdentifier1ELi16EEE7reserveEj
QHg:__Z41InternalEnumerator_1_MoveNext_m2088624192P32InternalEnumerator_1_t4136673857PK10MethodInfo
IHf:__ZN31OpCodes_t126150456_StaticFields13set_Brtrue_57E17OpCode_t123070264
Czd:__ZN20TextRenderingPrivate15DynamicFontData36GetFaceForCharacterIfAvailableInFontERKNS_7FontRefERK13dynamic_arrayI4PPtrIN13TextRendering4FontEELj0EEj
Wbn:_TextEditor_FindEndOfClassification_m3730027476
Llj:_IPv6Address_AsIPv4Int_m844941024
FTi:_RecordProtocol__cctor_m1280873827
rFh:_Matrix4x4_MultiplyPoint_m1575665487_AdjustorThunk
z4g:__ZNK22InputField_t376291743120get_m_WasCanceled_61Ev
SBp:__ZN6il2cpp6icalls8mscorlib6System10Reflection4Emit13DynamicMethod22destroy_dynamic_methodEP29Il2CppReflectionDynamicMethodS7_
VYf:_Marshal__cctor_m4007734770
Ssp:_GC_new_free_list_inner
fSk:_SymmetricTransform_Random_m2004892672
rSo:__ZN15dense_hashtableINSt3__24pairIK10KeyWrapperINS1_IPK10MethodInfoP11Il2CppClassEEEjEES9_17ReflectionMapHashIS8_EN14dense_hash_mapIS9_jSD_NS9_14EqualsComparerINS0_8equal_toIS8_EEEENS0_9allocatorISB_EEE9SelectKeyESI_SK_E5clearEv
JCa:__ZN9Scripting11UnityEngine30SerializePrivateVariablesProxy12CleanupProxyEv
tsp:_GC_err_printf
rIi:_RSAManaged_DecryptValue_m1804388365
zmg:_InternalEnumerator_1_System_Collections_IEnumerator_get_Current_m2980550840_AdjustorThunk
qan:_TextEditor_ClampTextIndex_m255190107
L4:__Z45AudioSource_CUSTOM_ReadExtensionPropertyValueP12Il2CppObjecti
bQ:__ZN25RuntimeAnimatorController8TransferI14SafeBinaryReadEEvRT_
kbd:__ZN8JSONRead8TransferI10RectOffsetEEvRT_PKc17TransferMetaFlagsb
X8:__ZN9JSONWrite8TransferIN11UnityEngine15CloudWebService14DataErrorEvent15FileErrorDetailEEEvRT_PKc17TransferMetaFlags
vSp:_emscripten_glColorPointer__wrapper
rCj:_Int32_Parse_m2087562008
vkk:_Array_compare_TisVector4_t3319028937_m1974066282_gshared
PRf:_MonoProperty_GetAccessors_m412928203
kJn:_TweenRunner_1_Start_m3757154622_gshared
BZ:__ZN12SoundManager20RegisterModifiedClipEP10SampleClip
WWh:_RemotingServices_GetClientChannelSinkChain_m1499550585
SKj:_Assembly_FillName_m1660001542
XPe:__ZL56_EventBuilder_t2558055199_CustomAttributesCacheGeneratorP21CustomAttributesCache
vok:_SHA384Managed_processBlock_m1272529332
o0:__ZN11AudioSource4PlayEd
Lvi:_Char_ToString_m278452217_AdjustorThunk
kIp:_bitshift64Shl
GBo:__ZN15dense_hashtableI10KeyWrapperIPK17Il2CppGenericInstES4_N6il2cpp8metadata21Il2CppGenericInstHashEN14dense_hash_setIS4_S7_NS4_14EqualsComparerINS6_24Il2CppGenericInstCompareEEENSt3__29allocatorIS4_EEE8IdentityESB_SE_E13set_empty_keyERKS4_
l8k:__Z63RuntimeInvoker_Char_t3634460470_Int16_t2552820387_RuntimeObjectPFvvEPK10MethodInfoPvPS4_
c2i:_Convert_ToDouble_m2924063577
hTd:__Z39CanvasRenderer_CUSTOM_GetColor_InjectedP12Il2CppObjectR10ColorRGBAf
kpa:__Z17GetCoreModuleSpecv
NNj:_CustomAttributeNamedArgument_ToString_m1488801416_AdjustorThunk
OWg:_Enumerator_MoveNext_m76191888_AdjustorThunk
vEo:__ZN10KeyWrapperIN6il2cpp5utils13dynamic_arrayIPK10Il2CppTypeLj4EEEEC2ENS7_11KeyTypeEnumE
gQc:__ZNSt3__27__sort4IRNS_6__lessI11KeyframeTplIfES3_EEPS3_EEjT0_S7_S7_S7_T_
zJd:_Read_CVT
hxb:__ZN12FileAccessor4SeekEx10FileOrigin
LMb:__ZL26Transfer_SimpleNativeClassI24GenerateTypeTreeTransfer17AnimationCurveTplIfELb0EEvRK29SerializationCommandArgumentsR31RuntimeSerializationCommandInfo
NGa:__ZN9Scripting11UnityEngine28ClassLibraryInitializerProxy12CleanupProxyEv
kZg:_ShimEnumerator_get_Value_m153531060_gshared
RVj:_DateTimeFormatInfo__ctor_m3106345035
bOi:_TlsServerKeyExchange_verifySignature_m3412856769
cu:__ZN9Scripting11UnityEngine10Animations31AnimatorControllerPlayableProxy9InitProxyEv
mYl:_EqualityComparer_1_System_Collections_IEqualityComparer_GetHashCode_m4137147946_gshared
oJ:__ZN7mecanim9animation4Clip8TransferI18StreamedBinaryReadEEvRT_
HGm:_Collection_1_System_Collections_ICollection_CopyTo_m5285659_gshared
Vhk:_Array_FindIndex_TisRuntimeObject_m225597877_gshared
Yuf:__ZL59g_AssemblyU2DCSharp_Assembly_CustomAttributesCacheGeneratorP21CustomAttributesCache
DMo:__ZN6il2cpp5utils9PathUtils8BasenameIcEENSt3__212basic_stringIT_NS3_11char_traitsIS5_EENS3_9allocatorIS5_EEEERKSA_
D$:__ZN10AudioMixer11SetupGroupsEv
X3c:__Z35Register_UnityEngine_Event_get_typev
U7d:__Z23il2cpp_codegen_multiplyIffEN11pick_biggerIT_T0_E4typeES1_S2_
C5o:__ZN6il2cpp2vm9Exception23GetInvalidCastExceptionERKNS_5utils10StringViewIDsEE
Nym:_List_1_System_Collections_IList_set_Item_m1606912354_gshared
zC:__ZN8Animator28BuildControllerPlayableCacheEv
uka:__Z63ThreadAndSerializationSafeCheckGetMonoBehaviourBeingTransferredv
ccj:_StackTrace__ctor_m206492268
Com:_List_1_set_Item_m4224739467_gshared
DPj:_ConstructorBuilder_get_Name_m2426555260
oIc:__Z37Register_UnityEngine_Input_GetAxisRawv
dyc:__ZN9ShaderLab16SerializedShader8TransferI19StreamedBinaryWriteEEvRT_
hqn:_Parser_ParseCharacterClass_m4285351396
y3i:_Convert_ToSByte_m2653418303
MWi:_SyncHashtable__ctor_m2449935938
d0:__ZN11AudioSource5ResetEv
wAj:_NumberFormatter_DecHexLen_m510984344
Hcc:__ZN12ImageFilters27SetSurfaceUseResolvedBufferEP13RenderTextureb
YFb:__ZN14SafeBinaryRead21TransferSTLStyleArrayI10vector_setI4PPtrI10MonoScriptENSt3__24lessIS4_EE13stl_allocatorIS4_L18MemLabelIdentifier79ELi16EEEEEvRT_17TransferMetaFlags
wUk:_UTF7Encoding_GetByteCount_m209415911
Lrb:__ZN2UI13RectTransform13AwakeFromLoadE17AwakeFromLoadMode
Stn:_RegularExpression_Compile_m2385682508
Wyp:__ZN6il2cpp6icalls8mscorlib6System10Reflection13MonoEventInfo14get_event_infoEP25Il2CppReflectionMonoEventP29Il2CppReflectionMonoEventInfo
Yhc:__ZN14qsort_internal30FindAndMovePivotToLastPositionIP20ShadowCasterSortDatai26ShadowCasterSortDataSorterEEvT_S4_T0_T1_
qGb:__Z18Transfer_BlittableI14SafeBinaryReadLb1EiEvRK29SerializationCommandArgumentsR31RuntimeSerializationCommandInfo
r3e:__ZL49Cursor_t1422555833_CustomAttributesCacheGeneratorP21CustomAttributesCache
Kbp:__ZN14dense_hash_mapI10KeyWrapperINSt3__24pairIPKcS4_EEEi24NamespaceAndNamePairHashNS6_14EqualsComparerI26NamespaceAndNamePairEqualsEENS1_9allocatorINS2_IKS6_iEEEEE6insertERKSD_
MAe:__Z36TweenRunner_1_StartTween_m2247690200P25TweenRunner_1_t305552545821ColorTween_t809614380PK10MethodInfo
aTj:_EventArgs__cctor_m1889823314
M9g:_LayoutGroup_set_padding_m282562135
RMj:_Default_IsArrayAssignable_m953489228
G2k:_UInt16_ToString_m355311020_AdjustorThunk
aBa:__ZL55__ManagedRegistrationHelperFunction_PlayableOutputProxyPv
Hk:_glGetStringi
VBk:_DecoderExceptionFallback_CreateFallbackBuffer_m1133375601
aLd:_UNITY_ft_corner_is_flat
qng:__Z75InternalEnumerator_1_System_Collections_IEnumerator_get_Current_m1503522504P32InternalEnumerator_1_t1004352082PK10MethodInfo
bRm:_ReadOnlyCollection_1_System_Collections_IList_Clear_m2007013334_gshared
Hag:_SerializationEntry__ctor_m1411687997_AdjustorThunk
LK:__ZN8Animator9WriteStepEy
J9:__ZN11UnityEngine15CloudWebService20WebRequestRestClient18GetResponseHeadersEv
QMc:__ZN16PropertyAccessorC2Ev
BDa:__ZN9Scripting11UnityEngine17PropertyNameProxy12CleanupProxyEv
cEm:_Collection_1_ConvertItem_m1743542180_gshared
qNd:__Z38Register_UnityEngine_Font_HasCharacterv
H0k:_Type_GetArrayRank_m276452511
CNc:__ZN22RenderTextureScripting6CreateE21ScriptingObjectOfTypeI13RenderTextureE
jmc:__Z35IntersectSpherePlaneBoundsOptimizedRKN4math7_float4EPS1_i
TJ:__ZN7mecanim9animation9DenseClip8TransferI19StreamedBinaryWriteEEvRT_
Z5l:_RNGCryptoServiceProvider__cctor_m3587754670
Pwg:_InternalEnumerator_1_MoveNext_m1728532725_AdjustorThunk
Ooa:__ZN17TransformInternal21DetachTransformThreadER18TransformHierarchyjj
Lip:__ZN6il2cpp2os5posix15PosixWaitObject13InterruptWaitEv
MUn:_updateScore_OnGUI_m1227304773
Fqa:__Z22CleanupLODGroupManagerPv
L3c:__Z21Event_CUSTOM_PopEventP12Il2CppObject
wl:_glUniform3fv
wAp:__ZNK6il2cpp8metadata24Il2CppGenericInstCompareclERK10KeyWrapperIPK17Il2CppGenericInstES8_
Bnb:__ZNSt3__218__insertion_sort_3IRN15ResourceManager10Dependency6SorterEPS2_EEvT0_S6_T_
uoo:_CustomEventData_AddInt32_m548429697
pPo:__ZN6il2cpp2gc19AppendOnlyGCHashMapINSt3__24pairIPK9FieldInfoP11Il2CppClassEEP21Il2CppReflectionField17ReflectionMapHashIS9_ENS2_8equal_toIS9_EEE3AddERKS9_SB_
Zxm:_List_1_GetEnumerator_m2002930564_gshared
Bgc:__ZNK16LightmapSettings31GetRealtimeLightmapDecodeValuesEv
m$:__ZN5audio5mixer12SetSuspendedERNS0_16AudioMixerMemoryEb
Tqb:__ZN17PersistentManager21UnloadNonDirtyStreamsEv
gLl:_Object_Instantiate_TisRuntimeObject_m1135049463_gshared
ukc:__Z19AddReflectionProbesP11CullResultsPK23ReflectionProbesContextPKjjS5_j
jgl:__Z96RuntimeInvoker_Int32_t2950945753_RuntimeObject_Int32_t2950945753_RuntimeObject_Int32_t2950945753PFvvEPK10MethodInfoPvPS4_
OYn:_AnalyticsEventTracker_OnEnable_m1121905268
M9e:__ZL102RenderTexture_t2108887433_CustomAttributesCacheGenerator_RenderTexture__ctor_m1464033784____readWrite4P21CustomAttributesCache
bvn:_Uri_get_Parser_m3737125102
wko:_Canvas_get_overrideSorting_m2740418462
Vwh:_Debug_LogFormat_m309087137
Eti:_Byte_System_IConvertible_ToInt16_m4136764794_AdjustorThunk
kdp:__ZN6il2cpp2vmL12StringsMatchEPKcS2_b
qfb:__ZN12ImageFilters4BlitER17ShaderPassContextP7TextureP13RenderTextureiPK18SharedMaterialDataPKcP6ShaderiNS_9BlitFlagsE11CubemapFaceRK8Vector2fSH_
v5l:_RIPEMD160Managed_HashCore_m2350629432
Nyk:_String_LastIndexOf_m3451222878
Bmn:_Mark_get_Index_m3048692661
csf:__ZL69CanvasScaler_t2767979955_CustomAttributesCacheGenerator_m_ScaleFactorP21CustomAttributesCache
x9:__ZN11UnityEngine15CloudWebService10RestClientINS0_23WebRequestRestHeaderMapEED2Ev
Uf:_emscripten_glDepthMask
Jfi:_RemotingServices_CreateClientProxy_m3886727610
v7a:__ZN4crnd25static_huffman_data_model22prepare_decoder_tablesEv
STi:_RecordProtocol_GetMessage_m2086135164
NYc:__Z35CullingGroup_CUSTOM_DisposeInternalP12Il2CppObject
Opn:_BalancingGroup_set_Balance_m3289053627
POj:__ZNK26AssemblyBuilder_t35988525026get_is_compiler_context_45Ev
Era:__Znaj
A4m:_X509Certificate_get_IsSelfSigned_m4064195693
w1d:__ZN20UnityWebRequestProtoI24UnityWebRequestTransport16AtomicRefCounter14RedirectHelper14ResponseHelper15DownloadHandler13UploadHandler18CertificateHandler12HeaderHelper14AsyncOperationE26Job_ExecuteUnityWebRequestEPS9_
wfa:__ZN17MessageIdentifierC2EPKcNS_7OptionsEPKN5Unity4TypeES1_
sOd:__GLOBAL__sub_I_UIElementsScriptingClasses_cpp
oGh:_Mesh_SetTriangles_m1523451247
Jwk:_Single_System_IConvertible_ToSByte_m1208276900
mFl:_Array_InternalArray__set_Item_TisVector4_t3319028937_m757305038_gshared
_Cc:__ZNSt3__26__treeIPc15compare_tstringIPKcENS_9allocatorIS1_EEE25__emplace_unique_key_argsIS1_JS1_EEENS_4pairINS_15__tree_iteratorIS1_PNS_11__tree_nodeIS1_PvEEiEEbEERKT_DpOT0_
gel:__Z105RuntimeInvoker_Void_t1185182177_RuntimeObject_RuntimeObject_RuntimeObject_RuntimeObject_Int32_t2950945753PFvvEPK10MethodInfoPvPS4_
nOl:_ValueCollection_System_Collections_Generic_ICollectionU3CTValueU3E_Add_m3298059628_gshared
J8k:__Z64RuntimeInvoker_RuntimeObject_Int16_t2552820387_Int16_t2552820387PFvvEPK10MethodInfoPvPS4_
b5:__Z55Register_UnityEngine_AudioSource_get_spatializeInternalv
Ark:_X509Certificate_GetPublicKey_m4184729161
oha:__ZN24ProfilerCallbacksHandler13FrameCallbackEPv
sac:__ZNK6Camera16GetStereoEnabledEv
pjl:__Z72RuntimeInvoker_Int32_t2950945753_TimeSpan_t881159249_TimeSpan_t881159249PFvvEPK10MethodInfoPvPS4_
MUi:_SendRecordAsyncResult_SetComplete_m153213906
EH:__ZN13AnimationClip9PPtrCurveaSERKS0_
QFc:__ZN12LightManager15InitializeClassEv
LZk:_WaitHandle__cctor_m4242752477
v0a:__ZN9ShaderLab11shaderprops16GetComputeBufferEPK19ShaderPropertySheetS3_NS_16FastPropertyNameE
oqp:__ZN6il2cpp6icalls8mscorlib6System10Reflection10MethodBase31GetMethodFromHandleInternalTypeEii
mma:__ZN23ManagedAttributeManager35CallManagedGetDefaultExecutionOrderE17ScriptingClassPtr
Jja:__ZN18ScriptingArgumentsC2Ev
Gan:_TextEditor_MoveWordRight_m1054074473
hBj:_NumberFormatter_Append_m1427178134
c9b:__ZZ23InitPlayerLoopCallbacksvEN47PostLateUpdateMemoryFrameMaintenanceRegistrator7ForwardEv
CSp:_emscripten_glBlendFuncSeparate__wrapper
NEg:__Z44InternalEnumerator_1_get_Current_m1232221964P32InternalEnumerator_1_t3507565409PK10MethodInfo
m0g:__ZN22InputField_t376291743121set_m_KeyboardType_25Ei
HE:__ZN7mecanim9animation26InitClipMuscleAverageSpeedERNS0_18ClipMuscleConstantEi
F4j:_FileSystemInfo__ctor_m3769019897
QW:__ZN9Scripting11UnityEngine17WebCamDeviceProxy12CleanupProxyEv
hcc:__ZNK25CameraStackRenderingState27GetStereoImageEffectTextureEb
iig:_HMACSHA384__ctor_m1677515580
iXi:_Queue__ctor_m3552486878
HIo:__ZN6il2cpp6icalls6System6System3Net7Sockets6Socket7ReceiveEiP11Il2CppArrayiiNS4_11SocketFlagsEPi
zQc:__ZN13BuildSettings13GetSceneIndexERKN4core12basic_stringIcNS0_20StringStorageDefaultIcEEEE
vn:FUNCTION_TABLE_ii
wDh:_Logger_IsLogTypeAllowed_m3527674834
K7c:__Z18Transfer_BlittableI9JSONWriteLb0E8BitFieldEvRK29SerializationCommandArgumentsR31RuntimeSerializationCommandInfo
F7j:_MemoryStream_set_Capacity_m1773624579
P2o:__ZNK15dense_hashtableINSt3__24pairIK10KeyWrapperINS1_IP11Il2CppClassjEEES4_EES6_N6il2cpp8metadata14ArrayClassHashEN14dense_hash_mapIS6_S4_SB_NS6_14EqualsComparerINSA_17ArrayClassCompareEEENS0_9allocatorIS8_EEE9SelectKeyESF_SH_E10test_emptyEj
bqh:_SpriteState_set_pressedSprite_m3368686500_AdjustorThunk
Fvc:__ZNSt3__26vectorIN9ShaderLab20SerializedSubProgram15StructParameterENS_9allocatorIS3_EEE8__appendEj
wMp:b44
ca:invoke_diiii
zMp:b47
sll:__Z95RuntimeInvoker_Void_t1185182177_RuntimeObject_RuntimeObject_SByte_t1669577662_SByte_t1669577662PFvvEPK10MethodInfoPvPS4_
Isc:__Z24CreateDirectoryRecursiveRKN4core12basic_stringIcNS_20StringStorageDefaultIcEEEE
Mim:_Enumerator__ctor_m2434622462_AdjustorThunk
tMp:b41
sMp:b40
p1c:__Z22MonoGUIContentToNative18ScriptingObjectPtrR10GUIContent
h0:__ZN11AudioSource23VirtualRedirectTransferER17RemapPPtrTransfer
e2e:__ZL54ContextMenu_t1295656858_CustomAttributesCacheGeneratorP21CustomAttributesCache
Uha:__ZN13RuntimeStaticI21ScalableBufferManagerLb0EE13StaticDestroyEPv
GPd:__ZN2UI13CanvasManager9AddCanvasEPNS_6CanvasE
ndc:__ZNK6Camera22CalculateRenderingPathEv
e9c:__ZN9JSONWrite8TransferI5RectTIfEEEvRT_PKc17TransferMetaFlags
oM:__ZN11UnityEngine9Animation37SetGenericRootTransformPropertyValuesERKNS0_30AnimatorGenericBindingConstantERKN7mecanim10ValueArrayER9Transformbb
xao:_Vector3_Equals_m906392898
W4b:__Z13ConvertMipmap14GraphicsFormatPKvS_Pviiii
sLb:__ZL12InvokeMethodI17RemapPPtrTransferEvRK29SerializationCommandArgumentsR31RuntimeSerializationCommandInfo
Dij:_RemoteCertificateValidationCallback_Invoke_m3086073466
cBk:_StringComparer_Compare_m991165676
YGd:_tt_sbit_decoder_load_image
Tpg:_InternalEnumerator_1_MoveNext_m3299696349_AdjustorThunk
VXc:__Z38Application_Get_Custom_PropAbsoluteURLv
M$f:_ChannelServices_RegisterChannelConfig_m3525848799
c$c:__Z40Register_UnityEngine_Transform_GetParentv
GIn:_U3CStartU3Ec__Iterator0_Dispose_m261027331_gshared
jxd:__ZL51__ManagedRegistrationHelperFunction_UILineInfoProxyPv
s2c:__ZNSt3__24listIN10GUIManager12SortedScriptE11memory_poolIS2_EE6__sortI13OldSortScriptEENS_15__list_iteratorIS2_PvEESA_SA_jRT_
Qxc:__ZN18StreamedBinaryRead19TransferSTLStyleMapINSt3__23mapIN4core12basic_stringIcNS3_20StringStorageDefaultIcEEEEiNS1_4lessIS7_EENS1_9allocatorINS1_4pairIKS7_iEEEEEEEEvRT_17TransferMetaFlags
epm:_List_1_AddEnumerable_m3500350831_gshared
NFo:__ZN24dense_hashtable_iteratorINSt3__24pairIK10KeyWrapperIPK11Il2CppClassEPKcEES6_N6il2cpp5utils11PointerHashIS3_EEN14dense_hash_mapIS6_S9_SE_NS6_14EqualsComparerINS0_8equal_toIS5_EEEENS0_9allocatorISA_EEE9SelectKeyESJ_SL_E30advance_past_empty_and_deletedEv
rHi:_PrivateKeyInfo_get_PrivateKey_m3647771102
_I:__ZN13AnimationClip8TransferI17RemapPPtrTransferEEvRT_
a7o:__ZN6il2cpp6icalls8mscorlib6System9ThreadingL11ThreadStartEPv
vua:__ZN15DirectorManager12OnSampleTimeEv
xEf:_TypeBuilder_check_not_created_m3652863637
Kie:_StandaloneInputModule_UpdateModule_m450861257
yC:__ZN8Animator13ClearBindingsEv
mVm:_ReadOnlyCollection_1_System_Collections_IList_Insert_m2928873627_gshared
g$l:_EqualityComparer_1__cctor_m314889309_gshared
$Ia:__ZN12CachedReader10Align4ReadEv
djd:__ZN15b2WorldManifold10InitializeEPK10b2ManifoldRK11b2TransformfS5_f
VXd:__ZN11UnityEngine9Analytics15AppInstallEventC2Ev
u3m:_X501__cctor_m2428304915
vko:_Canvas_get_renderOrder_m1489855841
GH:__Z14resize_trimmedINSt3__26vectorIN13AnimationClip10FloatCurveE13stl_allocatorIS3_L18MemLabelIdentifier26ELi16EEEEEvRT_j
uDa:__ZN9Scripting11UnityEngine12RectIntProxy9InitProxyEv
$ii:_X501_ToString_m4186311521
A7m:_Event_ToString_m1688862299
KJa:__ZNK9Behaviour22GetTypeVirtualInternalEv
hUj:_CCGregorianCalendar_month_from_fixed_m4268992710
lkk:_Array_compare_TisUICharInfo_t75501106_m1310495481_gshared
Ixd:__ZN20TextRenderingPrivate8FontImpl8TransferI14SafeBinaryReadEEvRT_
wgf:__ZL82AnimatorTransitionInfo_t2534804151_CustomAttributesCacheGenerator_m_NormalizedTimeP21CustomAttributesCache
b3n:_DownloadHandlerBuffer_InternalGetData_m3771716959
vTm:_ReadOnlyCollection_1_System_Collections_IList_Clear_m4022532825_gshared
Ozk:_Encoding_get_ASCII_m3595602635
PMh:_Ray_get_direction_m761601601_AdjustorThunk
xBb:__ZN9GfxDevice17ImmediateTexCoordEifff
xip:__ZN6il2cpp2os16MemoryMappedFile5CloseEPNS0_10FileHandleE
$qd:__ZN10ClipperLib7Clipper13AppendPolygonEPNS_5TEdgeES2_
xQj:_DerivedType_GetCustomAttributes_m3536779709
zVe:__ZL93Interlocked_t2273387594_CustomAttributesCacheGenerator_Interlocked_CompareExchange_m388540288P21CustomAttributesCache
jEf:_MethodBase_get_IsAbstract_m428833029
mFf:_TypeBuilder_check_name_m3505884515
ms:__ZN13ConstraintJob23ConstraintComponentDataC2ERK18PositionConstraint
POp:_emscripten_glUniform4f__wrapper
kvi:_Char_IsDigit_m3646673943
LFa:__ZN9Scripting11UnityEngine12Experimental10PlayerLoop16EarlyUpdateProxy12CleanupProxyEv
qhm:_Enumerator_MoveNext_m2595190390_AdjustorThunk
Btl:__Z111RuntimeInvoker_Boolean_t97287965_Ray_t3785851493_RaycastHitU26_t2429360258_Single_t1397266774_Int32_t2950945753PFvvEPK10MethodInfoPvPS4_
pfc:__ZNK6Camera16GetProjectionFarEv
qr:__Z24InverseTransformRotationRK23TransformAccessReadOnlyRKN4math7_float4E
ZE:__ZN9BlobWrite8TransferIN7mecanim9animation10ValueDeltaEEEvRT_PKc17TransferMetaFlags
_ed:__ZN11UnityEngine9Analytics16StartupTimeEvent23SetSplashScreenTimeInfoEyyy
x5m:_X509Chain_Build_m2469702749
k0:__ZN11AudioSource6UpdateEv
N0d:__Z31GetPerformanceReportingSettingsv
S2a:__ZNK14PlayableOutput11DerivesFromE17ScriptingClassPtr
nza:__ZL55__ManagedRegistrationHelperFunction_AnimationCurveProxyPv
Ejg:__ZN25GenericVirtActionInvoker06InvokeEPK10MethodInfoP12Il2CppObject
Vzp:__ZN6il2cpp2os9FastMutex4LockEv
SCc:__ZN2UI13RectTransform27SendReapplyDrivenPropertiesEv
eOl:__Z29Enumerator_Dispose_m609557587P22Enumerator_t3843782539PK10MethodInfo
NFe:__ZL64SerializableAttribute_t1992588303_CustomAttributesCacheGeneratorP21CustomAttributesCache
Oxb:__ZN25SingleBlockMemoryFileDataC2E10MemLabelIdPvjb
pyc:__ZN9ShaderLab20SerializedSubProgram14ConstantBuffer8TransferI19StreamedBinaryWriteEEvRT_
nWa:__ZN21PlatformShaderDefines8TransferI19StreamedBinaryWriteEEvRT_
Xjd:__ZNK14b2CapsuleShape5CloneEP16b2BlockAllocator
$5:__ZN16BaseVideoTexture19UpdateVideoTexturesEv
Ihb:__ZN14SpriteRenderer8TransferI19StreamedBinaryWriteEEvRT_
shk:_Array_InternalArray__IEnumerable_GetEnumerator_TisOrderBlock_t1585977831_m2414028303_gshared
tpb:__ZNK16LightmapSettings23HasLightProbeTetrahedraEv
wej:_Enum_GetHashCode_m2848082716
TCc:__ZN2UI13RectTransform12SetAnchorMaxERK8Vector2f
h3o:__ZN14dense_hash_mapI10KeyWrapperIP11Il2CppClassES2_N6il2cpp8metadata16SZArrayClassHashENS3_14EqualsComparerINS5_19SZArrayClassCompareEEENSt3__29allocatorINSA_4pairIKS3_S2_EEEEE13set_empty_keyERSD_
xae:_EventTrigger_Execute_m2453060771
Kxn:_Comparison_1_Invoke_m517083441_gshared
rSg:__Z65Enumerator_System_Collections_IEnumerator_get_Current_m1890150222P22Enumerator_t1957567516PK10MethodInfo
lpo:_RemoteConfigSettings_Internal_Destroy_m1072151938
iQo:__ZNK15dense_hashtableINSt3__24pairIK10KeyWrapperINS1_IPK9FieldInfoP11Il2CppClassEEEjEES9_17ReflectionMapHashIS8_EN14dense_hash_mapIS9_jSD_NS9_14EqualsComparerINS0_8equal_toIS8_EEEENS0_9allocatorISB_EEE9SelectKeyESI_SK_E5beginEv
Zlp:__ZN6il2cpp2os6Thread15CurrentThreadIdEv
DVo:__ZN15dense_hashtableINSt3__24pairIK10KeyWrapperINS1_IPK9EventInfoP11Il2CppClassEEEjEES9_17ReflectionMapHashIS8_EN14dense_hash_mapIS9_jSD_NS9_14EqualsComparerINS0_8equal_toIS8_EEEENS0_9allocatorISB_EEE9SelectKeyESI_SK_E12maybe_shrinkEv
lF:__ZN15SerializeTraitsIN4math4trsXEE8TransferI8BlobSizeEEvRS1_RT_
D2b:__ZN14DataBufferGLES11CopySubDataEPKS_jjj
ji:_emscripten_glVertexPointer
Cnn:_PatternCompiler_GetMachineFactory_m3758869886
Cic:__Z17GetFrustumPortionPK8Vector3fffPS_
fap:__ZN15dense_hashtableINSt3__24pairIK10KeyWrapperIP14Il2CppIUnknownEjEES5_N6il2cpp5utils11PointerHashIS3_EEN14dense_hash_mapIS5_jSB_NS5_14EqualsComparerINS0_8equal_toIS4_EEEENS0_9allocatorIS7_EEE9SelectKeyESG_SI_E14squash_deletedEv
Tae:_EventTrigger_OnCancel_m585099428
Qfn:_GUILayoutEntry_ApplyOptions_m1741659338
dcg:_RuntimeTypeHandle_Equals_m2857439487_AdjustorThunk
Tzb:__ZNK9GfxDevice27GetPlatformAdjustedViewportEv
rQm:_ReadOnlyCollection_1_System_Collections_Generic_IListU3CTU3E_set_Item_m88350439_gshared
Wma:__ZNSt3__26vectorINS_4pairIiiEE13stl_allocatorIS2_L18MemLabelIdentifier38ELi16EEE6insertENS_11__wrap_iterIPKS2_EEOS2_
wif:__ZL56GUIStyleState_t1397964415_CustomAttributesCacheGeneratorP21CustomAttributesCache
jIl:__ZN22ScoreU5BU5D_t42740159714SetAtUncheckedEj17Score_t1179825972
Ns:__ZL64__ManagedRegistrationHelperFunction_AnimationPlayableOutputProxyPv
Isn:_Reference_Compile_m4195878675
dvm:_List_1_set_Item_m2057272351_gshared
NSm:_ReadOnlyCollection_1_System_Collections_ICollection_CopyTo_m2672196987_gshared
YMc:__ZN16StreamedResource8TransferI24GenerateTypeTreeTransferEEvRT_
SOh:_RectTransform_get_anchorMin_m2928307238
f1d:__ZN9Scripting11UnityEngine10Networking20DownloadHandlerProxy12CleanupProxyEv
$vi:_ArrayList__ctor_m3828927650
LTa:__ZN10Matrix3x3f15InvertTransposeEv
ngn:_GUILayoutGroup_SetHorizontal_m996475327
J9b:__Z11IsBatchmodev
wdm:_Enumerator_System_Collections_IEnumerator_get_Current_m713684915_gshared
UJb:__Z29Transfer_Blittable_ArrayFieldI14SafeBinaryRead8Vector3fEvRT_R9ArrayInfoRK23StaticTransferFieldInfo
X4g:__ZNK22Selectable_t325002844140get_U3ChasSelectionU3Ek__BackingField_16Ev
xyd:__ZN20TextRenderingPrivate8FontImpl18ResetCachedTextureEv
KKo:__ZN6il2cpp6icalls8mscorlib6SystemL16GetFieldFromTypeINS_5utils10functional6FilterINSt3__212basic_stringIcNS7_11char_traitsIcEENS7_9allocatorIcEEEENS4_13VmStringUtils21CaseSensitiveComparerEEEEEP21Il2CppReflectionFieldP11Il2CppClassSK_iRKT_
_xc:__ZN18StreamedBinaryRead21TransferSTLStyleArrayINSt3__26vectorIN9ShaderLab20SerializedSubProgram16SamplerParameterENS1_9allocatorIS5_EEEEEEvRT_17TransferMetaFlags
poj:_X509KeyUsageExtension_Decode_m3150759625
Jtp:_GC_print_finalization_stats
dhd:__ZNK12b2WheelJoint10GetAnchorBEv
cjn:_GUITargetAttribute_GetGUITargetAttrValue_m2954410352
HNd:__ZN9Scripting11UnityEngine8Tilemaps13TileBaseProxy12CleanupProxyEv
GUc:__Z53Register_UnityEngine_Behaviour_get_isActiveAndEnabledv
Zq:__ZNSt3__26vectorIN4core12basic_stringIcNS1_20StringStorageDefaultIcEEEENS_9allocatorIS5_EEE8__appendEj
k6:__ZN13ProduceHelperI10SampleClipLb0EE7ProduceE10MemLabelId18ObjectCreationMode
llb:__ZN26PlayerSettingsSplashScreen8TransferI17RemapPPtrTransferEEvRT_
HMk:_ASN1_set_Value_m2803403806
WKo:__ZN6il2cpp6icalls8mscorlib6SystemL17CollectTypeFieldsINS_5utils10functional10TrueFilterEEEvP11Il2CppClassPKS7_iRNSt3__26vectorIP9FieldInfoNSB_9allocatorISE_EEEERKT_
sAa:__ZL67__ManagedRegistrationHelperFunction_SupportedRenderingFeaturesProxyPv
Sgi:_StrongName_set_RSA_m3858265129
_Ic:__Z13GetTagManagerv
poi:_Hashtable__ctor_m1815022027
BKm:_Collection_1_IsSynchronized_m1117613618_gshared
gMa:__ZN15SerializeTraitsI13dynamic_arrayI17SortingLayerEntryLj0EEE8TransferI24GenerateTypeTreeTransferEEvRS2_RT_
yza:__ZL48__ManagedRegistrationHelperFunction_Vector3ProxyPv
ZUk:_UTF8Encoding_GetChars_m1433288684
Fro:_Physics2D_GetRayIntersectionNonAlloc_Internal_m177321563
qAa:__ZL68__ManagedRegistrationHelperFunction_ScriptableCullingParametersProxyPv
nM:__ZN11UnityEngine9Animation37HasGenericRootTransformPropertyValuesERKNS0_30AnimatorGenericBindingConstantEb
t7:__ZN11UnityEngine15CloudWebService17CloudJobSchedulerD0Ev
jyi:_SynchronizedArrayListWrapper_set_Item_m1979747874
pob:__ZN18LoadSceneOperation7PerformEv
Bed:__ZN11UnityEngine9Analytics26PerformanceReportingConfig13ConfigChangedERKN4core12basic_stringIcNS2_20StringStorageDefaultIcEEEER8JSONRead
G$k:_TimeZone_ToUniversalTime_m2789507578
c9k:__Z96RuntimeInvoker_Boolean_t97287965_RuntimeObject_RuntimeObject_Int32_t2950945753_Int32_t2950945753PFvvEPK10MethodInfoPvPS4_
qik:__ZNK31RaycastResultU5BU5D_t112883244414GetAtUncheckedEj
$Od:__ZNK2UI11CanvasGroup22GetTypeVirtualInternalEv
DQi:_Context_get_Current_m2853615040
Zqd:__ZN10ClipperLib7Clipper14IntersectEdgesEPNS_5TEdgeES2_RNS_8IntPointE
$qn:_Assertion__ctor_m2128950829
_0k:_Type_IsContextfulImpl_m3693603908
B1n:__Z26List_1_get_Item_m200663048P17List_1_t899420910iPK10MethodInfo
Ofm:_Enumerator_VerifyState_m2873941769_gshared
u1k:_TypeInitializationException__ctor_m3546444694
d7b:__ZN22VertexDeclarationCache5ClearEv
ieg:_CspParameters__ctor_m3852972821
sKg:__Z37InternalEnumerator_1__ctor_m945079686P32InternalEnumerator_1_t3063293640P11Il2CppArrayPK10MethodInfo
Yqc:__ZN17PersistentManager12SetPathRemapERKN4core12basic_stringIcNS0_20StringStorageDefaultIcEEEES6_
hkc:__ZN6Camera24PrepareCullingParametersERK23CameraCullingParameters13RenderingPathR11CullResults
skc:__Z20CullReflectionProbesR8JobFenceRK22SceneCullingParametersRK23ReflectionProbesContextPKjjPjS9_
yGl:_Array_Sort_TisUICharInfo_t75501106_m3474449559_gshared
kRb:__Z18Transfer_BlittableI18StreamedBinaryReadLb1EaEvRK29SerializationCommandArgumentsR31RuntimeSerializationCommandInfo
Vu:__ZN7mecanim9animation17CreateAvatarInputEPKNS0_14AvatarConstantER20RuntimeBaseAllocator
Uon:_QuickSearch_GetShiftDistance_m2542665852
bFa:__ZN9Scripting11UnityEngine29FailedToLoadScriptObjectProxy12CleanupProxyEv
$_c:__Z57Register_UnityEngine_Transform_set_localRotation_Injectedv
lKl:_Array_InternalArray__get_Item_TisCustomAttributeTypedArgument_t2723150157_m2639399822_gshared
BKk:_BigInteger_GenerateRandom_m3141592944
NNb:__Z29Transfer_Blittable_ArrayFieldI24GenerateTypeTreeTransfer4AABBEvRT_R9ArrayInfoRK23StaticTransferFieldInfo
qln:_Interval_Contains_m1454846757
tze:_Graphic_CacheCanvas_m1120385152
AT:__ZN26AnimatorOverrideController15InitializeClassEv
bU:__ZN10HumanTrait21InitializeMonoIndicesEv
nyo:__ZN30dense_hashtable_const_iteratorINSt3__24pairIK10KeyWrapperIPK11Il2CppClassEPKcEES6_N6il2cpp5utils11PointerHashIS3_EEN14dense_hash_mapIS6_S9_SE_NS6_14EqualsComparerINS0_8equal_toIS5_EEEENS0_9allocatorISA_EEE9SelectKeyESJ_SL_EC2EPK15dense_hashtableISA_S6_SE_SN_SJ_SL_EPKSA_SU_b
shd:__ZN13b2PulleyJoint24SolveVelocityConstraintsERK12b2SolverData
CCp:_emscripten_GetProcAddress
fWo:__ZN6il2cpp2vmL26GetReflectionMissingObjectEv
va:invoke_fiiifii
HEp:_modff
xsi:_Boolean_System_IConvertible_ToBoolean_m422934902
HYa:__ZN20SphericalHarmonicsL219AddDirectionalLightERKN4math7_float3ERKNS0_7_float4E
Dt:__ZN9Scripting11UnityEngine27AnimatorTransitionInfoProxy12CleanupProxyEv
mua:__Z26ScheduleJobForEachInternalR8JobFencePFvPvjES1_iPFvS1_E11JobPriority
d9b:__ZZ23InitPlayerLoopCallbacksvEN41PostLateUpdateProfilerEndFrameRegistrator7ForwardEv
$zc:__ZN9Scripting18RaiseMonoExceptionEPKcz
EYb:__ZL20DrawVBOChunkWithPassP6ShaderPN9ShaderLab4PassER17ShaderPassContextR10DynamicVBORK21DynamicVBOChunkHandle
DLc:__ZN10GameObject17WillHandleMessageERK17MessageIdentifier
Duk:_SecurityContext__ctor_m1730177197
Clo:_RectTransformUtility_GetTransposed_m3952754222
zGc:__ZN9ShaderLab16FastPropertyName15InitBy28BitHashEj
SGh:_MonoBehaviour_StopCoroutineManaged_m3194025768
ocl:__Z96RuntimeInvoker_Void_t1185182177_Int32_t2950945753_Single_t1397266774_RuntimeObject_RuntimeObjectPFvvEPK10MethodInfoPvPS4_
Ehb:__Z30AddDefaultStreamsToChannelInfoRA14_K11ChannelInfo17ShaderChannelMaskS3_jbPS_
KGg:__Z38InternalEnumerator_1__ctor_m2635640285P32InternalEnumerator_1_t3186646106P11Il2CppArrayPK10MethodInfo
Qwd:__ZN9Scripting11UnityEngine18TreePrototypeProxy12CleanupProxyEv
hGf:__ZN17OpCode_t12307026410set_size_4Eh
tQg:_Enumerator_System_Collections_IDictionaryEnumerator_get_Key_m195047678_AdjustorThunk
pin:_GUIStyleState_GetGUIStyleState_m74106824
lib:__ZN17PackedFloatVector12UnpackFloatsEPfiiii
cMf:_TypeBuilder_ToString_m3497908325
qD:__ZN17AnimationPlayable28UpdateInternalStateRecursiveILi3ELb0EEEvPK35AnimationPlayableEvaluationConstant
h0b:__ZN13GfxDeviceGLES21DestroyComputeProgramER12ObjectHandleI18ComputeProgram_TagPvE
xfk:_Enumerable_Any_TisRuntimeObject_m3853239423_gshared
don:_PatternCompiler_EmitIfDefined_m2075050865
_7o:__ZN6il2cpp6icalls8mscorlib6System5Array12SetValueImplEP11Il2CppArrayP12Il2CppObjecti
r9i:_Decimal_System_IConvertible_ToInt64_m1446427516_AdjustorThunk
Jqa:__ZN17UniqueIDGenerator16DestroyPureIndexEj
KIj:_NotImplementedException__ctor_m3095902440
Ama:__ZL21AppendNestedClassName17ScriptingClassPtrRN4core17string_with_labelILi1EEE
nvc:__ZN14SafeBinaryRead21TransferSTLStyleArrayINSt3__26vectorIN9ShaderLab20SerializedSubProgram12UAVParameterENS1_9allocatorIS5_EEEEEEvRT_17TransferMetaFlags
V3o:__ZN6il2cpp8metadata13ArrayMetadata20SetupArrayInterfacesEP11Il2CppClassRKNS_2os12FastAutoLockE
Nt:__ZN9Scripting11UnityEngine21AnimatorClipInfoProxy12CleanupProxyEv
P8:__ZN24TextDOMTransferWriteBaseI9JSONWriteE12PushMetaFlagEi
iD:__ZN11UnityEngine9AnimationL22GenerateBindingRecurseERK16TypeTreeIterator18ScriptingObjectPtr5crc32R13dynamic_arrayINS0_13CachedBindingELj0EE
Bxa:__ZN6prcoreL26RemapGenericIntegerToFloatI17TexFormatARGB888815TexFormatRFloatEEvPKNS_9InnerInfoE
Zvd:__ZN9Scripting11UnityEngine12PhysicsProxy12CleanupProxyEv
VJo:__ZN6il2cpp2vm10ThreadPool10InitializeEv
Xrm:_List_1__ctor_m808270210_gshared
n_o:__ZN6il2cpp2vm17TypeNameParseInfoD2Ev
M3l:_PrimeHelper_ToPrime_m3704362632_gshared
WY:__ZN4FMOD7Channel7setModeEj
_8i:_Decimal_System_IConvertible_ToType_m2919262279
_9n:_Vector2_get_right_m1027081661
jeb:__ZNK8Renderer8GetLayerEv
B7h:_ConstructionCall_GetObjectData_m1001686567
i9j:_Stream_Close_m771352034
Z5b:__ZN25TransformFeedbackSkinning8SkinMeshEPK18VertexStreamSourceiP17GPUSkinPoseBufferP9GfxBufferiiP17VertexDeclaration17ShaderChannelMaskb
IGf:__ZN31OpCodes_t126150456_StaticFields13set_Ldarg_1_3E17OpCode_t123070264
hYa:__ZN12FlareManager11DeleteFlareEi
T6f:_CodeGenerator_EmitWriteTypeSpec_m3265719084
Aec:__ZNK6Camera20GetReplacementShaderEv
svm:_List_1_System_Collections_IList_Remove_m4226673807_gshared
ozp:__ZNSt3__26__treeINS_12__value_typeINS_12basic_stringIcNS_11char_traitsIcEENS_9allocatorIcEEEEPFvvEEENS_19__map_value_compareIS7_SA_NS_4lessIS7_EELb1EEENS5_ISA_EEE4findIS7_EENS_15__tree_iteratorISA_PNS_11__tree_nodeISA_PvEEiEERKT_
r2j:_Guid_ToString_m3279186591
S5a:__ZL23stbir__calculate_memoryP11stbir__info
ERc:__Z31Internal_IsChildOrSameTransformR9TransformS0_
QAa:__ZL51__ManagedRegistrationHelperFunction_MeshFilterProxyPv
uxg:_InternalEnumerator_1_System_Collections_IEnumerator_get_Current_m3624751851_gshared
Y_b:__ZN13GfxDeviceGLES33AllocateGPUSkinPoseBufferInternalEv
jxj:_Interpreter_Close_m126356671
D3d:__Z65Register_UnityEngine_Networking_UnityWebRequest_GetWebErrorStringv
Cdl:__Z67RuntimeInvoker_Void_t1185182177_OpCode_t123070264_SByte_t1669577662PFvvEPK10MethodInfoPvPS4_
J6o:__ZNKSt3__26vectorIcNS_9allocatorIcEEE8max_sizeEv
Cfb:__ZNK6Camera18GetRenderRectangleEv
mEo:__ZN6il2cpp5utils13dynamic_arrayIPK10Il2CppTypeLj4EE7reserveEj
cNo:__ZN6il2cpp2os6Atomic8ExchangeEPVjj
lfp:__ZN6il2cpp8metadata15GenericMetadata7InflateEPK19Il2CppGenericMethodPK20Il2CppGenericContext
W4a:__ZN13sorted_vectorIN4core12basic_stringIcNS0_20StringStorageDefaultIcEEEENSt3__24lessIS4_EE13stl_allocatorIS4_L18MemLabelIdentifier81ELi16EEE4findIS4_EENS5_11__wrap_iterIPS4_EERKT_
I3a:__ZN16SpriteRenderData14SetBoneWeightsEPK12BoneWeights4i
xcc:__ZNK6Camera18WorldToScreenPointERK8Vector3f21MonoOrStereoscopicEyePb
PJf:__ZN31OpCodes_t126150456_StaticFields16set_Ckfinite_172E17OpCode_t123070264
Fad:__ZL26Transfer_SimpleNativeClassI8JSONRead10RectOffsetLb1EEvRK29SerializationCommandArgumentsR31RuntimeSerializationCommandInfo
mjm:_List_1__ctor_m3376109328_gshared
uNl:_Enumerator_MoveNext_m3045873697_AdjustorThunk
Ebm:_Enumerator_System_Collections_IEnumerator_Reset_m959124362_AdjustorThunk
W2h:_CrossContextDelegate_Invoke_m3121381558
Bjf:__ZL95GUIUtility_t1868551600_CustomAttributesCacheGenerator_GUIUtility_IsExitGUIException_m3644066650P21CustomAttributesCache
iej:_Enum_ToObject_m121831801
X1e:__ZL57AsyncOperation_t1445031843_CustomAttributesCacheGeneratorP21CustomAttributesCache
oEe:_Image_get_hasBorder_m3423344180
Rqd:__ZN10ClipperLib8JoinHorzEPNS_5OutPtES1_S1_S1_NS_8IntPointEb
m$d:__Z48UnityAnalyticsHandler_CUSTOM_SendCustomEventNameP12Il2CppObjectP12Il2CppString
E_c:__ZN9Transform16SetLocalRotationERK11Quaternionf
npo:_RemoteConfigSettings_RemoteConfigSettingsUpdated_m2409101234
iKi:_CipherSuite__ctor_m2440635082
jac:__ZN13RenderManager37RenderCamerasWithScriptableRenderLoopEi
c_k:_TimeSpan__ctor_m3689759052
M$b:__ZN13GfxDeviceGLES22ReleaseThreadOwnershipEv
SNl:__Z34Enumerator_get_Current_m3764936176P21Enumerator_t701438809PK10MethodInfo
XBl:__Z37RuntimeInvoker_Enumerator_t3123848928PFvvEPK10MethodInfoPvPS4_
xNc:__ZNSt3__26__treeINS_12__value_typeIN9ShaderLab16FastPropertyNameEN18UnityPropertySheet11UnityTexEnvEEENS_19__map_value_compareIS3_S6_NS_4lessIS3_EELb1EEENS_9allocatorIS6_EEE14__assign_multiINS_21__tree_const_iteratorIS6_PNS_11__tree_nodeIS6_PvEEiEEEEvT_SL_
xfp:__ZN6il2cpp2os19ReleaseSocketHandleEj
yKl:_Array_InternalArray__get_Item_TisSingle_t1397266774_m1672589487_gshared
q5:__ZN11AudioModule16GetDSPSampleRateEv
ZSp:b120
K1g:_InputField_get_characterValidation_m4196664041
sY:__ZN5audio5mixer23DestroyAudioMixerMemoryEPNS0_16AudioMixerMemoryERKNS0_18AudioMixerConstantEPN4FMOD6SystemER20RuntimeBaseAllocator
HOp:b83
V$k:_Type_get_Attributes_m58528356
PBh:_SpriteBone_t303320096_marshal_pinvoke
hvm:_List_1__ctor_m404557453_gshared
phi:_Array_GetUpperBound_m4018715963
r5m:_X509Store__ctor_m2736551756
dGp:_fputc
yip:__ZN6il2cpp2os5posix15PosixWaitObjectC2ENS2_4TypeE
Gcc:__ZN6Camera21PostMultiCustomRenderENS_10RenderFlagEb
xDl:_Array_InternalArray__Insert_TisMonoResource_t4103430009_m1997865927_gshared
Cpk:_SHA512Managed_HashFinal_m2173184560
Fam:__Z30Enumerator_Dispose_m3633742184P22Enumerator_t3458606584PK10MethodInfo
Rim:_Enumerator_VerifyState_m2147124162_gshared
M5b:__ZN12_GLOBAL__N_112UploadImagesEP7ApiGLESjji14GraphicsFormatPKhjS2_iiii16TextureUsageModePh
zYb:__ZN23ShaderVariantCollection13WarmupShadersEv
RBc:__ZN13ProduceHelperI9TransformLb0EE7ProduceE10MemLabelId18ObjectCreationMode
fep:__ZN14dense_hash_setI10KeyWrapperIP18Il2CppGenericClassEN6il2cpp8metadata22Il2CppGenericClassHashENS3_14EqualsComparerINS5_25Il2CppGenericClassCompareEEENSt3__29allocatorIS3_EEE13set_empty_keyERKS3_
hma:__Z25GetCommonScriptingClassesv
Tob:__Z27scripting_gc_collect_unsafei
Jjg:__Z26Action_2_Invoke_m406858745P20Action_2_t2470008838P12Il2CppObjectS2_PK10MethodInfo
BGi:_MD5SHA1_HashFinal_m4115488658
v5:__ZN11AudioModule20SuspendVideoTexturesEv
VVi:_Enumerator_Reset_m4274366540
Pkk:_Array_InternalArray__ICollection_Add_TisKeyValuePair_2_t71524366_m3468275433_gshared
R4:__Z59Register_UnityEngine_AudioExtensionManager_GetAudioListenerv
xhc:__ZN20ReflectionProbeCacheC2ER13BatchRendererR15RenderLoopStats
fNb:__Z26Transfer_UnityEngineObjectI24GenerateTypeTreeTransferLb0EEvRK29SerializationCommandArgumentsR31RuntimeSerializationCommandInfo
a2i:_Convert_ToDouble_m278900635
TDd:_UNITY_FT_GlyphLoader_CheckPoints
hIj:_MonoType_get_Module_m2397868165
m6g:_InputField_LineDownCharacterPosition_m2798128425
t1c:__ZN8GUIState8EndOnGUIEv
nYa:__ZN15SharedLightData7PrecalcEv
uOa:__ZN10Matrix4x4fmLERKS_
r9n:_Vector2__ctor_m3970636864
ONa:__ZN17TransformInternal12InitLocalTRSE15TransformAccessRKN4math7_float3ERKNS1_7_float4ES4_
tRj:_Environment_InternalGetFolderPath_m468390978
CGa:__ZN9Scripting11UnityEngine16ContextMenuProxy9InitProxyEv
TXb:__Z33CreateUnloadUnusedAssetsOperationbb
p5c:__Z70Register_UnityEngine_GUIStyle_Internal_GetCursorPixelPosition_Injectedv
PXd:__ZN11UnityEngine15PlatformWrapper18GetOperatingSystemEv
EOp:b82
ILf:_TypeBuilder_append_method_m751930812
Elo:_RectTransformUtility_PixelAdjustPoint_Injected_m3389644447
hbd:__ZN8GUIStyle8TransferI8JSONReadEEvRT_
w2d:__ZN29UnityWebRequestAsyncOperation15InvokeCoroutineEv
dke:_TouchInputModule_ProcessTouchPress_m3504077560
aRg:__Z28Enumerator__ctor_m1195706188P22Enumerator_t3398877024P24Dictionary_2_t1444694249PK10MethodInfo
Wnh:_Selectable_IsInteractable_m2611421038
xDd:_FT_MSB
rT:__ZN29AnimationStateNetworkProvider24SetNetworkAnimationStateER9AnimationPK24AnimationStateForNetworki
Gzp:__ZN6il2cpp6icalls8mscorlib4Mono8Security12Cryptography18KeyPairPersistence10_CanSecureEP12Il2CppString
Idk:_Array_InternalArray__ICollection_Contains_TisParameterModifier_t1461694466_m1000453323_gshared
zSb:__Z29Transfer_Blittable_ArrayFieldI18StreamedBinaryRead8Vector2fEvRT_R9ArrayInfoRK23StaticTransferFieldInfo
eqe:_ColorTween_get_targetColor_m1724075482
DSl:_Dictionary_2_System_Collections_ICollection_CopyTo_m4047192178_gshared
LNo:__ZN6il2cpp2os4File11GetFileStatERKNSt3__212basic_stringIcNS2_11char_traitsIcEENS2_9allocatorIcEEEEPNS0_8FileStatEPi
A_d:__ZN14UnityAnalytics22HandleCustomEventLimitERN11UnityEngine9Analytics15UserCustomEventE
$Cc:__ZN9TransformC2E10MemLabelId18ObjectCreationMode
bWd:__ZN11UnityEngine9Analytics20RemoteConfigSettings7SetJSONER8JSONReadb
m_b:__ZN13GfxDeviceGLES14SetRasterStateEPK17DeviceRasterState
Ebo:_Vector4_Equals_m1779210055
IFd:_otv_Coverage_get_count
VSf:_ParameterModifier_t1461694466_marshal_pinvoke_back
pIa:__ZN14SafeBinaryRead11EndTransferEv
g1l:_EqualityComparer_1__cctor_m2741186979_gshared
$Hb:__ZN14SafeBinaryRead8TransferI8MonoPPtrEEvRT_PKc17TransferMetaFlags
_dj:_Enum_System_IConvertible_ToUInt16_m4216751959
p6b:__ZN21UniformBufferTFMethod13MapBoneBufferEj
oDl:_Array_InternalArray__Insert_TisInt32_t2950945753_m4073217122_gshared
QYi:_SortedList_Remove_m2784369438
uab:__ZN13dynamic_arrayIS_I24StreamingTextureMipLevelLj0EELj0EE12emplace_backEv
ZEf:_ModuleBuilder_DefineType_m2262733165
g7a:__ZN4crnd12crn_unpacker10unpack_dxnEPPhjjj
v7i:_DateTime_get_Kind_m2154871796_AdjustorThunk
Mam:__Z27Enumerator_MoveNext_m423288P22Enumerator_t3458606584PK10MethodInfo
Uma:__ZN14SerializedFileD2Ev
x3c:__Z30Event_Get_Custom_PropModifiersP12Il2CppObject
sro:_Physics2D_Raycast_m2858866636
zdm:_Enumerator_System_Collections_IEnumerator_get_Current_m713684915_AdjustorThunk
Qfh:_RawImage_get_mainTexture_m2396337033
dOo:__ZN6il2cpp2vm10Reflection17GetAssemblyObjectEPK14Il2CppAssembly
NSb:__ZNSt3__218__stable_sort_moveIRN10vector_mapI17ScriptingClassPtrPKN5Unity4TypeENS_4lessIS2_EENS_9allocatorINS_4pairIS2_S6_EEEEE13value_compareENS_11__wrap_iterIPSB_EEEEvT0_SJ_T_NS_15iterator_traitsISJ_E15difference_typeEPNSM_10value_typeE
duc:__ZN6Shader21AwakeFromLoadThreadedEv
s9m:_TextEditor_DblClickSnap_m2518183695
MVl:_Dictionary_2_OnDeserialization_m1544659954_gshared
mdj:_Double_ToString_m1051753975_AdjustorThunk
Iwa:__ZN6prcoreL17RemapGenericFloatI17TexFormatRGBFloat17TexFormatRGBAHalfEEvPKNS_9InnerInfoE
tKk:_BigInteger__ctor_m3991350270
QIc:__Z58Register_UnityEngine_PlayerConnectionInternal_PollInternalv
D9n:_Vector2_GetHashCode_m3916089713_AdjustorThunk
tBp:__ZN6il2cpp2os9SemaphoreC2Eii
dt:__ZL61__ManagedRegistrationHelperFunction_AnimationHumanStreamProxyPv
bIb:__ZNSt3__26vectorI8MonoPPtr13stl_allocatorIS1_L18MemLabelIdentifier1ELi16EEE8__appendEj
fdc:__ZN14qsort_internal30FindAndMovePivotToLastPositionIP17RODataReplacementi19ROSorterReplacementEEvT_S4_T0_T1_
A6b:__ZN15UniformTFMethod20IsBoneCountSupportedEi
lJh:_Object_Internal_InstantiateSingle_Injected_m3863904036
T4k:_UnauthorizedAccessException__ctor_m246605039
mKp:dynCall_viidi
T2b:__ZN18GfxFramebufferGLES21InvalidateAttachmentsEPKbbbNS_28InvalidateAttachmentsPurposeE
Hxn:_Comparison_1_BeginInvoke_m3263247262_gshared
lXg:_KeyCollection__ctor_m1356492051_gshared
Uja:__ZN24ScriptingMethodFiltering17FilterOnSignatureENS_18MethodSearchFilterE
vym:_List_1__ctor_m1329567043_gshared
FZd:__ZNSt3__26__treeINS_12__value_typeIN4core12basic_stringIcNS2_20StringStorageDefaultIcEEEEN11UnityEngine9Analytics15UserCustomEvent11CustomValueEEENS_19__map_value_compareIS6_SB_NS_4lessIS6_EELb1EEE13stl_allocatorISB_L18MemLabelIdentifier6ELi16EEE7destroyEPNS_11__tree_nodeISB_PvEE
WCd:_cf2_arrstack_finalize
w4m:_X509Certificate_VerifySignature_m3538124832
hTk:_StringBuilder_Append_m1640838743
W5j:_StreamAsyncResult_SetComplete_m1102187093
q4a:__ZN10Matrix4x4f8TransferI18StreamedBinaryReadEEvRT_
usf:__ZL64HorizontalLayoutGroup_t2586782146_CustomAttributesCacheGeneratorP21CustomAttributesCache
ADc:__ZN13MonoBehaviour19HandleNotificationsEPviR11MessageData
WBp:__ZN6il2cpp2os9EventImpl5ResetEv
RAc:__Z18RegisterUnityClassI9Texture3DEvPKc
oJi:_Alert__ctor_m3135936936
o8:__ZNSt3__27__sort3IR14SortByHashPredI13FileEntryInfoN11UnityEngine15CloudWebService14DataDispatcher6HasherEEPS2_EEjT0_SA_SA_T_
SCj:_Int64_System_IConvertible_ToInt32_m772105781
JZm:_TlsClientSettings__ctor_m3220697265
qed:__ZN27PerformanceReportingManager29OnSceneLoadedAfterAwakeStaticEPS_iR18AwakeFromLoadQueue16SceneLoadingMode
AVo:__ZNK15dense_hashtableINSt3__24pairIK10KeyWrapperINS1_IPK9EventInfoP11Il2CppClassEEEjEES9_17ReflectionMapHashIS8_EN14dense_hash_mapIS9_jSD_NS9_14EqualsComparerINS0_8equal_toIS8_EEEENS0_9allocatorISB_EEE9SelectKeyESI_SK_E23find_position_with_hashERSA_j
mEp:_copysignl
NMp:b58
SRl:_Dictionary_2_make_pair_m2250450206_gshared
pSk:_ForwardingDecoder_GetChars_m4228908854
C4o:__ZN15dense_hashtableINSt3__24pairIK10KeyWrapperIP11Il2CppClassES4_EES5_N6il2cpp8metadata16SZArrayClassHashEN14dense_hash_mapIS5_S4_SA_NS5_14EqualsComparerINS9_19SZArrayClassCompareEEENS0_9allocatorIS7_EEE9SelectKeyESE_SG_E12resize_deltaEjj
Hkn:_InterpreterFactory_get_GroupCount_m2226373271
GMp:b53
DMp:b50
EMp:b51
LMp:b56
MMp:b57
JMp:b54
KMp:b55
wHk:_SimpleCollator_IsSafe_m310268646
Ghk:_Array_InternalArray__IEnumerable_GetEnumerator_TisWorkRequest_t1354518612_m2622205355_gshared
mli:_X509Certificate_get_RawData_m2387471414
jPp:_glDetachShader__wrapper
uri:_ArrayTypeMismatchException__ctor_m3375008173
OZg:_Transform_1_BeginInvoke_m1757796657_gshared
G9l:_KeyValuePair_2__ctor_m1794021352_AdjustorThunk
Vzb:__ZN9GfxDevice25SetShaderPropertiesSharedERK19ShaderPropertySheet
ole:_BaseMeshEffect_get_graphic_m1852367505
Uzi:_CaseInsensitiveHashCodeProvider_GetHashCode_m2168170016
nTb:__ZN10MonoScript17MainThreadCleanupEv
eMb:__Z18Transfer_BlittableI24GenerateTypeTreeTransferLb0EN4math12int2_storageEEvRK29SerializationCommandArgumentsR31RuntimeSerializationCommandInfo
WMg:_DefaultComparer_Compare_m298742568_gshared
CIg:_InternalEnumerator_1_Dispose_m28687982_AdjustorThunk
iH:__ZN15SerializeTraitsI9OffsetPtrIN7mecanim18ValueArrayConstantEEE8TransferI14SafeBinaryReadEEvRS3_RT_
Xfd:__ZN9b2Contact7DestroyEPS_P16b2BlockAllocator
uTd:__Z53Register_UnityEngine_CanvasRenderer_get_materialCountv
hLf:_PropertyBuilder_GetCustomAttributes_m3798356764
dTf:_PropertyInfo_get_MemberType_m2794839864
e_n:_EventTrigger_RemoveRule_m1596811726
CJ:__ZN17AnimationCurveTplI11QuaternionfE8TransferI18StreamedBinaryReadEEvRT_
WNg:_Comparer_1_System_Collections_IComparer_Compare_m4179495191_gshared
bqb:__ZN17PersistentManager12UnloadStreamERKN4core12basic_stringIcNS0_20StringStorageDefaultIcEEEEb
Fxb:__ZN10MemoryFile4ReadEyyPvPy
YDl:_Array_InternalArray__Insert_TisUICharInfo_t75501106_m2924156520_gshared
Fkk:_MonoProperty_GetterAdapterFrame_TisRuntimeObject_TisRuntimeObject_m458718082_gshared
VFl:_Array_Sort_TisInt32_t2950945753_TisInt32_t2950945753_m3955828611_gshared
x0o:_il2cpp_unity_liveness_calculation_from_statics
Vul:__Z70RuntimeInvoker_Boolean_t97287965_CharU26_t1697032762_Int16_t2552820387PFvvEPK10MethodInfoPvPS4_
hB:__ZNK26AnimatorControllerPlayable11DerivesFromE17ScriptingClassPtr
QIg:_InternalEnumerator_1_System_Collections_IEnumerator_get_Current_m2649471526_gshared
Xeb:__ZN8Renderer8TransferI17RemapPPtrTransferEEvRT_
sng:_InternalEnumerator_1_Dispose_m2018798800_AdjustorThunk
o6a:__ZN6prcore16BlitFuncInfoSIMD19BlitFuncExecuteSIMDEPKNS_9InnerInfoEPKv
C1d:__ZN20UnityWebRequestProtoI24UnityWebRequestTransport16AtomicRefCounter14RedirectHelper14ResponseHelper15DownloadHandler13UploadHandler18CertificateHandler12HeaderHelper14AsyncOperationE9DoRequestEv
kQg:_Enumerator_System_Collections_IDictionaryEnumerator_get_Entry_m522483686_gshared
BQk:_PrivateKeyInfo_RemoveLeadingZero_m3921889925
ZXk:_Thread_get_CurrentContext_m1695017876
And:__ZN7b2World20ClearIslandFlagsTaskEv
eid:__ZN16PhysicsManager2D19AddRigidbodyUpdatesEP11Rigidbody2D
Enc:__Z24LookRotationToQuaternionRK8Vector3fS1_P11Quaternionf
Cnc:__ZN16ReflectionProbes9GetCameraEv
pic:__Z23CalculateLightOcclusionRK17LightProbeContextRK29LightProbeSamplingCoordinatesi
$yc:__ZL18IsGpuProgramUsable20ShaderGpuProgramTypePK6Shader
tSd:__ZN2UI6Canvas17SetSortingLayerIDEi
jip:__ZN6il2cpp2vm11MethodStack23CleanupForCurrentThreadEv
XMm:_Collection_1_ConvertItem_m618594517_gshared
N4i:_Convert_ToUInt64_m388601487
XVa:__ZN20TierGraphicsSettings8TransferI24GenerateTypeTreeTransferEEvRT_
WDo:__ZN15dense_hashtableINSt3__24pairIK10KeyWrapperIN6il2cpp5utils13dynamic_arrayIPK10Il2CppTypeLj4EEEEPFvvEEESA_NS3_8metadata19Il2CppSignatureHashEN14dense_hash_mapISA_SD_SG_NSA_14EqualsComparerINSF_22Il2CppSignatureCompareEEENS0_9allocatorISE_EEE9SelectKeyESK_SM_E16reset_thresholdsEv
OFh:_Mesh_get_vertices_m3585684815
CTh:_TouchScreenKeyboard_get_text_m1797464608
Uoc:__ZN26CustomRenderTextureManager25UpdateCustomRenderTextureEP19CustomRenderTexturei
n8c:__ZN9JSONWrite21TransferSTLStyleArrayI31ArrayOfManagedObjectsTransfererEEvRT_17TransferMetaFlags
TRa:__ZN9ShaderLab32FindBestMatchingShaderKeywordSetERK16ShaderKeywordSetRK13dynamic_arrayIS0_Lj0EEPS5_
zrd:__ZN16PhysicsManager2D42RegisterTransformChangeInterestForColliderEP10Collider2D
XAh:_TextureMixerPlayable_Equals_m1074187513_AdjustorThunk
vMc:__ZNK14PlayableOutput23GetSourcePlayableUnsafeEv
yRe:__ZL60SoapTypeAttribute_t1750930817_CustomAttributesCacheGeneratorP21CustomAttributesCache
ZPg:__Z33Enumerator_VerifyState_m194137655P22Enumerator_t3923002270PK10MethodInfo
tFa:__ZN9Scripting11UnityEngine12Experimental9Rendering16CullResultsProxy12CleanupProxyEv
IMj:_Binder_ConvertArgs_m2124461494
xtc:__ZN21UnityDefaultAllocatorI17LowLevelAllocatorE10DeallocateEPv
ROp:b86
jRa:__ZN20IntermediateRenderer15AddAsRenderNodeER15RenderNodeQueueRK20DeprecatedSourceData
fI:__ZN15PackedIntVector8TransferI14SafeBinaryReadEEvRT_
jao:_Vector3__ctor_m3353183577_AdjustorThunk
Krg:_InternalEnumerator_1_System_Collections_IEnumerator_get_Current_m1514266661_gshared
zGi:_MD5SHA1_Initialize_m675470944
Bsm:_List_1_CheckMatch_m3263549496_gshared
CLh:_PropertyNameUtils_PropertyNameFromString_Injected_m1259736140
a4m:_X509Certificate_set_KeyAlgorithmParameters_m2010117999
a3:__ZN13AudioListener8DoUpdateEv
mGa:__ZN9Scripting11UnityEngine26DefaultExecutionOrderProxy9InitProxyEv
gdd:__ZN5Unity9rapidjson13GenericReaderINS0_4UTF8IcEES3_13JSONAllocatorE9ParseTrueILj1ENS0_25GenericInsituStringStreamIS3_EENS0_15GenericDocumentIS3_S4_S4_EEEEvRT0_RT1_
jEh:__Z13bankers_roundd
og:_emscripten_glGenFramebuffers
V2n:_DownloadHandler_InternalGetByteArray_m4277508027
kva:__ZN17BaseObjectManager16StaticInitializeEPv
cKj:_OperatingSystem_GetObjectData_m1571196722
n5k:_UnitySerializationHolder__ctor_m3869442095
YEe:_Image_OnEnable_m2577136113
DXa:__ZN14RenderSettings8TransferI18StreamedBinaryReadEEvRT_
_7c:__Z18Transfer_BlittableI9JSONWriteLb0EyEvRK29SerializationCommandArgumentsR31RuntimeSerializationCommandInfo
Jpj:_X509BasicConstraintsExtension__ctor_m3721156175
p5a:__ZN12CubemapArray23VirtualRedirectTransferER14SafeBinaryRead
tx:__ZN21AnimationClipPlayable16ProcessHumanPassEPK35AnimationPlayableEvaluationConstantPK32AnimationPlayableEvaluationInputP33AnimationPlayableEvaluationOutput
zSj:_Path_GetFileName_m1354558116
gSp:_emscripten_glUniform3i__wrapper
GJk:_SimpleCollator_IsPrefix_m3581642267
XNh:_Rect_Contains_m1232228501_AdjustorThunk
wFj:_MissingMemberException_GetObjectData_m2957220379
$Cj:_Int64_System_IConvertible_ToType_m3223988955_AdjustorThunk
wKa:__ZN24GenerateTypeTreeTransfer18BeginArrayTransferEPKcS1_Ri17TransferMetaFlags
KKl:_Array_InternalArray__get_Item_TisPlayableBinding_t354260709_m3837494573_gshared
Azk:_String_CreateString_m4016935005
hnn:_MatchCollection_get_FullList_m1829231879
De:___syscall54
gqi:_Array_GetValue_m2528415604
Yga:__Z25RegisterEventCallbackImplPK23UnityProfilerMarkerDescPFvS1_ttPK23UnityProfilerMarkerDataPvES5_
n2j:_Guid_AppendShort_m791023083
CWj:__ZN27NumberFormatInfo_t43587713828set_numberNegativePattern_20Ei
atm:_List_1__ctor_m4212503576_gshared
rOj:_AssemblyBuilder_basic_init_m1526438565
nzi:_BitArrayEnumerator_MoveNext_m3806676766
UDd:_cff_builder_add_point1
IZd:__ZN30UnityAnalyticsScriptingClasses23CallSessionStateChangedEixxbP21ScriptingExceptionPtr
LGb:__Z18Transfer_BlittableI14SafeBinaryReadLb0E10ColorRGBAfEvRK29SerializationCommandArgumentsR31RuntimeSerializationCommandInfo
hb:invoke_iiiiiiiiii
G4:__ZN11AudioSource25GetNumExtensionPropertiesEv
rEa:__ZN9Scripting11UnityEngine9MeshProxy12CleanupProxyEv
QCl:_Array_InternalArray__ICollection_CopyTo_TisUILineInfo_t4195266810_m104406798_gshared
GCc:__ZZL31RegisterRectTransformPropertiesR22GenericPropertyBindingEN32Wrapper_RectTransformAnchorMaxx013GetFloatValueEPv
Zwh:_Debug_LogErrorFormat_m3558239521
aze:_Graphic_get_canvas_m3320066409
q5g:_InputField_ActivateInputFieldInternal_m3360893886
x7l:_RijndaelManagedTransform__ctor_m1033522223
Esc:__ZN10FileSystem19SetCurrentDirectoryERKN4core12basic_stringIcNS0_20StringStorageDefaultIcEEEE
oFa:__ZN9Scripting11UnityEngine12Experimental9Rendering26RenderPipelineManagerProxy9InitProxyEv
Bma:__ZN16ScriptingManager24NotifyScriptCacheReleaseEi
_Bc:__ZN23TransformChangeDispatch24RemovePermanentInterestsE15TransformAccessPKN5Unity4TypeE
_Xc:__Z47Register_UnityEngine_Coroutine_ReleaseCoroutinev
tX:__ZN15AudioReverbZone13SetFMODValuesEv
bla:__ZN14SafeBinaryRead4InitERK16TypeTreeIteratorxx24TransferInstructionFlags10MemLabelId
Dfa:__ZL19StaticDestroyShaderPv
_k:_glRenderbufferStorageMultisample
nMc:__ZN8Playable4PlayEv
JWd:__ZN11UnityEngine9Analytics17XRDeviceInfoEventD2Ev
v4g:_InputField_set_asteriskChar_m1794444908
pEh:_Mathf_Clamp_m2756574208
tC:__ZN23AnimationPlayableOutput17SetTargetAnimatorEP8Animator
xRg:__Z73Enumerator_System_Collections_IDictionaryEnumerator_get_Entry_m3249874482P22Enumerator_t3398877024PK10MethodInfo
ZJb:__Z35Transfer_Blittable_SingleValueFieldI14SafeBinaryReadfEvRT_R17GeneralMonoObjectRK23StaticTransferFieldInfo
$rh:_Debug_LogException_m2207318968
kpd:__ZNK6b2Body13ShouldCollideEPKS_
rgf:__ZL76AnimatorTransitionInfo_t2534804151_CustomAttributesCacheGenerator_m_FullPathP21CustomAttributesCache
Jkk:_Array_InternalArray__ICollection_Add_TisClientCertificateType_t1004704908_m2622721177_gshared
Hpd:__ZNK21b2FindNewContactsTask13GetRangeCountEv
yap:__ZNK15dense_hashtableINSt3__24pairIK10KeyWrapperIP14Il2CppIUnknownEjEES5_N6il2cpp5utils11PointerHashIS3_EEN14dense_hash_mapIS5_jSB_NS5_14EqualsComparerINS0_8equal_toIS4_EEEENS0_9allocatorIS7_EEE9SelectKeyESG_SI_E10test_emptyEj
i8a:__ZN7Cubemap23VirtualRedirectTransferER17RemapPPtrTransfer
g4d:__ZL54__ManagedRegistrationHelperFunction_Video3DLayoutProxyPv
eWc:__Z37Register_UnityEngine_Screen_get_widthv
poo:_UnityAnalyticsHandler_SendCustomEvent_m1223269116
xwn:_Uri_get_Authority_m3816772302
wJc:__ZN22BlockMemoryCacheWriter11GetPathNameEv
Nqp:__ZNSt3__26vectorIPN6il2cpp2os6HandleENS_9allocatorIS4_EEE18__construct_at_endEj
jDi:_BigInteger_op_Division_m3713793389
rTh:_Touch_get_position_m3109777936
OE:__ZN9BlobWrite8TransferIN4math4trsXEEEvRT_PKc17TransferMetaFlags
TRf:_ParameterInfo__ctor_m3269320476
rmk:_Array_InternalArray__ICollection_CopyTo_TisMonoResource_t4103430009_m2583490988_gshared
VUa:__ZN10VertexData4SwapERS_
BGa:__ZN9Scripting11UnityEngine14CoroutineProxy12CleanupProxyEv
QDh:_Shader_PropertyToID_m1030499873
Z3k:_UInt64_System_IConvertible_ToInt32_m949522652_AdjustorThunk
K1m:_PKCS12_MAC_m3355614022
up:stackAlloc
Rxb:__ZN25SingleBlockMemoryFileData4LockEPPv
_Qp:_glProgramParameteri__wrapper
BNa:__ZN9Transform35SetLocalPositionWithoutNotificationERKN4math7_float3Ey
jZc:__Z32RectOffset_Get_Custom_PropBottomP12Il2CppObject
Xwh:_Debug_LogError_m2850623458
JQb:__Z18Transfer_BlittableI18StreamedBinaryReadLb1EsEvRK29SerializationCommandArgumentsR31RuntimeSerializationCommandInfo
KU:__Z18RegisterUnityClassI18AnimatorControllerEvPKc
suc:__ZNSt3__26__treeINS_12__value_typeIN4core12basic_stringIcNS2_20StringStorageDefaultIcEEEE4PPtrI7TextureEEENS_19__map_value_compareIS6_SA_NS_4lessIS6_EELb1EEENS_9allocatorISA_EEE7destroyEPNS_11__tree_nodeISA_PvEE
Vil:__Z69RuntimeInvoker_UInt64_t4134040092_Int32_t2950945753_SByte_t1669577662PFvvEPK10MethodInfoPvPS4_
aFp:_stat
URa:__ZN9ShaderLab10SubProgram7CompileEv
MQp:_glUniform2fv__wrapper
XKf:_PropertyBuilder_get_CanRead_m3783190070
Lhh:_Raycast2DCallback_Invoke_m1500574149
gMi:_CipherSuiteCollection_System_Collections_IList_get_Item_m2175128671
$hd:__ZN15b2DistanceJoint23InitVelocityConstraintsERK12b2SolverData
$Yb:__ZNSt3__218__insertion_sort_3IRNS_4lessIN22BuiltinResourceManager8ResourceEEEPS3_EEvT0_S7_T_
fVc:__Z50Register_UnityEngine_Camera_get_pixelRect_Injectedv
jb:invoke_iiiiiiiiiiii
d7i:_DateTime_System_IConvertible_ToType_m1242864300_AdjustorThunk
SXd:__ZN11UnityEngine15PlatformWrapper18IsWSARemoteEnabledEv
r5f:_MessageFormatter_ReadMethodResponse_m1259800219
FGg:_InternalEnumerator_1_get_Current_m2446410893_AdjustorThunk
DTa:__Z29CalculateDefaultChannelsToAdd17ShaderChannelMaskS_
_qi:_Array_Sort_m870838517
j7b:__ZNSt3__26__treeI20DeviceBlendStateGLES14MemoryCompLessI16DeviceBlendStateENS_9allocatorIS1_EEE7destroyEPNS_11__tree_nodeIS1_PvEE
nlo:_CanvasRenderer_SetMaterial_m633746949
G$:__ZN10AudioMixer12RebindOutputEv
A3o:__ZNK15dense_hashtableINSt3__24pairIK10KeyWrapperIP11Il2CppClassES4_EES5_N6il2cpp8metadata16SZArrayClassHashEN14dense_hash_mapIS5_S4_SA_NS5_14EqualsComparerINS9_19SZArrayClassCompareEEENS0_9allocatorIS7_EEE9SelectKeyESE_SG_E5beginEv
obh:_LayoutRebuilder_PerformLayoutControl_m4241054021
hvo:__ZN6il2cpp2vm17SetupFieldsLockedEP11Il2CppClassRKNS_2os12FastAutoLockE
$$:__ZN11AudioSourceD0Ev
l4b:__ZN18GlslGpuProgramGLES13SwitchProgramEj
tCo:__ZN6il2cpp5utils11collections13ArrayValueMapIPK10Il2CppType17Il2CppInteropData26InteropDataToTypeConverterNS_8metadata14Il2CppTypeLessENS8_26Il2CppTypeEqualityComparerEE15assign_externalEPS6_jS7_S9_SA_
R7b:__ZN20ArchiveStorageReaderC2E10MemLabelId
C8k:__Z132RuntimeInvoker_Int32_t2950945753_RuntimeObject_Int32_t2950945753_Int32_t2950945753_RuntimeObject_Int32_t2950945753_Int32_t2950945753PFvvEPK10MethodInfoPvPS4_
mNl:__Z65Enumerator_System_Collections_IEnumerator_get_Current_m1987977288P21Enumerator_t572278398PK10MethodInfo
Ayb:__ZN16MemoryFileSystem4NameEv
D5c:__Z37GUIClip_CUSTOM_Internal_Push_InjectedRK5RectTIfERK8Vector2fS5_h
bhe:_ButtonState__ctor_m1506593332
Yql:__Z44RuntimeInvoker_RuntimeObject_Ray_t3785851493PFvvEPK10MethodInfoPvPS4_
Z2c:__ZNK8GUIStyle8CalcSizeER10GUIContent
Mdm:_Enumerator_get_Current_m2468920150_AdjustorThunk
d$m:_TlsException__ctor_m818940807
Ali:_X509CertificateEnumerator_System_Collections_IEnumerator_get_Current_m418791713
lZd:__ZN14UnityAnalyticsD2Ev
t5f:_BinaryFormatter_Serialize_m2476455399
Caf:__ZL73ArgumentCache_t2187958399_CustomAttributesCacheGenerator_m_ObjectArgumentP21CustomAttributesCache
OHl:_Array_swap_TisRaycastResult_t3360306849_TisRaycastResult_t3360306849_m3400922624_gshared
S6n:_AudioListener_ReadExtensionName_m929423100
geg:_CspParameters__ctor_m2741097571
cKa:__ZN14SafeBinaryRead21TransferSTLStyleArrayI13dynamic_arrayI4PPtrI6SpriteELj0EEEEvRT_17TransferMetaFlags
UCd:_cf2_hintmap_build
Psb:__Z11StringToIntRKN4core16basic_string_refIcEE
QLd:_Line_Up
van:_TextEditor_InitKeyActions_m2739856363
tf:_emscripten_glBufferSubData
Zyk:_String_ReplaceUnchecked_m1381393810
w4o:__ZN14dense_hash_mapI10KeyWrapperIP11Il2CppClassES2_N6il2cpp8metadata16SZArrayClassHashENS3_14EqualsComparerINS5_19SZArrayClassCompareEEENSt3__29allocatorINSA_4pairIKS3_S2_EEEEE3endEv
Wwg:__Z38InternalEnumerator_1__ctor_m1594304290P32InternalEnumerator_1_t1765566171P11Il2CppArrayPK10MethodInfo
oya:__ZN6prcoreL12RemapGenericI15TexFormatRGB88817TexFormatARGB8888EEvPKNS_9InnerInfoE
jq:__Z17CalculateGlobalRS23TransformAccessReadOnly
lNd:__Z56Register_UnityEngine_TextGenerator_GetCharactersInternalv
Vxp:__ZNSt3__210__list_impIPN6il2cpp5utils10MemoryPool6RegionENS_9allocatorIS5_EEE5clearEv
yrh:_AnimationCurve_Internal_Create_m3956683041
rVb:__ZNK25PathNamePersistentManager24PathIDToPathNameInternalEi
uub:__ZNK12HandlerChain7ToLocalERK13FileEntryDataRN4core12basic_stringIcNS3_20StringStorageDefaultIcEEEERyS9_
Q6f:__ZNK31OpCodes_t126150456_StaticFields15get_Ldc_I4_S_31Ev
Xqb:__ZN22MemoryCacherReadBlocks14LockCacheBlockEjPPhS1_
d_o:__ZN6il2cpp2vm14TypeNameParser17ParseAssemblyNameEv
yfb:__ZNK9GfxDevice26GetSinglePassStereoEyeMaskEv
$zo:__ZN15dense_hashtableINSt3__24pairIK10KeyWrapperIP9FieldInfoEiEES5_N6il2cpp5utils11PointerHashIS3_EEN14dense_hash_mapIS5_iSB_NS5_14EqualsComparerINS0_8equal_toIS4_EEEENS0_9allocatorIS7_EEE9SelectKeyESG_SI_E13set_empty_keyERKS7_
yto:___cxx_global_var_init_41724
Svi:_CharEnumerator_get_Current_m525608209
oHg:__Z75InternalEnumerator_1_System_Collections_IEnumerator_get_Current_m1635397542P32InternalEnumerator_1_t1963066083PK10MethodInfo
lGo:__ZN6il2cpp2vm13MetadataCache24GetGenericInstanceMethodEPK10MethodInfoPK20Il2CppGenericContext
S2n:_DownloadHandler_GetText_m600283602
Ezg:_InternalEnumerator_1_Dispose_m887344916_AdjustorThunk
G8d:__Z21ArrayElementTypeCheckP11Il2CppArrayPv
BTp:_emscripten_glTexSubImage2D__wrapper
I7d:__Z23il2cpp_codegen_subtractIiiEN11pick_biggerIT_T0_E4typeES1_S2_
hLe:__ZL69DebuggerBrowsableAttribute_t1026244177_CustomAttributesCacheGeneratorP21CustomAttributesCache
xpj:_PublicKey_DecodeRSA_m1824703659
TGp:__ZNSt3__212basic_stringIcNS_11char_traitsIcEENS_9allocatorIcEEE6appendEjc
DUd:__Z42Register_UnityEngine_Canvas_get_rootCanvasv
IAc:__Z18RegisterUnityClassI10GUIElementEvPKc
_Hb:__Z14resize_trimmedINSt3__26vectorI8MonoPPtr13stl_allocatorIS2_L18MemLabelIdentifier1ELi16EEEEEvRT_j
Jd:_TTF_RenderText_Solid
BCa:__ZN9Scripting11UnityEngine14Texture2DProxy12CleanupProxyEv
wlm:_List_1__ctor_m3947764094_gshared
r8m:_GUIStyle_Internal_Draw2_m2453931771
qvd:__Z56Register_UnityEngine_Physics2D_Raycast_Internal_Injectedv
_pn:_Parser_IsIgnorePatternWhitespace_m2107132682
x_d:__ZN14UnityAnalytics15Internal_CreateE18ScriptingObjectPtr
Nij:_HttpRequestCreator_Create_m400548686
Sag:_SerializationInfo_AddValue_m412754688
IUm:_ReadOnlyCollection_1_System_Collections_IList_Insert_m134149130_gshared
E7c:__Z18Transfer_BlittableI9JSONWriteLb0E5RectTIiEEvRK29SerializationCommandArgumentsR31RuntimeSerializationCommandInfo
yKk:_BigInteger_get_Rng_m4216817480
Bek:_Array_InternalArray__ICollection_Remove_TisDateTime_t3738529785_m2250893026_gshared
FHf:__ZN31OpCodes_t126150456_StaticFields15set_Blt_Un_S_54E17OpCode_t123070264
YZb:__Z15IsIEEE754Format14GraphicsFormat
xna:__ZL12CreateStringPjR13dynamic_arrayIcLj0EEPKc
ehf:__ZL92Event_t2956885303_CustomAttributesCacheGenerator_Event_t2956885303____character_PropertyInfoP21CustomAttributesCache
RAi:_KeyNotFoundException__ctor_m541499307
ghc:__ZN19ShaderPropertySheet24SetTextureFromTextureRefERK23FastTexturePropertyNamePK10TextureRef
sgk:_SetPropertyUtility_SetStruct_TisSpriteState_t1362986479_m665096788_gshared
Y8k:__Z61RuntimeInvoker_Single_t1397266774_RuntimeObject_RuntimeObjectPFvvEPK10MethodInfoPvPS4_
RJf:__ZN31OpCodes_t126150456_StaticFields15set_Ldtoken_174E17OpCode_t123070264
sMd:__ZNK20TextRenderingPrivate22ScriptingTextGenerator19GetVerticesInternalE18ScriptingObjectPtrP21ScriptingExceptionPtr
Hll:__Z71RuntimeInvoker_Void_t1185182177_Vector3_t3722313464_Vector3_t3722313464PFvvEPK10MethodInfoPvPS4_
Tyg:_InternalEnumerator_1_get_Current_m2316281569_AdjustorThunk
A0i:_DateTime__ctor_m1095105629
q$b:__ZN13GfxDeviceGLES15UploadTexture2DE9TextureID16TextureDimensionPKhiii14GraphicsFormati18TextureUploadFlags16TextureUsageMode
D5l:_RIPEMD160Managed_II_m1560285116
GBm:_Enumerator_get_Current_m42805805_AdjustorThunk
x_:__ZN4FMOD6System9createDSPEP20FMOD_DSP_DESCRIPTIONPPNS_3DSPE
RVe:__ZL87Thread_t2300836069_CustomAttributesCacheGenerator_Thread_GetCompressedStack_m2923422412P21CustomAttributesCache
vVi:_SslClientStream_get_ClientCertificates_m998716871
gd:_JS_SystemInfo_HasCursorLock
FY:__ZN4FMOD8ChannelI11EndCallbackEv
N2c:__ZN8GUIStyle14SetDefaultFontEPN13TextRendering4FontE
Q9a:__ZN15QualitySettings23VirtualRedirectTransferER24GenerateTypeTreeTransfer
r3f:_ObjectReader_ReadValue_m3145979203
XMl:__Z57Enumerator_System_Collections_IEnumerator_Reset_m53411943P22Enumerator_t2013587906PK10MethodInfo
_me:_CanvasScaler_OnDisable_m3424669401
r4h:_Lease_set_RenewOnCallTime_m1737118470
iXc:__Z59Register_UnityEngine_MonoBehaviour_Internal_CancelInvokeAllv
Jqf:__ZL68Scrollbar_t1494447233_CustomAttributesCacheGenerator_m_NumberOfStepsP21CustomAttributesCache
Cih:_ScrollRect_set_content_m321343743
iR:__ZN14SafeBinaryRead21TransferSTLStyleArrayI22OffsetPtrArrayTransferI9OffsetPtrIN7mecanim12statemachine17ConditionConstantEEEEEvRT_17TransferMetaFlags
x3j:_BinaryWriter_Dispose_m1020700223
HAo:__ZN30dense_hashtable_const_iteratorINSt3__24pairIK10KeyWrapperIPK19Il2CppGenericMethodEPK26Il2CppGenericMethodIndicesEES6_N6il2cpp8metadata23Il2CppGenericMethodHashEN14dense_hash_mapIS6_SA_SE_NS6_14EqualsComparerINSD_26Il2CppGenericMethodCompareEEENS0_9allocatorISB_EEE9SelectKeyESI_SK_EppEv
dKp:dynCall_viffffii
Azd:_UNITY_FT_Request_Metrics
N9o:__ZN6il2cpp6icalls8mscorlib6System10Reflection10MonoMethod29get_IsGenericMethodDefinitionEP22Il2CppReflectionMethod
a2o:__ZN6il2cpp2vm6Thread21AllocThreadStaticDataEi
nbi:_MonoMethodMessage_get_CallType_m3702481004
Xnd:__ZNK39b2PrepareDiscreteIslandContactIndexTask13GetRangeCountEv
KMj:_Default_SelectMethod_m469311730
L6g:__ZNK22InputField_t376291743121get_m_CaretVisible_54Ev
OCh:_Input_get_mousePosition_m1616496925
Wm:FUNCTION_TABLE_difi
eop:__ZN30dense_hashtable_const_iteratorINSt3__24pairIK10KeyWrapperIPK19Il2CppGenericMethodEP10MethodInfoEES6_N6il2cpp8metadata23Il2CppGenericMethodHashEN14dense_hash_mapIS6_S9_SD_NS6_14EqualsComparerINSC_26Il2CppGenericMethodCompareEEENS0_9allocatorISA_EEE9SelectKeyESH_SJ_EppEv
I3k:_UInt32_ToString_m2066897296_AdjustorThunk
w3n:_UnityWebRequest_InternalSetCustomMethod_m3670745235
B6f:__ZN18VirtActionInvoker3I17OpCode_t123070264P12MethodInfo_tP22TypeU5BU5D_t3940880105E6InvokeEjP12Il2CppObjectS0_S2_S4_
KVd:__ZN11UnityEngine9Analytics15DeviceInfoEventD0Ev
rIf:__ZN31OpCodes_t126150456_StaticFields10set_And_94E17OpCode_t123070264
b7c:__Z18Transfer_BlittableI9JSONWriteLb0E8Vector3fEvRK29SerializationCommandArgumentsR31RuntimeSerializationCommandInfo
Uh:_emscripten_glUniform4i
KFd:_otv_FeatureList_validate
Sh:_emscripten_glUniform4f
vUb:__Z33BuildSerializationCommandQueueForRK34BuildSerializationCommandQueueArgsR32SerializationCommandQueueBuilderRP20AllowNameConversionsbPK18TransferField_Info
uZm:_TlsCipherSuite_ComputeServerRecordMAC_m3941098609
obn:_TextEditor_get_hasSelection_m3446945309
SEd:_otv_validate
_qc:__ZN13sorted_vectorINSt3__24pairIN4core12basic_stringIcNS2_20StringStorageDefaultIcEEEES6_EEN10vector_mapIS6_S6_27compare_tstring_insensitiveIS6_E13stl_allocatorIS7_L18MemLabelIdentifier38ELi16EEE13value_compareESD_E9erase_oneIS6_EEjRKT_
rxm:_List_1__ctor_m3376067838_gshared
I0:__ZN20SoundChannelInstance19setReverbPropertiesEP29FMOD_REVERB_CHANNELPROPERTIES
agm:_Enumerator_MoveNext_m1446151600_gshared
prk:_X509Certificate_Equals_m861530042
Knl:__Z135RuntimeInvoker_Void_t1185182177_RuntimeObject_Int32_t2950945753_Int32_t2950945753_Int32_t2950945753_Int32_t2950945753_Int32_t2950945753PFvvEPK10MethodInfoPvPS4_
qnk:_SHA1Internal_ProcessFinalBlock_m1403775421
UAm:_Queue_1_System_Collections_ICollection_CopyTo_m3452613063_gshared
VFn:_UnityAction_1_BeginInvoke_m677813163_gshared
Sxn:__Z31Comparison_1_Invoke_m3899730459P24Comparison_1_t136090901022OrderBlock_t1585977831S1_PK10MethodInfo
k$c:__Z40Register_UnityEngine_Transform_IsChildOfv
VWh:_RemotingServices_GetOrCreateClientIdentity_m648299611
QUg:_Enumerator_System_Collections_IDictionaryEnumerator_get_Key_m2998519522_gshared
SNh:_Rect_set_yMax_m2031532394
zLg:_InternalEnumerator_1_get_Current_m2356858238_AdjustorThunk
ahf:__ZL90Event_t2956885303_CustomAttributesCacheGenerator_Event_t2956885303____rawType_PropertyInfoP21CustomAttributesCache
IWc:__Z45Register_UnityEngine_Display_GetSystemExtImplv
pRk:_RSAManaged_ImportParameters_m1844641996
yQg:_Enumerator_System_Collections_IDictionaryEnumerator_get_Value_m3325938730_AdjustorThunk
wy:__ZN7mecanim9animation23TransformValuesFromClipEiiiRKNS_10ValueArrayERKNS0_10ClipOutputERKNS0_12ClipBindingsERS1_RNS_14ValueArrayMaskEb
zVa:__ZN14SafeBinaryRead21TransferSTLStyleArrayI13dynamic_arrayI21PlatformShaderDefinesLj0EEEEvRT_17TransferMetaFlags
vvd:__GLOBAL__sub_I_Runtime_Dynamics_0_cpp
NOl:_ValueCollection_System_Collections_ICollection_get_SyncRoot_m1114275063_gshared
jqo:__ZL17log2withScale_128yyi
Z1j:_Guid_Equals_m1866984197
tZd:__ZN14UnityAnalytics19ConfigChangedStaticEPS_RKN4core12basic_stringIcNS1_20StringStorageDefaultIcEEEER8JSONReadb
aSg:_Enumerator__ctor_m65667165_gshared
OKo:__ZN6il2cpp6icalls8mscorlib6SystemL8IsStaticEPK9FieldInfo
Odd:__GLOBAL__sub_I_ParticleSystemScriptingClasses_cpp
rKj:_PlatformNotSupportedException__ctor_m1787918017
_sa:__ZN13RuntimeStaticI15DirectorManagerLb0EE16StaticInitializeEPv
F6c:__ZN8JSONRead17TransferBasicDataIjEEvRT_
DRm:_ReadOnlyCollection_1_System_Collections_ICollection_CopyTo_m2643246984_gshared
fkb:__ZN11TimeManager6UpdateEv
Nog:_InternalEnumerator_1__ctor_m619554185_AdjustorThunk
Nme:_CanvasScaler_get_fallbackScreenDPI_m2811935689
es:__ZNK16ParentConstraint18GetTranslationAxisEv
IVj:_DateTimeFormatInfo_ReadOnly_m890935083
h9g:_LayoutElement_set_preferredHeight_m1999633022
kFp:_fflush
kpb:__ZN17LightProbeContext4InitERK16LightmapSettingsRK14RenderSettings
U$c:__ZL57__ManagedRegistrationHelperFunction_PlayableDirectorProxyPv
Hkb:__ZN9InputAxis8TransferI19StreamedBinaryWriteEEvRT_
Bia:__ZN23TransformChangeDispatchC2Ev
Jcj:_Double_System_IConvertible_ToInt16_m3591921965
Wab:__ZN9Texture3DD2Ev
$do:__ZL24UnresolvedVirtualCall_82P12Il2CppObjectPK10MethodInfo
wKm:_Collection_1_set_Item_m4280581817_gshared
gto:_NativeClassAttribute__ctor_m3911617424
JB:__ZThn156_NK26AnimatorControllerPlayable25GetStateMachineBehavioursEv
v$i:_Convert_ToChar_m2796006345
XDl:_Array_InternalArray__Insert_TisContentType_t1787303396_m3566390691_gshared
eip:__ZNSt3__26vectorI20Il2CppStackFrameInfoNS_9allocatorIS1_EEE7reserveEj
eR:__ZN14SafeBinaryRead21TransferSTLStyleArrayI22OffsetPtrArrayTransferI9OffsetPtrIN7mecanim12statemachine21SelectorStateConstantEEEEEvRT_17TransferMetaFlags
huc:__ZN6Shader23VirtualRedirectTransferER19StreamedBinaryWrite
JTg:__Z73Enumerator_System_Collections_IDictionaryEnumerator_get_Entry_m3417028588P22Enumerator_t2086727927PK10MethodInfo
Jlc:__Z34ProcessIndexListIsNodeVisibleStep2RK22SceneCullingParametersPK9SceneNodePK4AABBR9IndexList
lTb:__ZN10MonoScriptD2Ev
Q6b:__ZN19ConstantBuffersGLES8UpdateCBE5CbKeyPKvj
MGf:__ZN31OpCodes_t126150456_StaticFields13set_Ldloc_1_7E17OpCode_t123070264
_Hc:__Z39Input_CUSTOM_INTERNAL_get_mousePositionP8Vector3f
E4f:_SerializationCallbacks_GetMethodsByAttribute_m2095490433
wHd:_tt_cmap13_char_next
Qlf:__ZL117EventSystem_t1003666588_CustomAttributesCacheGenerator_EventSystem_t1003666588____lastSelectedGameObject_PropertyInfoP21CustomAttributesCache
B9b:__ZN9ShaderLab4Pass16SetupPassOptionsEv
Bhm:__Z28Enumerator__ctor_m3751722449P22Enumerator_t2788664787P17List_1_t899420910PK10MethodInfo
Nc:_JS_Sound_ReleaseInstance
Lp:__ZN9Scripting11UnityEngine2AI25NavMeshTriangulationProxy12CleanupProxyEv
y0c:__ZN9Scripting11UnityEngine20ScrollViewStateProxy12CleanupProxyEv
N_h:_ConfigHandler_ReadLifetine_m208994800
Jgl:__Z96RuntimeInvoker_IntPtr_t_SByte_t1669577662_SByte_t1669577662_RuntimeObject_BooleanU26_t4125257963PFvvEPK10MethodInfoPvPS4_
PRo:__ZNK15dense_hashtableINSt3__24pairIK10KeyWrapperINS1_IPK10MethodInfoP11Il2CppClassEEEjEES9_17ReflectionMapHashIS8_EN14dense_hash_mapIS9_jSD_NS9_14EqualsComparerINS0_8equal_toIS8_EEEENS0_9allocatorISB_EEE9SelectKeyESI_SK_E12test_deletedEj
NFb:__ZNSt3__26__treeINS_12__value_typeIiP15MonoScriptCacheEENS_19__map_value_compareIiS4_NS_4lessIiEELb1EEE13stl_allocatorIS4_L18MemLabelIdentifier79ELi16EEE7destroyEPNS_11__tree_nodeIS4_PvEE
DHb:__Z35Transfer_Blittable_FixedBufferFieldI14SafeBinaryReaddEvRK29SerializationCommandArgumentsR31RuntimeSerializationCommandInfo
d5o:__ZN6il2cpp6icalls8mscorlib6System7Runtime15InteropServices7Marshal19copy_from_unmanagedEiiP11Il2CppArrayi
P1k:_UInt16_System_IConvertible_ToByte_m3185614807_AdjustorThunk
XUi:_SecurityParameters_set_ServerWriteMAC_m3003817350
xNh:_Rect_get_max_m350137314_AdjustorThunk
Um:FUNCTION_TABLE_diddi
T7o:__ZN6il2cpp6icalls8mscorlib6System5Array8FastCopyEP11Il2CppArrayiS5_ii
kro:_ContactFilter2D_SetDepth_m3691256496
eAa:__ZL52__ManagedRegistrationHelperFunction_EarlyUpdateProxyPv
wLo:__ZNSt3__26vectorIPK10MethodInfoNS_9allocatorIS3_EEE21__push_back_slow_pathIRKS3_EEvOT_
fQd:__ZNK2UI14CanvasRenderer22GetTypeVirtualInternalEv
xZc:__Z42Register_UnityEngine_RectOffset_get_bottomv
ezo:__ZN30dense_hashtable_const_iteratorINSt3__24pairIK10KeyWrapperIPKcEP11Il2CppClassEES5_N6il2cpp5utils11StringUtils12StringHasherIS4_EEN14dense_hash_mapIS5_S8_SE_NS5_14EqualsComparerINSB_13VmStringUtils21CaseSensitiveComparerEEENS0_9allocatorIS9_EEE9SelectKeyESJ_SL_EC2EPK15dense_hashtableIS9_S5_SE_SN_SJ_SL_EPKS9_SU_b
iUc:__Z43RectTransform_CUSTOM_get_sizeDelta_InjectedP12Il2CppObjectR8Vector2f
Zec:__Z20DoDeferredRenderLoopRK17RenderLoopContextR13dynamic_arrayI16RenderObjectDataLj0EES5_RK11CullResultsRP13RenderTextureSB_Pb
RAa:__ZL49__ManagedRegistrationHelperFunction_RendererProxyPv
FOp:_emscripten_glUniform1f__wrapper
yIp:dynCall_di
vm:_pthread_rwlock_rdlock
syh:_BaseInvokableCall_AllowInvoke_m878393606
L6c:__Z28RegisterModule_JSONSerializev
IWa:__ZN15ReflectionProbe12AddToManagerEv
_rb:__ZN2UI13RectTransform8TransferI14SafeBinaryReadEEvRT_
W7c:__Z35Transfer_Blittable_FixedBufferFieldI9JSONWriteaEvRK29SerializationCommandArgumentsR31RuntimeSerializationCommandInfo
uth:_Behaviour_get_enabled_m753527255
aPc:__Z20IsHumanControllingUsv
nea:__ZNK20DynamicHeapAllocatorI17LowLevelAllocatorE10GetPtrSizeEPKv
rH:__ZN7mecanim5human9HumanGoal8TransferI14SafeBinaryReadEEvRT_
HAc:__Z18RegisterUnityClassI16GraphicsSettingsEvPKc
KLe:__ZL51TextInfo_t3810425522_CustomAttributesCacheGeneratorP21CustomAttributesCache
TMc:__ZN10systeminfo21GetPersistentDataPathEv
oDb:__ZN18AsyncUploadManager27AsyncResourceUploadBlockingER9GfxDeviceiiR10AsyncFence
M_b:__ZN13GfxDeviceGLES17DestroyGpuProgramEPK10GpuProgram
ZEl:_Array_InternalArray__set_Item_TisRaycastResult_t3360306849_m730888808_gshared
rhc:__ZNSt3__218__insertion_sort_3IR23CompareReflectionProbesP31RuntimeReflectionProbeBlendInfoEEvT0_S5_T_
ILb:__ZN12NativeBufferI27Converter_SimpleNativeClassI8GradientEE15SetupForWritingER9ArrayInfo
Uva:__ZNSt3__213__stable_sortIRNS_4lessIN4core12basic_stringIcNS2_20StringStorageDefaultIcEEEEEENS_11__wrap_iterIPS6_EEEEvT0_SC_T_NS_15iterator_traitsISC_E15difference_typeEPNSF_10value_typeEi
Htf:__ZL48Shadow_t773074319_CustomAttributesCacheGeneratorP21CustomAttributesCache
D5d:__ZL52__ManagedRegistrationHelperFunction_XRNodeStateProxyPv
Gfa:__ZN12_GLOBAL__N_113StaticDestroyEPv
r1c:__ZNK8GUIStyle4DrawER8GUIStateRK5RectTIfER10GUIContentbbbb
KLp:_glUnmapBuffer__wrapper
pdb:__ZN10GISettings8TransferI18StreamedBinaryReadEEvRT_
Z7m:_GUISkin_MakeCurrent_m3239192349
Ebd:__ZN8JSONRead21TransferSTLStyleArrayINSt3__26vectorI8Gradient13stl_allocatorIS3_L18MemLabelIdentifier1ELi16EEEEEEvRT_17TransferMetaFlags
_lb:__ZNSt3__218__insertion_sort_3IRNS_6__lessINS_4pairIPKN5Unity4TypeE7Hash128EES8_EEPS8_EEvT0_SC_T_
N3g:_InputField_set_onValueChanged_m3658917578
pNb:__ZN10RectOffset8TransferI24GenerateTypeTreeTransferEEvRT_
z2j:_BinaryReader__ctor_m2266204403
TLi:__ZN21InterfaceFuncInvoker5IiP22ByteU5BU5D_t4116647657iiS1_iE6InvokeEjP11Il2CppClassP12Il2CppObjectS1_iiS1_i
Sud:__ZNK10Collider2D15GetAttachedBodyEv
tcm:_Enumerator_VerifyState_m3047769867_AdjustorThunk
CMb:__Z18Transfer_BlittableI24GenerateTypeTreeTransferLb1E5RectTIiEEvRK29SerializationCommandArgumentsR31RuntimeSerializationCommandInfo
unn:_Enumerator_System_Collections_IEnumerator_Reset_m24787251
qQd:__ZN2UI13CanvasManager19RemoveDirtyRendererEPNS_6CanvasEPNS_14CanvasRendererE
EE:__Z23PatchMuscleClipWithInfoP13AnimationClipRK21AnimationClipSettingsbPN7mecanim9animation18ClipMuscleConstantER20RuntimeBaseAllocator
_Cp:_isspace
W1f:_BinaryFormatter__ctor_m2620705134
qRc:__ZN8Material14DisableKeywordERKN4core12basic_stringIcNS0_20StringStorageDefaultIcEEEE
typ:__ZN6il2cpp2vm13WeakReferenceC2EP12Il2CppObject
BXd:__ZN11UnityEngine15PlatformWrapper25GetGraphicsRendererStringEv
BCc:__ZZL31RegisterRectTransformPropertiesR22GenericPropertyBindingEN39Wrapper_RectTransformAnchoredPositiony113SetFloatValueEPvf
Zba:__ZN11UnityEngine15CloudWebService17WebFileDownloaderINS0_20WebRequestRestClientENS0_23WebRequestRestHeaderMapEED2Ev
vb:invoke_vi
YX:__ZN12AudioManager8InitFMODE15FMOD_OUTPUTTYPE
prd:__ZNSt3__26vectorINS0_IN10ClipperLib8IntPointENS_9allocatorIS2_EEEENS3_IS5_EEE7reserveEj
wIj:_MulticastDelegate_GetInvocationList_m4256593605
ob:invoke_vd
rb:invoke_vf
GOa:__ZNK6Camera19GetStereoViewMatrixE15StereoscopicEye
woa:__ZNK10GameObject8IsActiveEv
HYc:__Z34Component_Get_Custom_PropTransformP12Il2CppObject
Kkf:__ZL67g_UnityEngine_PhysicsModule_Assembly_CustomAttributesCacheGeneratorP21CustomAttributesCache
Ivh:_Color32_ToString_m403383053
c4b:__ZN18GfxFramebufferGLES23SetupDefaultFramebufferEPP17RenderSurfaceBaseS2_N2gl6HandleILNS3_10ObjectTypeE9EEE
Ynd:__ZN22b2IslandDiscreteSolverC2EiiiPP6b2BodyPP9b2ContactPP7b2JointP10b2VelocityP10b2PositionRK10b2TimeStepR7b2World
UYh:_TrackingServices_NotifyDisconnectedObject_m1755566214
Zse:_DefaultControls_CreateDropdown_m3286664171
Wvo:__ZN6il2cpp2vm5Class12SetupMethodsEP11Il2CppClass
nKp:dynCall_viidii
YRc:__Z39DeleteLastPathNameComponentWithAnySlashRKN4core12basic_stringIcNS_20StringStorageDefaultIcEEEE
g2c:__ZN10GUIManager14InitGUIManagerEv
QZo:__ZN6il2cpp2vm14TypeNameParserC2ERKNSt3__212basic_stringIcNS2_11char_traitsIcEENS2_9allocatorIcEEEERNS0_17TypeNameParseInfoEb
Mm:emscriptenWebGLGetShiftForType
q2k:_UInt16_Equals_m642257745
Ipi:_Array_System_Collections_IList_IndexOf_m3301661616
yLj:_AssemblyFileVersionAttribute__ctor_m3720707642
dco:_WaitForSeconds__ctor_m2199082655
sXf:_RuntimeResourceSet_CloneDisposableObjectIfPossible_m2725520898
DWm:_ReadOnlyCollection_1_System_Collections_IList_get_Item_m3686141309_gshared
Pa:invoke_iiifii
P0g:__ZN22InputField_t376291743122set_m_DragCoroutine_59EP21Coroutine_t3829159415
lYc:__Z26Mesh_CUSTOM_SetIndicesImplP12Il2CppObjecti16GfxPrimitiveTypeP11Il2CppArrayihi
roh:_SliderEvent__ctor_m3149452941
Nki:_DeriveBytes__cctor_m1212925033
Zze:_Graphic_OnDisable_m1097930217
dMo:__ZN6il2cpp6icalls8mscorlib6System8MonoType13IsPointerImplEP20Il2CppReflectionType
hha:__ZN24ProfilerCallbacksHandler28RemoveCallbackFromAllMarkersEPFvPK23UnityProfilerMarkerDescttPK23UnityProfilerMarkerDataPvES6_R13dynamic_arrayINS_17EventCallbackDataELj0EE
jg:_emscripten_glFramebufferRenderbuffer
kkc:__ZN19CullingGroupManager17CullAndSendEventsERK22SceneCullingParametersiRK13CullingOutputRK8JobFence
imo:_AnimationLayerMixerPlayable_GetHandle_m3854437798_AdjustorThunk
ANa:__ZN9Transform30EnsureTransformHierarchyExistsEv
Vvk:_SecurityFrame__ctor_m2140076703_AdjustorThunk
S$k:_Type_FilterName_impl_m2651733559
J5:__ZN11AudioModule26SetDefaultMicrophoneDriverEPv
zSl:_Dictionary_2_System_Collections_Generic_ICollectionU3CSystem_Collections_Generic_KeyValuePairU3CTKeyU2CTValueU3EU3E_Add_m1448015620_gshared
WXc:__Z46Register_UnityEngine_Application_get_isPlayingv
uTc:__ZN13MonoBehaviour13StopCoroutineEPKc
Mqc:__ZNSt3__26vectorINS_4pairIN4core12basic_stringIcNS2_20StringStorageDefaultIcEEEEPK17MessageIdentifierEENS_9allocatorISA_EEE12__move_rangeEPSA_SE_SE_
LXl:_DefaultComparer_Equals_m2458578172_gshared
Wxk:_String_Split_m3646115398
Rxp:__ZN6il2cpp5utilsL10ReadDoubleEPKc
KOh:_RectOffset_ToString_m2007443979
$to:__ZNK15dense_hashtableINSt3__24pairIK10KeyWrapperIPK22Il2CppGenericParameterEP11Il2CppClassEES6_N6il2cpp5utils11PointerHashIS4_EEN14dense_hash_mapIS6_S9_SE_NS6_14EqualsComparerINS0_8equal_toIS5_EEEENS0_9allocatorISA_EEE9SelectKeyESJ_SL_E3endEv
DNb:__Z29Transfer_Blittable_ArrayFieldI24GenerateTypeTreeTransfer11ColorRGBA32EvRT_R9ArrayInfoRK23StaticTransferFieldInfo
$vb:__ZN17ArchiveFileSystem10ToAbsoluteEPKc
Y5c:__Z50Register_UnityEngine_GUIUtility_get_pixelsPerPointv
UUc:__Z35Camera_CUSTOM_RaycastTry2D_InjectedP12Il2CppObjectRK3Rayfi
rYd:__ZN19UnityConnectService15GetPlayerUserIdEv
CPc:__Z17BezierInterpolateI8Vector3fET_fS1_S1_S1_S1_S1_S1_
$8h:_LogicalCallContext_GetObjectData_m841612502
ujk:_Array_InternalArray__IndexOf_TisSByte_t1669577662_m4156538463_gshared
Wsb:__ZL12SetPrefValueRKN4core12basic_stringIcNS_20StringStorageDefaultIcEEEERK9PrefValue
kfb:__ZN19ShaderPropertySheet20ReservePropertyCountEj
v8m:_GUI_Button_m1546789121
d4o:__ZNSt3__26vectorIN6il2cpp8metadata18GenericArrayMethodENS_9allocatorIS3_EEE7reserveEj
bXd:__ZN11UnityEngine9Analytics15DeviceInfoEvent16CollectExtraInfoEv
D6a:__ZN24GenerateTypeTreeTransfer21TransferResourceImageE19ActiveResourceImagePKcR13StreamingInfoPvjiPKN5Unity4TypeE
LGl:_Array_Sort_TisVector3_t3722313464_m1030213405_gshared
psp:__ZN6il2cpp6icalls8mscorlib6System7Runtime15InteropServicesL16IsObjectPinnableEP12Il2CppObject
iSp:_emscripten_glUniformMatrix3fv__wrapper
Ezp:__ZN6il2cpp6icalls8mscorlib6System9Threading5Mutex20CreateMutex_internalEbP12Il2CppStringPb
Oxc:__ZN9ShaderLab14SerializedPass8TransferI18StreamedBinaryReadEEvRT_
haf:__ZL47Time_t2420636075_CustomAttributesCacheGeneratorP21CustomAttributesCache
awh:_Coroutine_Finalize_m1957108547
dVn:_KeyBuilder_Key_m2503211157
SWa:__ZNSt3__212__deque_baseI18ReflectionProbeJobNS_9allocatorIS1_EEED2Ev
Ovh:_Component_GetComponentInChildren_m388868270
K2l:_GenericEqualityComparer_1_Equals_m1705889345_gshared
tQp:b104
IT:__ZN8Animator12CleanupClassEv
Aij:_FtpWebRequest__cctor_m699542155
xuo:__ZN6il2cpp2os12FastAutoLockC2EPNS0_9FastMutexE
QA:__ZN7mecanim9animation22CreateControllerMemoryEPKNS0_18ControllerConstantER20RuntimeBaseAllocator
nIj:_MonoType_GetObjectData_m3008014917
Xup:_setup_header
eRm:_ReadOnlyCollection_1_System_Collections_IList_Insert_m2797533731_gshared
zqo:__ZL6sub192yyyyyyPyS_S_
ogj:_NameObjectCollectionBase_GetEnumerator_m3677320185
O2c:__ZNK8GUIStyle4DrawER8GUIStateRK5RectTIfER10GUIContentib
flc:__Z24CalculateSpotLightBoundsffRK10Matrix4x4fR15SpotLightBounds
B7:__ZN23CloudWebServicesManager23VirtualRedirectTransferER14SafeBinaryRead
AKh:_PlayableHandle_Equals_m2546735654_AdjustorThunk
Iki:_PKCS12_AddCertificate_m3857004455
e0f:_WellKnownClientTypeEntry_ToString_m1119458503
AUb:__Z19ShouldTransferFieldR32SerializationCommandQueueBuilder17ScriptingClassPtriR18TransferField_InfoRK20CoreScriptingClasses
LVl:_Dictionary_2_GetObjectData_m2931211648_gshared
sbc:__ZN22AsyncGPUReadbackBuffer15ValidateTextureEP7Texturejjjjjjj13TextureFormat
bUo:__ZNK15dense_hashtableINSt3__24pairIK10KeyWrapperINS1_IPK12PropertyInfoP11Il2CppClassEEEjEES9_17ReflectionMapHashIS8_EN14dense_hash_mapIS9_jSD_NS9_14EqualsComparerINS0_8equal_toIS8_EEEENS0_9allocatorISB_EEE9SelectKeyESI_SK_E12test_deletedEj
_uo:__ZN6il2cpp2vm5Class11SetupEventsEP11Il2CppClass
kXc:__Z48Register_UnityEngine_MonoBehaviour_InvokeDelayedv
Wtk:_SecurityElement_IsValidText_m1346599242
sFb:__ZN26SinglePassStereoSupportExt21SetStereoMatrixCommonE21MonoOrStereoscopicEye24BuiltinShaderMatrixParamRK10Matrix4x4f
Ks:__ZL63__ManagedRegistrationHelperFunction_AnimationMixerPlayableProxyPv
h$:__ZN5audio5mixer22UpdateAudioMixerMemoryERKNS0_18AudioMixerConstantERNS0_16AudioMixerMemoryEfPN4FMOD6SystemEf
twd:__ZL21InitializeCachedStripPv
mRl:_Dictionary_2_System_Collections_Generic_ICollectionU3CSystem_Collections_Generic_KeyValuePairU3CTKeyU2CTValueU3EU3E_Add_m3652125112_gshared
Toc:__ZN19CustomRenderTexture16GetRenderTextureEv
d7o:__ZN6il2cpp6icalls8mscorlib6System9Threading6Thread23GetCachedCurrentCultureEP12Il2CppThread
kOa:__ZNK6Camera22GetWorldToCameraMatrixEv
yYo:__ZN14dense_hash_mapI10KeyWrapperINSt3__24pairIPK10MethodInfoP11Il2CppClassEEEj17ReflectionMapHashIS8_ENS9_14EqualsComparerINS1_8equal_toIS8_EEEENS1_9allocatorINS2_IKS9_jEEEEE15set_deleted_keyERSH_
Yhp:__ZN6il2cpp2vm12GenericClass11IsValueTypeEP18Il2CppGenericClass
Rtc:__ZN13ScreenManager24SetIsFullscreenImmediateEb
MTb:__ZN13MonoBehaviour7SetNameEPKc
_9h:_MethodDictionary_IsOverridenKey_m946843558
IPb:__Z19TransferField_ArrayI19StreamedBinaryWrite27Converter_SimpleNativeClassI17AnimationCurveTplIfEEEvRK23StaticTransferFieldInfoR31RuntimeSerializationCommandInfoRT0_
L2:__ZN10IWWWStream25FromTextualRepresentationEPKc
R5j:_FileStream_BeginRead_m2419864669
KIn:_U3CStartU3Ec__Iterator0_MoveNext_m4270440387_gshared
nDo:__ZN10KeyWrapperIN6il2cpp5utils13dynamic_arrayIPK10Il2CppTypeLj4EEEEC2ERKS7_
OYb:__ZN17InstancingBatcher22FindCBUpperBoundKonstsEv
uZd:__ZN11UnityEngine9Analytics15AnalyticsConfig13ConfigChangedERKN4core12basic_stringIcNS2_20StringStorageDefaultIcEEEER8JSONRead
Bob:__ZN18AwakeFromLoadQueue5ClearEv
O6j:_FileStream_SetLength_m99749826
Ejc:__ZNSt3__27__sort5IR15ReflProbeSorterPP15ReflectionProbeEEjT0_S6_S6_S6_S6_T_
Pta:__ZN8Playable10DisconnectEPS_i
B2i:_Convert_ToInt16_m4174439391
lk:_glGenTransformFeedbacks
Pnb:__ZN13LoadOperationD2Ev
kG:__ZN13AnimationClip23VirtualRedirectTransferER19StreamedBinaryWrite
fyj:_Int16_System_IConvertible_ToType_m3672347013
Neh:_Navigation_set_mode_m3709908198_AdjustorThunk
g8h:_ConstructionResponse__ctor_m131220658
HXb:__Z21PlayerStartFirstSceneb
bVj:_NumberFormatInfo_get_InvariantInfo_m349577018
C2a:__ZNSt3__27__sort5IRPFbRKNS_4pairIN9ShaderLab16FastPropertyNameEN18UnityPropertySheet11UnityTexEnvEEES8_EPS6_EEjT0_SD_SD_SD_SD_T_
f2b:__ZNK7ApiGLES18GetExtensionStringEv
zxm:_List_1_System_Collections_IList_IndexOf_m2444653486_gshared
Acn:_GUIClip_Internal_Push_m2522557466
Wtb:__ZNK12HandlerChain4SizeERK13FileEntryData
co:FUNCTION_TABLE_iiiiiiiii
eTg:_Enumerator_Dispose_m1360775770_AdjustorThunk
cSm:_ReadOnlyCollection_1_System_Collections_Generic_ICollectionU3CTU3E_Remove_m4177779688_gshared
jgd:__Z22GetPhysicsGroundBody2Dv
lvi:_Char_IsLetter_m3996985877
NAm:_Queue_1_Peek_m2302800625_gshared
sHe:__ZL51Delegate_t1188392813_CustomAttributesCacheGeneratorP21CustomAttributesCache
GLd:_Horizontal_Sweep_Span
$sp:_GC_allochblk
Fob:__Z15UnloadGameScenev
FLp:_glCheckFramebufferStatus__wrapper
sDe:_Image__ctor_m2551076292
TIo:__ZN6il2cpp2vm19SocketPollingThread7RunLoopEv
pVc:__Z45Register_UnityEngine_Camera_GetAllCamerasImplv
$Pl:_Dictionary_2_System_Collections_ICollection_CopyTo_m3143696177_gshared
F9n:_Vector2_Equals_m1313188271
NVm:_ReadOnlyCollection_1_System_Collections_IEnumerable_GetEnumerator_m3203429155_gshared
QGf:__ZN31OpCodes_t126150456_StaticFields14set_Stloc_1_11E17OpCode_t123070264
gYc:__Z36Renderer_Get_Custom_PropSortingOrderP12Il2CppObject
uhe:__Z34Dictionary_2_get_Values_m450058685P24Dictionary_2_t2696614423PK10MethodInfo
EQo:__ZNK15dense_hashtableINSt3__24pairIK10KeyWrapperIPK10Il2CppTypeEjEES6_N6il2cpp8metadata14Il2CppTypeHashEN14dense_hash_mapIS6_jSB_NS6_14EqualsComparerINSA_26Il2CppTypeEqualityComparerEEENS0_9allocatorIS8_EEE9SelectKeyESF_SH_E13find_positionERS7_
j_a:__ZN7Texture5ResetEv
Ujd:__ZNK14b2CapsuleShape7RayCastEP15b2RayCastOutputRK14b2RayCastInputRK11b2Transformi
I1h:_Context_get_HasDynamicSinks_m3952434387
sSk:_Latin1Encoding_GetByteCount_m1145650505
TLb:__Z18Transfer_BlittableI24GenerateTypeTreeTransferLb1EhEvRK29SerializationCommandArgumentsR31RuntimeSerializationCommandInfo
sga:__ZL27StaticCleanupIUnityProfilerPv
Iyf:_GenericTypeParameterBuilder_GetPropertyImpl_m2584778600
iBg:__Z75InternalEnumerator_1_System_Collections_IEnumerator_get_Current_m1096730143P32InternalEnumerator_1_t1040666831PK10MethodInfo
St:__ZN9Scripting11UnityEngine10Animations20ScaleConstraintProxy9InitProxyEv
FTc:__ZNK16TypeTreeIterator10ByteOffsetEv
U2n:_DownloadHandler_GetContentType_m4249877960
Nin:_GUIStyle_Internal_CalcMinMaxWidth_m662671596
vSi:__ZNK28HandshakeMessage_t369658316819get_handshakeType_6Ev
hsa:__ZnwjRKSt9nothrow_t
_M:__ZN8Animator11ClearObjectEv
KHf:__ZN31OpCodes_t126150456_StaticFields10set_Bge_59E17OpCode_t123070264
Zoi:_ApplicationException__ctor_m2557611022
AKf:__ZN31OpCodes_t126150456_StaticFields14set_Ldloca_211E17OpCode_t123070264
j1a:__ZN14SafeBinaryRead19TransferSTLStyleMapINSt3__23mapI39DeprecatedFastPropertyNameSerializationN18UnityPropertySheet11UnityTexEnvENS1_4lessIS3_EENS1_9allocatorINS1_4pairIKS3_S5_EEEEEEEEvRT_17TransferMetaFlags
mXc:__Z45Register_UnityEngine_MonoBehaviour_IsInvokingv
Kum:_List_1_CheckMatch_m579516778_gshared
ZXb:__Z43GiveManagedDebuggerChanceToAttachIfRequiredv
Vjb:__ZN14SafeBinaryRead8TransferI12MeshRendererEEvRT_PKc17TransferMetaFlags
jmk:_Array_InternalArray__ICollection_CopyTo_TisInt64_t3736567304_m2845057751_gshared
at:__ZL63__ManagedRegistrationHelperFunction_AnimatorTransitionInfoProxyPv
eIg:__Z75InternalEnumerator_1_System_Collections_IEnumerator_get_Current_m3890329814P32InternalEnumerator_1_t2834546715PK10MethodInfo
BTc:__Z35UnregisterSerializationCacheBuilderPFv17ScriptingClassPtrR23CachedSerializationDataRbE
Aup:_GC_reclaim_uninit
ama:__ZNSt3__26__treeINS_12__value_typeIPKc18ScriptingMethodPtrEENS_19__map_value_compareIS3_S5_14CStringCompareLb1EEE13stl_allocatorIS5_L18MemLabelIdentifier1ELi16EEE25__emplace_unique_key_argsIS3_JRKNS_21piecewise_construct_tENS_5tupleIJOS3_EEENSH_IJEEEEEENS_4pairINS_15__tree_iteratorIS5_PNS_11__tree_nodeIS5_PvEEiEEbEERKT_DpOT0_
dDj:_Int64_System_IConvertible_ToUInt32_m109903525_AdjustorThunk
atg:__Z74InternalEnumerator_1_System_Collections_IEnumerator_get_Current_m688818811P32InternalEnumerator_1_t3855323497PK10MethodInfo
IRa:__Z30GetBuiltinVectorParamArraySize24BuiltinShaderVectorParam
Gia:__ZNSt3__25stackIPN9ShaderLab21SerializedShaderStateENS_5dequeIS3_NS_9allocatorIS3_EEEEED2Ev
ePo:__ZNSt3__218uninitialized_copyIPNS_4pairIK10KeyWrapperINS1_IPK14Il2CppAssemblyP11Il2CppClassEEEjEESC_EET0_T_SE_SD_
I5c:__Z52GUILayoutUtility_CUSTOM_Internal_MoveWindow_InjectediRK5RectTIfE
Suj:_X509SubjectKeyIdentifierExtension__ctor_m3160552652
c_a:__ZN13RenderTextureC2E10MemLabelId18ObjectCreationMode
yyj:_Int32_GetFormatException_m519586683
UUe:__ZL46StringBuilder_t_CustomAttributesCacheGeneratorP21CustomAttributesCache
Uud:__ZN16b2ContactManagerC2Ev
KBa:__ZL50__ManagedRegistrationHelperFunction_Texture2DProxyPv
vXc:__Z60Register_UnityEngine_ScriptableObject_CreateScriptableObjectv
kXg:__Z34Enumerator_get_Current_m1454958684P22Enumerator_t3457065866PK10MethodInfo
Eeb:__ZN21RendererUpdateManager11AddRendererER8Renderer
TGb:__Z35Transfer_Blittable_FixedBufferFieldI14SafeBinaryReadsEvRK29SerializationCommandArgumentsR31RuntimeSerializationCommandInfo
A$i:_Convert_ToDateTime_m3802186295
Uop:__ZN6il2cpp5utils11StringUtils11Utf16ToUtf8EPKDs
t4k:_UInt64_CompareTo_m1614517204_AdjustorThunk
QXd:__ZN11UnityEngine15PlatformWrapper20IsRootedOrJailbrokenEv
l9b:__ZZ23InitPlayerLoopCallbacksvEN52PreLateUpdateScriptRunBehaviourLateUpdateRegistrator7ForwardEv
wdk:_Array_InternalArray__ICollection_Contains_TisInt32_t2950945753_m2907032710_gshared
Klc:__Z33IntersectAABBPlaneBoundsOptimizedRK4AABBPKN4math7_float4Ei
iAb:__ZN9GfxDevice19EndGeometryJobFrameEv
EJf:__ZN31OpCodes_t126150456_StaticFields14set_Stelem_161E17OpCode_t123070264
F1g:_InputField_get_shouldActivateOnSelect_m3055465770
L$o:_il2cpp_class_get_methods
E1i:_Convert_ToDecimal_m1284279264
NLb:__ZN27Converter_SimpleNativeClassI17AnimationCurveTplIfEE17ScriptingToNativeER18ScriptingObjectPtrPS1_
Uif:__ZL93GUIStyle_t3956901511_CustomAttributesCacheGenerator_GUIStyle_t3956901511____name_PropertyInfoP21CustomAttributesCache
K6o:__ZN6il2cpp5utils10StringViewIcEC2ILj10EEERAT__Kc
Aeb:__ZN20TextureStreamingData14RemoveRendererEi
xAp:__ZN6il2cpp8metadata24Il2CppGenericInstCompare7CompareERK10KeyWrapperIPK17Il2CppGenericInstES8_
BAo:__ZNK15dense_hashtableINSt3__24pairIK10KeyWrapperIPK19Il2CppGenericMethodEPK26Il2CppGenericMethodIndicesEES6_N6il2cpp8metadata23Il2CppGenericMethodHashEN14dense_hash_mapIS6_SA_SE_NS6_14EqualsComparerINSD_26Il2CppGenericMethodCompareEEENS0_9allocatorISB_EEE9SelectKeyESI_SK_E5beginEv
bbe:_ExecuteEvents_Execute_m3049310229
zw:__ZN27AnimationLayerMixerPlayable21UpdateLayerParametersEv
taf:__ZL84Object_t631007953_CustomAttributesCacheGenerator_Object_DestroyImmediate_m2288369078P21CustomAttributesCache
sgc:__Z26FindForwardLightsForObjectR13dynamic_arrayIhLj0EEPK11CulledLightjRK12ActiveLightsRK10RenderNodePK19ShaderPropertySheetbRK23FindForwardLightsParamsfRK28LightProbeProxyVolumeContext
mz:__ZN7mecanim9animation16CopyMotionOutputEPKNS0_18AnimationNodeStateEPS1_bbRKNS_6bitsetILj83EEE
kHf:__ZN31OpCodes_t126150456_StaticFields13set_Ldc_I8_33E17OpCode_t123070264
KGc:__ZNK17AnimationCurveTplIfE8EvaluateEfPNS0_5CacheE
p8b:__Z31ManagerContextInitializeClassesv
mSm:_ReadOnlyCollection_1_System_Collections_IList_Contains_m2650112051_gshared
Ghe:__Z30Enumerator_Dispose_m1365621171P21Enumerator_t355829902PK10MethodInfo
bAd:_UNITY_FT_List_Finalize
U7n:_AudioSource_INTERNAL_CALL_Pause_m1443225006
yQd:__Z18RegisterUnityClassIN2UI14CanvasRendererEEvPKc
pun:__ZNK14Uri_t10023632420get_isAbsoluteUri_11Ev
hec:__Z20LightAttenuateApproxRKfS0_
Cla:__ZN9Scripting30SetCachedPtrOnScriptingWrapperE18ScriptingObjectPtrP6Object
Z4c:__Z56Register_UnityEngine_GUIStyle_set_contentOffset_Injectedv
Pfd:__ZN9Scripting11UnityEngine26CachedContactPoints2DProxy12CleanupProxyEv
_Ag:__Z38InternalEnumerator_1__ctor_m3443175323P32InternalEnumerator_1_t1040666831P11Il2CppArrayPK10MethodInfo
Wy:__ZN17AnimationPlayable17SetInternalWeightEf
w4i:_Convert_ToUInt32_m3592050311
Ufk:__Z82PlayableHandle_IsPlayableOfType_TisAnimationScriptPlayable_t1303525964_m1992139667P26PlayableHandle_t1095853803PK10MethodInfo
fUh:_Transform_get_rotation_Injected_m3838128444
tkn:_RepeatContext_get_IsMinimum_m3640286252
m5c:__Z53Register_UnityEngine_GUIStyle_Internal_Draw2_Injectedv
bnb:__ZN30RuntimeInitializeOnLoadManager8TransferI18StreamedBinaryReadEEvRT_
xug:_InternalEnumerator_1__ctor_m4055378331_AdjustorThunk
qag:_ObjectRecord_ChainFixup_m1889316362
F1m:_PKCS12__ctor_m1587304645
uYa:__ZN18BlockRangeInternal16PopLastNodeIndexEP10BlockRangeji
krp:__ZN6il2cpp2vm13CachedCCWBaseINS0_13ManagedObjectEE6AddRefEv
Sje:_TouchInputModule_UpdateModule_m2582897964
Rhb:__ZN4MeshD0Ev
QBg:__Z38InternalEnumerator_1__ctor_m1122952091P30InternalEnumerator_1_t83702344P11Il2CppArrayPK10MethodInfo
$4d:__ZL42RequestRecreateEyeTexturesBeforeNextUpdatev
WQa:__ZNK6Camera20IsCurrentlyRenderingEv
vy:__ZN21AnimationClipPlayable23ProcessRootMotionNoClipEPK35AnimationPlayableEvaluationConstantPK32AnimationPlayableEvaluationInputP33AnimationPlayableEvaluationOutput
lTd:__Z36CanvasRenderer_CUSTOM_SetPopMaterialP12Il2CppObjectS0_i
hdn:_GUILayoutUtility_Internal_GetWindowRect_Injected_m1537976334
LCa:__ZN9Scripting11UnityEngine19SerializeFieldProxy12CleanupProxyEv
b8c:__Z18Transfer_BlittableI9JSONWriteLb0EdEvRK29SerializationCommandArgumentsR31RuntimeSerializationCommandInfo
BFd:_otv_u_O_O_u_O_O
T5i:_DBNull_System_IConvertible_ToSByte_m3533624679
Ceo:__ZL25UnresolvedVirtualCall_111P12Il2CppObjectfPK10MethodInfo
Sye:__Z38il2cpp_codegen_object_reference_equalsPK12Il2CppObjectS1_
LOd:__ZThn252_N31CanvasBatchIntermediateRenderer14OnAssetDeletedEv
yDp:_wctomb
avi:_Char_CompareTo_m42489266
rpg:_InternalEnumerator_1_System_Collections_IEnumerator_get_Current_m3575233890_AdjustorThunk
Htc:__Z28SetStackTraceLogTypeOverride7LogType17StackTraceLogType
iyl:__Z67RuntimeInvoker_Void_t1185182177_Int32_t2950945753_Double_t594665363PFvvEPK10MethodInfoPvPS4_
s4d:__ZL57__ManagedRegistrationHelperFunction_VideoPlaybackMgrProxyPv
Wd:___cxa_rethrow
KSf:_ParameterInfo_GetCustomAttributes_m2376494592
I9c:__Z18Transfer_BlittableI8JSONReadLb1EhEvRK29SerializationCommandArgumentsR31RuntimeSerializationCommandInfo
Cze:_Graphic_get_canvasRenderer_m315509948
LGm:_Collection_1_System_Collections_IList_Contains_m3397768605_gshared
Ueh:_Navigation_set_selectOnUp_m827629728_AdjustorThunk
Fml:__Z90RuntimeInvoker_Void_t1185182177_Int64_t3736567304_Int32_t2950945753_RuntimeObject_IntPtr_tPFvvEPK10MethodInfoPvPS4_
Pld:__ZN18Overlap2DQueryBase13ReportFixtureEP9b2Fixture
NXj:_CultureInfo_construct_internal_locale_from_name_m3254739477
nTi:_RSASslSignatureDeformatter_VerifySignature_m1061897602
bjo:_TextGenerator_Internal_Create_m2816846831
moc:__ZN13MonoBehaviour8SetClassE17ScriptingClassPtr18ScriptingObjectPtr
fAb:__ZN9GfxDevice33ScheduleComputeBufferJobsInternalEPFvP20ComputeBufferJobDataEPFvRK8JobFenceEPK27ComputeBufferJobInstructionj
b5l:__ZN23RC2Transform_t4583214879set_R1_13Et
vDl:_Array_InternalArray__Insert_TisLabelFixup_t858502054_m171542753_gshared
fKg:_InternalEnumerator_1_System_Collections_IEnumerator_get_Current_m3539708496_AdjustorThunk
AFp:_twobyte_strstr
Dub:__ZN20LocalFileSystemPosix4ReadER13FileEntryDatayyPvPy
eic:__ZNSt3__211__sift_downIRN23ForwardShaderRenderLoop18RenderObjectSorterILb0EEEP21ForwardRenderPassDataEEvT0_S7_T_NS_15iterator_traitsIS7_E15difference_typeES7_
LGf:__ZN31OpCodes_t126150456_StaticFields13set_Ldloc_0_6E17OpCode_t123070264
Urk:_SecurityPermission__ctor_m1462427327
fha:__ZN9profiling15ProfilerManager24RegisterNewFrameCallbackEPFvPvES1_
pPp:_glPixelStorei__wrapper
CJp:dynCall_iiiiiiffiiiiiiiiiffffiiii
Fap:__ZN15dense_hashtableINSt3__24pairIK10KeyWrapperIP14Il2CppIUnknownEjEES5_N6il2cpp5utils11PointerHashIS3_EEN14dense_hash_mapIS5_jSB_NS5_14EqualsComparerINS0_8equal_toIS4_EEEENS0_9allocatorIS7_EEE9SelectKeyESG_SI_E21fill_range_with_emptyEPS7_SM_
aUb:__ZN13MonoBehaviour5DoGUIENS_13GUILayoutTypeEii
S_f:_ChannelData_get_ClientProviders_m594662942
Ton:_QuickSearch_GetChar_m1297698557
dLa:__ZNK12TLSAllocatorI14StackAllocatorE8ContainsEPKv
m7k:__Z68RuntimeInvoker_Boolean_t97287965_Int16_t2552820387_SByte_t1669577662PFvvEPK10MethodInfoPvPS4_
Q$i:_DateTime__ParseEnum_m253019513
v4i:_Convert_ToUInt32_m2194577773
OBi:_Hashtable_Remove_m4032631466
NNk:_DSAManaged_GenerateKeyPair_m2236915969
q6a:__ZN7Texture25ReloadFromStorageIfNeededEPvb
Pik:_Array_InternalArray__IndexOf_TisBoolean_t97287965_m1161209222_gshared
G_n:__Z39KeyCollection_GetEnumerator_m3646357383P25KeyCollection_t1544294477PK10MethodInfo
_Zk:_WaitOrTimerCallback_BeginInvoke_m2905803559
Bkf:__ZL55RaycastHit2D_t2279581989_CustomAttributesCacheGeneratorP21CustomAttributesCache
syi:_SynchronizedArrayListWrapper_Clear_m2191301493
cJd:_Update_Max
a8o:__ZN6il2cpp6icalls8mscorlib6SystemL15ThrowNoWideningEv
cBc:__ZNK23TransformChangeDispatch24GetChangeMaskForInterestENS_12InterestTypeE
LTn:_Score_t1179825972_marshal_pinvoke
nDe:_HorizontalOrVerticalLayoutGroup_set_childControlWidth_m3261460516
A1a:__ZNSt3__26__treeINS_12__value_typeI39DeprecatedFastPropertyNameSerializationfEENS_19__map_value_compareIS2_S3_NS_4lessIS2_EELb1EEENS_9allocatorIS3_EEE7destroyEPNS_11__tree_nodeIS3_PvEE
WHd:_tt_cmap4_char_index
Xke:_AspectRatioFitter_GetParentSize_m3159144324
Lxn:__Z30Comparison_1_Invoke_m517083441P24Comparison_1_t249808133640CustomAttributeTypedArgument_t2723150157S1_PK10MethodInfo
rog:_InternalEnumerator_1__ctor_m2336656763_AdjustorThunk
Ezm:_Enumerator_System_Collections_IEnumerator_Reset_m1487823313_gshared
eub:__ZNK12HandlerChain8IsHiddenERK13FileEntryData
dzb:__ZNSt3__26__treeINS_12__value_typeIN4core12basic_stringIcNS2_20StringStorageDefaultIcEEEEPN16MemoryFileSystem4NodeEEENS_19__map_value_compareIS6_SA_NS_4lessIS6_EELb1EEE13stl_allocatorISA_L18MemLabelIdentifier55ELi16EEE25__emplace_unique_key_argsIS6_JNS_4pairIKS6_S9_EEEEENSK_INS_15__tree_iteratorISA_PNS_11__tree_nodeISA_PvEEiEEbEERKT_DpOT0_
cLb:__ZL26Transfer_SimpleNativeClassI17RemapPPtrTransfer10RectOffsetLb0EEvRK29SerializationCommandArgumentsR31RuntimeSerializationCommandInfo
uI:__ZNSt3__26vectorIN13AnimationClip15QuaternionCurveE13stl_allocatorIS2_L18MemLabelIdentifier26ELi16EEE6assignINS_11__wrap_iterIPS2_EEEENS_9enable_ifIXaasr21__is_forward_iteratorIT_EE5valuesr16is_constructibleIS2_NS_15iterator_traitsISC_E9referenceEEE5valueEvE4typeESC_SC_
CCj:_Int32_ToString_m2507389746_AdjustorThunk
uFo:__ZNK6il2cpp5utils11collections13ArrayValueMapIPK10Il2CppType17Il2CppInteropData26InteropDataToTypeConverterNS_8metadata14Il2CppTypeLessENS8_26Il2CppTypeEqualityComparerEE3endEv
d3i:_Decimal_op_Explicit_m438967917
Pmo:_AnimatorControllerPlayable_SetHandle_m2260644454_AdjustorThunk
zJ:__ZN17AnimationCurveTplIfE8TransferI18StreamedBinaryReadEEvRT_
hWa:__ZN16GraphicsSettings8TransferI19StreamedBinaryWriteEEvRT_
rwc:__ZNSt3__26vectorIN9ShaderLab20SerializedSubProgram13BufferBindingENS_9allocatorIS3_EEEC2ERKS6_
YHa:__ZN9Scripting5Unity11Collections8LowLevel6Unsafe46NativeContainerIsAtomicWriteOnlyAttributeProxy9InitProxyEv
E3g:_InputField_set_selectionColor_m2084640295
FBf:_Label_Equals_m1321622490
ERa:__ZNK9ShaderLab20ShaderBlendStateDesc15ToGfxBlendStateEPK19ShaderPropertySheetS3_R13GfxBlendState
p5d:__ZN13RuntimeStaticI21XRInputTrackingFacadeLb0EE16StaticInitializeEPv
TVg:_Enumerator_System_Collections_IEnumerator_get_Current_m1747693366_AdjustorThunk
bbn:_TextEditor_SelectParagraphBackward_m605299273
FC:__ZN11UnityEngine9AnimationL22GenericBindingCallbackEPvS1_i
ZL:__ZN12_GLOBAL__N_121ProcessAnimationBeginER35AnimationPlayableEvaluationConstantR32AnimationPlayableEvaluationInputR33AnimationPlayableEvaluationOutput
j9m:__ZNK22TextEditor_t275985536616get_m_Position_9Ev
Szc:__ZN9ShaderLab9IntShaderC2Ev
lMo:__ZN6il2cpp6icalls8mscorlib6SystemL9IsPrivateEPK9EventInfo
Myp:__ZN6il2cpp6icalls8mscorlib6System10Reflection4Emit11TypeBuilder20setup_internal_classEP27Il2CppReflectionTypeBuilderS7_
pab:__ZN23TextureStreamingManager15SetMemoryBudgetEf
mjk:_Array_InternalArray__IndexOf_TisILTokenInfo_t2325775114_m2602704009_gshared
ebe:_ExecuteEvents_Execute_m3613826831
K_h:__Z36Dictionary_2_TryGetValue_m1013208020P24Dictionary_2_t2736202052P8String_tPiPK10MethodInfo
qTk:_StringBuilder_AppendFormat_m3255666490
Cdd:__ZN5Unity9rapidjson6WriterI16TempBufferWriterNS0_4UTF8IcEES4_13JSONAllocatorE11WriteUint64Ey
w2c:__ZN13GUIStateScope3EndER16GUIKeyboardStateR8GUIStatePN5IMGUI19NamedKeyControlListE
gMf:_TypeBuilder_GetGenericArguments_m2872156836
Sgn:__ZNK26GUIScrollGroup_t152332902119get_calcMaxWidth_28Ev
Ato:__ZN13Il2CppHashMapIPK22Il2CppGenericParameterP11Il2CppClassN6il2cpp5utils11PointerHashIS1_EENSt3__28equal_toIS2_EENS9_9allocatorINS9_4pairIK10KeyWrapperIS2_ES4_EEEEEC2EjRKS8_RKSB_
hXd:__ZN11UnityEngine15PlatformWrapper19GetPhysicalMemoryMBEv
pvb:__Z15CreateDirectoryRKN4core12basic_stringIcNS_20StringStorageDefaultIcEEEE
jEd:_cff_cmap_encoding_char_index
tjb:__Z21CalculateGlobalMatrix23TransformAccessReadOnly
iMf:_TypeBuilder_GetGenericTypeDefinition_m1632720438
pdk:_Array_InternalArray__ICollection_Contains_TisLink_t544317964_m163190451_gshared
r8i:_DateTimeOffset_System_IComparable_CompareTo_m176229495_AdjustorThunk
EDh:_ManagedStreamHelpers_ValidateLoadFromStream_m580138133
Klb:__ZNK13BuildSettings22GetTypeVirtualInternalEv
qEl:_Array_InternalArray__set_Item_TisKeyValuePair_2_t1377593753_m556360506_gshared
RFn:__ZN30GenericInterfaceActionInvoker1I17Scene_t2348375561E6InvokeEPK10MethodInfoP12Il2CppObjectS0_
Q6o:__ZN6il2cpp6icalls8mscorlib6System10Reflection8Assembly27GetManifestResourceInternalEP24Il2CppReflectionAssemblyP12Il2CppStringPiPP22Il2CppReflectionModule
Tvm:_List_1_CheckIndex_m2250397830_gshared
Oyk:_String_LastIndexOf_m578673845
QKh:_PlayableOutput_GetHandle_m777137769_AdjustorThunk
gIh:_PlayerEditorConnectionEvents_UnregisterManagedCallback_m400366024
dln:_Interval_get_Empty_m3617514670
TKj:_Assembly_GetName_m981771927
Whp:__ZN6il2cpp2vm12GenericClass8GetClassEP18Il2CppGenericClass
GAb:__ZNK9GfxDevice27GetActiveRenderSurfaceWidthEv
Enf:__ZL114StandaloneInputModule_t2760469101_CustomAttributesCacheGenerator_StandaloneInputModule_ForceAutoSelect_m2837047882P21CustomAttributesCache
DXd:__ZN11UnityEngine15PlatformWrapper28GetCleanGraphicsFixedVersionEv
Eeh:_MaskableGraphic_RecalculateClipping_m1772937317
Fck:_UnmanagedMemoryStream_SetLength_m3752964620
tYm:_SslStreamBase_RaiseLocalPrivateKeySelection_m4112368540
S_o:__ZN6il2cpp2vm4Type7GetTypeEPK10Il2CppType
GPf:_MonoCMethod_GetObjectData_m2489171292
EBc:__ZN16SpriteRenderData28PrepareRenderingDataIfNeededEv
ypi:_ArgumentOutOfRangeException_GetObjectData_m1344552880
Pzd:_open_face_PS_from_sfnt_stream
MIf:__ZN31OpCodes_t126150456_StaticFields17set_Castclass_115E17OpCode_t123070264
sVe:__ZL100CompressedStack_t1202932761_CustomAttributesCacheGenerator_CompressedStack_GetObjectData_m2451703776P21CustomAttributesCache
noh:__ZN18Slider_t390372890218set_m_Direction_20Ei
PTk:_UTF32Encoding_GetByteCount_m3610769032
ZFo:__ZN15dense_hashtableINSt3__24pairIK10KeyWrapperIPKcEP11Il2CppClassEES5_N6il2cpp5utils11StringUtils12StringHasherIS4_EEN14dense_hash_mapIS5_S8_SE_NS5_14EqualsComparerINSB_13VmStringUtils21CaseSensitiveComparerEEENS0_9allocatorIS9_EEE9SelectKeyESJ_SL_E13clear_deletedER30dense_hashtable_const_iteratorIS9_S5_SE_SN_SJ_SL_E
l5:__ZN11AudioModule16SetListenerPauseEb
kac:__Z16FindCameraStacksRKNSt3__24listI4PPtrI6CameraENS_9allocatorIS3_EEEERNS_6vectorI11CameraStackNS4_ISA_EEEE
onn:_MatchCollection_CopyTo_m3807326147
Rcb:__ZN10GISettings8TransferI14SafeBinaryReadEEvRT_
xo:FUNCTION_TABLE_vifff
MGa:__ZN9Scripting11UnityEngine28ClassLibraryInitializerProxy9InitProxyEv
Vig:_MD5CryptoServiceProvider__ctor_m3271163125
ppc:__ZN19CustomRenderTexture12ClearGPUDataEv
a2j:_Guid_Equals_m3683678873
t_a:__ZN13RenderTexture13ApplySettingsEv
y2f:_ObjectReader_RegisterObject_m1853376334
LFf:_ModuleBuilderTokenGenerator_GetToken_m2588853565
Gsi:_Boolean_System_IConvertible_ToDecimal_m3176932461_AdjustorThunk
Mhc:__ZNSt3__26__treeINS_12__value_typeIi17ShadowCachingDataEENS_19__map_value_compareIiS3_NS_4lessIiEELb1EEE13stl_allocatorIS3_L18MemLabelIdentifier66ELi16EEE25__emplace_unique_key_argsIiJNS_4pairIiS2_EEEEENSD_INS_15__tree_iteratorIS3_PNS_11__tree_nodeIS3_PvEEiEEbEERKT_DpOT0_
Qc:_JS_Sound_SetListenerPosition
gn:FUNCTION_TABLE_fiffi
ZSd:__Z55Register_UnityEngine_CanvasGroup_get_ignoreParentGroupsv
fSm:_ReadOnlyCollection_1_System_Collections_Generic_IListU3CTU3E_set_Item_m711370667_gshared
yjb:__ZN12EventManager11RemoveEventEP10EventEntryPFvPvS2_iES2_
WMj:_Default_check_arguments_with_score_m3467814020
e9l:_KeyValuePair_2_ToString_m2480962023_AdjustorThunk
Vgm:_Enumerator__ctor_m3875432026_AdjustorThunk
Pqb:__ZNK8Material16MarkDependenciesER27GarbageCollectorThreadState
_oh:_Slider_set_handleRect_m1101657556
J8i:_DateTimeOffset_ToString_m3985341516_AdjustorThunk
Yan:_TextEditor_SelectTextStart_m3167909833
e8c:__ZL17Transfer_GUIStyleI9JSONWriteLb0EEvRK29SerializationCommandArgumentsR31RuntimeSerializationCommandInfo
MSp:_glTexStorage2D__wrapper
mfc:__Z28GetHaloVertexPositionsStereoP8Vector3fRKS_S2_f
yxa:__ZN6prcoreL27StretchGenericFloatBilinearI15TexFormatRGHalfEEvPKNS_9InnerInfoE
$P:__Z16return_effectiveRK21AnimationClipOverride
x4n:_UnityWebRequest_get_responseCode_m1090830473
TZo:__ZN6il2cpp2vm14TypeNameParser16InitializeParserEv
ifc:__ZN9DepthPass7PrepareER6CameraRK13dynamic_arrayI16RenderObjectDataLj0EERK15RenderNodeQueueRK17ShaderReplaceDatab
yIf:__ZN31OpCodes_t126150456_StaticFields11set_Not_101E17OpCode_t123070264
E$a:__ZNK15PlayableMethods18InvokePrepareFrameER18ScriptingObjectPtrRK9HPlayableP18ScriptingFrameData
cQ:__ZN14SafeBinaryRead21TransferSTLStyleArrayI13dynamic_arrayI21AnimationClipOverrideLj0EEEEvRT_17TransferMetaFlags
Krf:__ZL71SpriteState_t1362986479_CustomAttributesCacheGenerator_m_DisabledSpriteP21CustomAttributesCache
VYd:__ZN22BaseUnityConnectClient28UpdateConfigFromServerStaticEPv
ypj:_PublicKey_DecodeDSA_m3490622362
GYc:__Z49Register_UnityEngine_Resources_GetBuiltinResourcev
N0k:_Type_GetMethod_m1479779718
JHd:_tt_cmap10_char_index
jxc:__ZN15SerializeTraitsINSt3__24pairIN4core12basic_stringIcNS2_20StringStorageDefaultIcEEEE4PPtrI7TextureEEEE8TransferI24GenerateTypeTreeTransferEEvRSA_RT_
$Xi:_SortedList__ctor_m3676552745
Nfa:__ZL27CleanupGlobalNameConversionPv
Vga:__Z36UnregisterCreateCategoryCallbackImplPFvPK25UnityProfilerCategoryDescPvES2_
O4:__ZN11AudioSource24ClearExtensionPropertiesE12PropertyName
IUa:__ZN14VertexDataInfo12UpdateFormatEj17ShaderChannelMaskS0_RK19VertexStreamsLayoutRK20VertexChannelsLayout
sJb:__ZN15SerializeTraitsI5RectTIiEE8TransferI14SafeBinaryReadEEvRS1_RT_
d2c:__ZN5IMGUI20MoveWindowFromLayoutER8GUIStateiRK5RectTIfE
sAd:_UNITY_FT_Stream_ReadUShort
Gzo:__ZN15dense_hashtableINSt3__24pairIK10KeyWrapperIP9FieldInfoEiEES5_N6il2cpp5utils11PointerHashIS3_EEN14dense_hash_mapIS5_iSB_NS5_14EqualsComparerINS0_8equal_toIS4_EEEENS0_9allocatorIS7_EEE9SelectKeyESG_SI_E5clearEv
i1a:__ZNSt3__26__treeINS_12__value_typeIN4core12basic_stringIcNS2_20StringStorageDefaultIcEEEES6_EENS_19__map_value_compareIS6_S7_NS_4lessIS6_EELb1EEE13stl_allocatorIS7_L18MemLabelIdentifier1ELi16EEE7destroyEPNS_11__tree_nodeIS7_PvEE
uOj:_AssemblyBuilder_get_Location_m384539722
a5o:__ZN15dense_hashtableINSt3__24pairIK10KeyWrapperIP11Il2CppClassES4_EES5_N6il2cpp8metadata16SZArrayClassHashEN14dense_hash_mapIS5_S4_SA_NS5_14EqualsComparerINS9_19SZArrayClassCompareEEENS0_9allocatorIS7_EEE9SelectKeyESE_SG_E4findERS6_
CYk:_Thread_get_ManagedThreadId_m1068113671
_2b:__Z13IsDepthFormat14GraphicsFormat
hlb:__ZN12AspectRatios8TransferI24GenerateTypeTreeTransferEEvRT_
wHj:_MonoType_GetFields_m4176012508
Mml:__Z73RuntimeInvoker_Single_t1397266774_Vector3_t3722313464_Vector3_t3722313464PFvvEPK10MethodInfoPvPS4_
Hh:_emscripten_glUniform1fv
e_l:_EqualityComparer_1_System_Collections_IEqualityComparer_GetHashCode_m3423304513_gshared
vuo:__ZN6il2cpp2vm5Class13GetArrayClassEP11Il2CppClassj
Efe:__ZN28PointerEventData_t380790109246set_U3CpointerPressRaycastU3Ek__BackingField_8E25RaycastResult_t3360306849
Kzd:_ft_open_face_internal
Ehg:_HashAlgorithm_ComputeHash_m2044824070
p3c:__ZN11IMGUIModule12AddGUIScriptER8ListNodeI13MonoBehaviourE
$:invoke_difi
CPp:_glDeleteSamplers__wrapper
Uej:_HybridDictionary_set_Item_m2997363718
Bn:FUNCTION_TABLE_iiffi
dLg:_InternalEnumerator_1_get_Current_m1477715453_AdjustorThunk
i4k:_UInt64_System_IConvertible_ToUInt32_m2784653358
o2b:__ZN21GLESGpuProgramApplier11ApplyVectorERKN20GpuProgramParameters14ValueParameterEPK8Vector4ft
AWd:__ZN22BaseUnityConnectClient17SaveSessionValuesEv
pcg:_SByte_System_IConvertible_ToDecimal_m2548745278
ABd:_cff_size_done
Tkc:__ZN29ExtractProjectionPlanesHelperILb1EE5ApplyERK10Matrix4x4fP5Plane
Iqp:__ZN6il2cpp6icalls8mscorlib6System7Convert17Base64ToByteArrayEPDsib
Ijb:__ZN12MeshRenderer23VirtualRedirectTransferER18StreamedBinaryRead
dDc:__ZN13ProduceHelperI7CubemapLb0EE7ProduceE10MemLabelId18ObjectCreationMode
lqc:__ZN6Camera34UpdatePreviousViewProjectionMatrixEv
G0a:__ZN9ShaderLab11ShaderState25RemoveUnsupportedProgramsEPK6Shader
$Md:__Z28Font_Get_Custom_PropMaterialP12Il2CppObject
$Dh:_Mathf_Abs_m3281243566
QO:__ZNSt3__26__sortIR12GreaterLayerPP14AnimationStateEEvT0_S6_T_
tbk:_SynchronizedWriter_WriteLine_m1552352268
_Mh:_Rect_get_zero_m4034156123
eRc:__Z26scripting_class_has_parent17ScriptingClassPtrS_
dQg:__Z65Enumerator_System_Collections_IEnumerator_get_Current_m2979767597P22Enumerator_t3923002270PK10MethodInfo
b$a:__ZN15TextureSettings8TransferI19StreamedBinaryWriteEEvRT_
ypa:__ZN13RuntimeStaticI21AssetReferenceStorageLb0EE16StaticInitializeEPv
V4c:__Z38Register_UnityEngine_GUIStyle_set_fontv
g5:__Z71Register_UnityEngine_AudioSource_INTERNAL_CALL_ClearExtensionPropertiesv
MM:__ZNK8Animator20IsInMatchTargetStateEv
D6f:__ZNK31OpCodes_t126150456_StaticFields13get_Ldarg_1_3Ev
UBg:_InternalEnumerator_1_System_Collections_IEnumerator_get_Current_m4088805473_gshared
Zo:FUNCTION_TABLE_viiifiii
A5c:__Z36Register_UnityEngine_GUI_set_changedv
rgm:__Z34Enumerator_VerifyState_m1745883925P22Enumerator_t3123848928PK10MethodInfo
W1h:_Context_GetServerContextSinkChain_m3154465897
$ql:__Z81RuntimeInvoker_Int32_t2950945753_Ray_t3785851493_RuntimeObject_Single_t1397266774PFvvEPK10MethodInfoPvPS4_
$ga:__Z27UnregisterFrameCallbackImplPFvPvES_
skp:__ZN14dense_hash_mapI10KeyWrapperIPcES1_N6il2cpp5utils15PassThroughHashIS1_EENS2_14EqualsComparerINSt3__28equal_toIS1_EEEENS8_9allocatorINS8_4pairIKS2_S1_EEEEE5beginEv
HUl:_Dictionary_2_ToTValue_m4148303222_gshared
a4e:__ZL88GameObject_t1113636619_CustomAttributesCacheGenerator_GameObject_SendMessage_m3720186693P21CustomAttributesCache
i9a:__ZN7Cubemap8TransferI18StreamedBinaryReadEEvRT_
Ked:__ZN20PerformanceReporting29CheckForTargetFrameRateChangeEv
wzp:__GLOBAL__sub_I_Il2CppCodeRegistration_cpp
_$m:_TlsStream_SetLength_m2444039643
X4c:__Z42Register_UnityEngine_GUIStyle_get_wordWrapv
Tz:__ZN7mecanim28TransformValueArrayBlendNodeEiiiRKNS_10ValueArrayERKNS_14ValueArrayMaskERS0_RS3_RNS_16ValueArrayWeightEf
kQj:_DerivedType_MakeGenericType_m100846339
Wjm:_List_1_GetIndex_m3112872964_gshared
wue:_Dropdown_set_value_m1048320169
s4h:_Lease_set_SponsorshipTimeout_m2290526220
nWe:__ZL150ApplicationIdentity_t1917735356_CustomAttributesCacheGenerator_ApplicationIdentity_System_Runtime_Serialization_ISerializable_GetObjectData_m995105840P21CustomAttributesCache
fCj:_Int32_System_IConvertible_ToUInt64_m2502338186_AdjustorThunk
xWc:__Z43Register_UnityEngine_Material_EnableKeywordv
Ypo:__ZL9rshift128PyS_
CBj:_Int16_ToString_m2072232391_AdjustorThunk
Pem:_Enumerator_VerifyState_m169680537_AdjustorThunk
gZo:__ZN14dense_hash_mapI10KeyWrapperINSt3__24pairIPK12PropertyInfoP11Il2CppClassEEEj17ReflectionMapHashIS8_ENS9_14EqualsComparerINS1_8equal_toIS8_EEEENS1_9allocatorINS2_IKS9_jEEEEE13set_empty_keyERSH_
Zk:_glRenderbufferStorage
c1o:_il2cpp_type_get_class_or_element_class
yIc:__Z45Register_UnityEngine_Input_get_touchSupportedv
HXd:__ZN11UnityEngine15PlatformWrapper28GetTextureFormatSupportFlagsEv
WKj:_Assembly_UnprotectedGetName_m600830855
F0h:_RemotingConfiguration_RegisterWellKnownClientType_m1237674062
vun:_Uri_EscapeString_m3864445955
iCd:_cf2_setError
r2:__ZN9AudioClip8TransferI18StreamedBinaryReadEEvRT_
pwp:__ZN6il2cpp6icalls8mscorlib6System10Reflection4Emit13ModuleBuilder17set_wrappers_typeEP29Il2CppReflectionModuleBuilderP20Il2CppReflectionType
M8b:__ZZ23InitPlayerLoopCallbacksvEN35PreUpdateSendMouseEventsRegistrator7ForwardEv
XQa:__ZNK6Camera25GetNormalizedViewportRectEP13RenderTextureb
zue:_Dropdown_Awake_m3140021404
U_a:__ZN13RenderTexture8TransferI24GenerateTypeTreeTransferEEvRT_
J9n:_Vector2_get_sqrMagnitude_m837837635
vpp:__ZN6il2cpp5utils11StringUtils15StringDuplicateEPKDsj
Wrn:_Regex_Match_m4145799399
Py:__ZN17AnimationPlayable17ProcessRootMotionEP35AnimationPlayableEvaluationConstantP32AnimationPlayableEvaluationInputP33AnimationPlayableEvaluationOutput
iim:__Z34Enumerator_VerifyState_m3474272061P22Enumerator_t2385380260PK10MethodInfo
Sjo:_TextGenerator_GetPreferredHeight_m3514897836
LKk:_BigInteger_LowestSetBit_m3082714978
JSp:b118
KSp:b119
bac:__ZNK8Material12GetPassCountEv
n7l:_RSAParameters_t1728406613_marshal_pinvoke
nln:_Interval_IsDisjoint_m1532171337_AdjustorThunk
GRp:b112
Qjo:_TextGenerator_Populate_Internal_m2493883622
FSp:b114
GSp:b115
HSp:b116
ISp:b117
FDo:__ZN30dense_hashtable_const_iteratorINSt3__24pairIK10KeyWrapperIN6il2cpp5utils13dynamic_arrayIPK10Il2CppTypeLj4EEEEPFvvEEESA_NS3_8metadata19Il2CppSignatureHashEN14dense_hash_mapISA_SD_SG_NSA_14EqualsComparerINSF_22Il2CppSignatureCompareEEENS0_9allocatorISE_EEE9SelectKeyESK_SM_E30advance_past_empty_and_deletedEv
vEf:__ZNK31OpCodes_t126150456_StaticFields10get_Ret_41Ev
dch:_LayoutUtility_GetFlexibleWidth_m22831835
kmg:_ArrayReadOnlyList_1_ReadOnlyError_m865416608_gshared
Tdm:_Enumerator__ctor_m40451936_AdjustorThunk
imc:__Z18AddGroupToWorkloadR26BlockRangeBalancedWorkloadjR13dynamic_arrayI10BlockRangeLj0EERS1_IjLj0EE
fAi:_CollectionBase_System_Collections_IList_get_Item_m3743372945
itk:_Evidence_GetEnumerator_m302914965
DAm:_Queue_1__ctor_m2068090025_gshared
Hlc:__Z23CullDynamicObjectsUmbraPK4AABBPKN5Umbra15OcclusionBufferER9IndexList
sYm:_SslStreamBase_RaiseRemoteCertificateValidation2_m2908038766
XHd:_tt_cmap4_char_next
dqe:_ColorTween_set_startColor_m2562993758_AdjustorThunk
Z7k:__Z50RuntimeInvoker_Boolean_t97287965_Int16_t2552820387PFvvEPK10MethodInfoPvPS4_
ZFg:__Z44InternalEnumerator_1_get_Current_m2907722321P31InternalEnumerator_1_t818507063PK10MethodInfo
wta:__ZN17DirectorFrameTime14ResetDSPValuesEv
L1i:_Convert_ToDecimal_m1233667008
g0d:__ZN22UnityAnalyticsSettings10SetEnabledEb
Lgn:__ZN26GUIScrollGroup_t152332902119set_calcMinWidth_27Ef
HY:__ZN4FMOD7Channel11setPositionEjj
$i:_glBindSampler
sup:_GC_reclaim_block
XLi:_ClientContext_get_ClientHelloProtocol_m1654639078
Nk:_glGetVertexAttribiv
RMl:_Enumerator_System_Collections_IEnumerator_get_Current_m1975949486_gshared
Q5d:__ZN9Scripting11UnityEngine12Experimental2XR19ReferencePointProxy9InitProxyEv
__e:__ZL110WebProxy_t2016760542_CustomAttributesCacheGenerator_WebProxy_t2016760542____UseDefaultCredentials_PropertyInfoP21CustomAttributesCache
Ahp:__ZN6il2cpp2gcL24ShouldInsertIntoCCWCacheEP12Il2CppObject
lbd:__ZN8JSONRead8TransferIbEEvRT_PKc17TransferMetaFlagsb
i$k:_TimeSpan_ToString_m1128692466
qBf:__ZNK31OpCodes_t126150456_StaticFields16get_Callvirt_110Ev
vWn:_AesManaged_CreateEncryptor_m2294080233
$Fl:_Array_Sort_TisRuntimeObject_TisRuntimeObject_m879120523_gshared
_s:__ZL67__ManagedRegistrationHelperFunction_AnimatorOverrideControllerProxyPv
MSk:_StringBuilder__ctor_m2367297767
p_k:_TimeSpan_get_Milliseconds_m3438015508
Kgl:__Z111RuntimeInvoker_Void_t1185182177_RuntimeObject_RuntimeObject_RuntimeObject_TimeSpan_t881159249_SByte_t1669577662PFvvEPK10MethodInfoPvPS4_
qCn:__Z30Predicate_1_Invoke_m2389850270P22Predicate_1_t58782443320UIVertex_t4057497605PK10MethodInfo
Isp:_GC_promote_black_lists
y$i:_Convert_ToChar_m3757390865
$bd:__Z29Transfer_Blittable_ArrayFieldI8JSONRead8Vector4fEvRT_R9ArrayInfoRK23StaticTransferFieldInfo
oo:FUNCTION_TABLE_vf
CHj:_Binder_GetDerivedLevel_m3216810447
lo:FUNCTION_TABLE_vd
so:FUNCTION_TABLE_vi
xga:__ZN13RuntimeStaticI37UnityShaderCompilerExtPluginConfigureLb0EE16StaticInitializeEPv
g5o:__ZN6il2cpp6icalls8mscorlib6System7Runtime15InteropServices7Marshal8ReadByteEii
Qbp:__ZN24dense_hashtable_iteratorINSt3__24pairIK10KeyWrapperINS1_IPKcS4_EEEiEES6_24NamespaceAndNamePairHashN14dense_hash_mapIS6_iS9_NS6_14EqualsComparerI26NamespaceAndNamePairEqualsEENS0_9allocatorIS8_EEE9SelectKeyESD_SF_EC2EPK15dense_hashtableIS8_S6_S9_SH_SD_SF_EPS8_SN_b
rTk:_StringBuilder_AppendFormat_m2403596038
Ugg:_DSASignatureDeformatter_SetHashAlgorithm_m3186995552
IPm:_ReadOnlyCollection_1_System_Collections_Generic_ICollectionU3CTU3E_Clear_m2772202961_gshared
wAm:__Z29Enumerator_Dispose_m277244561P22Enumerator_t1862690208PK10MethodInfo
EVk:_UnicodeEncoding_GetString_m332467280
H9n:_Vector2_Equals_m1313188271_AdjustorThunk
FU:__ZNK8Animator17HasBoundPlayablesEv
dsd:__ZN17Physics2DSettings8TransferI24GenerateTypeTreeTransferEEvRT_
Xcd:__ZN5Unity9rapidjson13GenericReaderINS0_4UTF8IcEES3_13JSONAllocatorE10ParseFalseILj0ENS0_19GenericStringStreamIS3_EENS0_15GenericDocumentIS3_S4_S4_EEEEvRT0_RT1_
NXk:_SynchronizationContext_SetSynchronizationContext_m1249070039
roe:_CanvasUpdateRegistry_IsRebuildingGraphics_m1904586840
bEa:__ZN9Scripting11UnityEngine9Playables13PlayableProxy12CleanupProxyEv
Gvm:_List_1_AddEnumerable_m1267044261_gshared
wcl:__Z99RuntimeInvoker_Void_t1185182177_RuntimeObject_Int32_t2950945753_SByte_t1669577662_SByte_t1669577662PFvvEPK10MethodInfoPvPS4_
PMo:__ZN6il2cpp2vm7Runtime9SetConfigEPKc
ydd:__ZN5Unity9rapidjson12PrettyWriterI16TempBufferWriterNS0_4UTF8IcEES4_13JSONAllocatorE10StartArrayEv
Qa:invoke_iiifiii
IFn:_UnityAction_1_Invoke_m927447181_gshared
w5o:__ZN6il2cpp2vm9Exception11FromNameMsgEPK11Il2CppImagePKcS6_S6_
rn:FUNCTION_TABLE_fiiifii
Djo:__ZNK25TextGenerator_t321186386620get_m_HasGenerated_3Ev
YT:__ZN10HumanTrait15InitializeClassEv
rua:__Z14GetTimeManagerv
Evh:_Color32_op_Implicit_m213813866
BOh:_RectOffset_set_top_m713260669
iKc:__ZneRK20SpriteTilingPropertyS1_
FRb:__Z19TransferField_ArrayI18StreamedBinaryRead27Converter_SimpleNativeClassI8GUIStyleEEvRK23StaticTransferFieldInfoR31RuntimeSerializationCommandInfoRT0_
g2d:__ZN19TransportJavaScript7CleanupEv
wQc:__Z12GUIDToStringRK9UnityGUIDPc
Zpa:__ZN15FileSystemEntry4LockE12FileLockModeP12FileAccessor
Pep:__ZN6il2cpp8metadata15GenericMetadata17InflateParametersEPK13ParameterInfohPK20Il2CppGenericContextb
ARp:_emscripten_glDrawArrays__wrapper
qJ:__ZN18StreamedBinaryRead8TransferIN7mecanim9animation12StreamedClipEEEvRT_PKc17TransferMetaFlags
nml:__Z110RuntimeInvoker_Int32_t2950945753_Int32_t2950945753_Int32_t2950945753_Int32U26_t1369213839_Int32U26_t1369213839PFvvEPK10MethodInfoPvPS4_
c$m:_TlsException__ctor_m3717683709
sQg:_Enumerator_get_CurrentKey_m2230405065_gshared
sCo:__ZN6il2cpp2vm13MetadataCache8RegisterEPK22Il2CppCodeRegistrationPK26Il2CppMetadataRegistrationPK20Il2CppCodeGenOptions
JQf:_MonoMethod__ctor_m2104049215
rr:__Z9SetLocalR15TransformAccessRKN4math7_float4Ey
TF:__ZN11UnityEngine9Animation20IsDiscreteIntBindingE4PPtrI10MonoScriptERKN4core12basic_stringIcNS4_20StringStorageDefaultIcEEEEPKN5Unity4TypeE
Ewn:_Uri_get_Query_m2772518875
UYc:__Z41Register_UnityEngine_Cursor_get_lockStatev
OWo:__ZN14dense_hash_mapI10KeyWrapperIPK14Il2CppAssemblyEPK22Il2CppMonoAssemblyNameN6il2cpp5utils11PointerHashIS2_EENS4_14EqualsComparerINSt3__28equal_toIS3_EEEENSD_9allocatorINSD_4pairIKS4_S7_EEEEE13set_empty_keyERSJ_
ewd:__ZN9Scripting11UnityEngine14CollisionProxy9InitProxyEv
b0a:__ZL20InitializeGUIShadersv
PGc:__Z20DestroyObjectDelayedP6Objectf
hea:__ZN20DynamicHeapAllocatorI17LowLevelAllocatorED0Ev
_5c:__Z45Register_UnityEngine_GUIUtility_set_mouseUsedv
vqd:__ZN10ClipperLib11ClipperBase5ResetEv
ZWd:__ZN11UnityEngine9Analytics14AppUpdateEventC2Ev
Mdc:__ZN9DepthPassD2Ev
kVg:__Z34Enumerator_get_Current_m1672918677P21Enumerator_t934104361PK10MethodInfo
jOn:_CoinMod2_Update_m2137422356
iY:__ZN11AudioFilter6GetDSPEv
cwh:_Cubemap__ctor_m1096546642
vmh:_Scrollbar_OnDrag_m4289602768
kka:__ZN19RuntimeSceneManager14CanUnloadSceneEP10UnityScene
Qdc:__Z22ExtractRenderNodeQueueRK11CullResults15ExtractionFlagsR15RenderNodeQueue
$0j:__ZN6Guid_t8set__f_5Eh
uOo:__ZN24dense_hashtable_iteratorINSt3__24pairIK10KeyWrapperINS1_IPK14Il2CppAssemblyP11Il2CppClassEEEjEES9_17ReflectionMapHashIS8_EN14dense_hash_mapIS9_jSD_NS9_14EqualsComparerINS0_8equal_toIS8_EEEENS0_9allocatorISB_EEE9SelectKeyESI_SK_EC2EPK15dense_hashtableISB_S9_SD_SM_SI_SK_EPSB_SS_b
kyd:__ZN18StreamedBinaryRead21TransferSTLStyleArrayI10vector_mapINSt3__24pairIttEEfN20TextRenderingPrivate8FontImpl14KerningCompareENS2_9allocatorINS3_IS4_fEEEEEEEvRT_17TransferMetaFlags
d$:__ZN24AudioScriptBufferManagerC2Ev
Hed:__ZN11UnityEngine9Analytics18SceneLoadTimeEvent12ToJsonStringER9JSONWrite
Zid:__ZN22FindParticleCollisions22ProcessFoundCollisionsERKfRK13dynamic_arrayI15BatchedRaycastsLj0EERS2_I20BatchedRaycastResultLj0EERS2_I21BatchedColliderResultLj0EE
czd:__ZNSt3__26vectorIh13stl_allocatorIhL18MemLabelIdentifier1ELi16EEE8__appendEj
xGg:_InternalEnumerator_1_System_Collections_IEnumerator_get_Current_m3854084659_AdjustorThunk
mlc:__ZL42CullShadowCastersDetailDirectionalThreadedR20ShadowCullingJobDataR10BlockRangei
N1g:_OnValidateInput_Invoke_m1009124904
Wkg:_U3CGetEnumeratorU3Ec__Iterator0_System_Collections_IEnumerator_get_Current_m283764921_gshared
oPp:_glGetIntegerv__wrapper
Y6c:__Z18Transfer_BlittableI9JSONWriteLb0EfEvRK29SerializationCommandArgumentsR31RuntimeSerializationCommandInfo
K_a:__Z21GetAsyncUploadManagerv
Xf:_emscripten_glDetachShader
grl:__Z129RuntimeInvoker_Int32_t2950945753_Vector3U26_t3464235976_Vector3U26_t3464235976_Single_t1397266774_Int32_t2950945753_RuntimeObjectPFvvEPK10MethodInfoPvPS4_
DKc:__Z18RegisterUnityClassI15ResourceManagerEvPKc
Zfb:__ZN17GenericDynamicVBO20ReleaseChunkInternalERK21DynamicVBOChunkHandlejj
LMd:__ZL27CleanupModule_TextRenderingv
nMj:_AssemblyName_GetObjectData_m1516383869
XRk:_SymmetricTransform_OFB_m3842617151
avh:_Color__ctor_m286683560
E6f:__ZNK31OpCodes_t126150456_StaticFields13get_Ldarg_2_4Ev
Gnn:_PatternCompiler_Emit_m1540115729
gGd:_ps_get_standard_strings
ihc:__Z27SetupBakedOcclusionForLightbRK15SharedLightDataR17ShaderPassContext
OLh:_PropertyName_op_Implicit_m1633828199
PI:__ZN24GenerateTypeTreeTransfer8TransferIN13AnimationClip9PPtrCurveEEEvRT_PKc17TransferMetaFlags
MCk:_EncoderFallbackException__ctor_m1051987327
nQi:_Context_set_RandomSC_m2364786761
TKk:_BigInteger_ToString_m3278248272
gxl:__Z98RuntimeInvoker_Int32_t2950945753_RaycastResult_t3360306849_RaycastResult_t3360306849_RuntimeObjectPFvvEPK10MethodInfoPvPS4_
sch:_Mask__ctor_m1269055150
sRa:__ZN8Material25AcquireSharedMaterialDataEv
mnj:_WebRequest_AddPrefix_m3187775913
kTb:__ZN14SafeBinaryRead22TransferWithTypeStringI9TextAssetEEvRT_PKcS5_17TransferMetaFlags
Oac:__Z18RenderImageFiltersR10RenderLoopb
$Sd:__Z43CanvasRenderer_Get_Custom_PropMaterialCountP12Il2CppObject
shc:__ZNSt3__227__insertion_sort_incompleteIR23CompareReflectionProbesP31RuntimeReflectionProbeBlendInfoEEbT0_S5_T_
Erm:_List_1_Remove_m1457733883_gshared
N$i:_DateTime_IsLetter_m156019844
MH:__ZNSt3__26vectorIN13AnimationClip10FloatCurveE13stl_allocatorIS2_L18MemLabelIdentifier26ELi16EEE6assignINS_11__wrap_iterIPS2_EEEENS_9enable_ifIXaasr21__is_forward_iteratorIT_EE5valuesr16is_constructibleIS2_NS_15iterator_traitsISC_E9referenceEEE5valueEvE4typeESC_SC_
gnb:__ZN30RuntimeInitializeOnLoadManager15ClassMethodInfo8TransferI19StreamedBinaryWriteEEvRT_
Nfd:__ZN9Scripting11UnityEngine15Collider2DProxy12CleanupProxyEv
gzo:__ZN15dense_hashtableINSt3__24pairIK10KeyWrapperIPKcEP11Il2CppClassEES5_N6il2cpp5utils11StringUtils12StringHasherIS4_EEN14dense_hash_mapIS5_S8_SE_NS5_14EqualsComparerINSB_13VmStringUtils21CaseSensitiveComparerEEENS0_9allocatorIS9_EEE9SelectKeyESJ_SL_E21fill_range_with_emptyEPS9_SP_
JPf:_MonoEventInfo_GetEventInfo_m873645389
Uep:__ZNK14dense_hash_setI10KeyWrapperIP18Il2CppGenericClassEN6il2cpp8metadata22Il2CppGenericClassHashENS3_14EqualsComparerINS5_25Il2CppGenericClassCompareEEENSt3__29allocatorIS3_EEE4findERKS3_
rGi:_MD4Managed_Encode_m386285215
jqa:__ZN10InputEventD2Ev
lNe:__ZL64OperandType_t2622847887_CustomAttributesCacheGenerator_InlinePhiP21CustomAttributesCache
JQg:_Enumerator_MoveNext_m3398155861_AdjustorThunk
HOc:__ZN24CompressedAnimationCurve18DecompressTimeKeysI11QuaternionfEEvR17AnimationCurveTplIT_E
kv:__ZN7mecanim4hand8HandPoseC2Ev
U0d:__ZN22UnityWebRequestManagerD2Ev
_6m:_Event_get_character_m1666742088
nyn:__ZN23GenericVirtFuncInvoker2Ii22RaycastHit_t1056001966S0_E6InvokeEPK10MethodInfoP12Il2CppObjectS0_S0_
DWb:__Z20SetPlayerPauseDirect11PlayerPause
xKp:dynCall_viifiii
PDp:_isalpha
ENd:__ZN9Scripting11UnityEngine8Tilemaps9TileProxy9InitProxyEv
u$i:_Convert_ToChar_m1442101407
RCc:__ZZL31RegisterRectTransformPropertiesR22GenericPropertyBindingEN28Wrapper_RectTransformPivoty113SetFloatValueEPvf
ugd:__ZNK12b2MotorJoint17GetReactionTorqueEf
L8i:_DateTimeOffset_get_Offset_m2040541042_AdjustorThunk
FJ:__ZN24CompressedAnimationCurve8TransferI19StreamedBinaryWriteEEvRT_
wJo:__ZN6il2cpp2vmL17IsSocketAsyncCallEP14Il2CppDelegate
Np:__ZN9Scripting11UnityEngine2AI23NavMeshBuildSourceProxy12CleanupProxyEv
q7g:_Selectable_get_image_m1928917691
fAa:__ZL52__ManagedRegistrationHelperFunction_FixedUpdateProxyPv
uVb:__ZN17PersistentManager9AddStreamEv
Eca:__GLOBAL__sub_I_Runtime_Containers_0_cpp
Dm:_time
Ope:_ContentSizeFitter_set_verticalFit_m1831566876
Rqk:_TripleDESCryptoServiceProvider_CreateDecryptor_m740960117
fsl:__Z122RuntimeInvoker_Void_t1185182177_Color_t2555686324_Single_t1397266774_SByte_t1669577662_SByte_t1669577662_SByte_t1669577662PFvvEPK10MethodInfoPvPS4_
X0k:_Type_GetPropertyImplInternal_m2444270063
UDh:_Material_EnableKeyword_m329692301
XCd:_cf2_stack_free
epk:_SHA512Managed_HashCore_m2377807474
cO:__Z8WrapTimefRKNSt3__24pairIffEE8WrapMode
CXj:_CompareInfo_IndexOf_m667936183
iwm:_List_1__ctor_m2203182218_gshared
Cy:__ZN7mecanim9animation19EvaluateFloatValuesEPKNS0_18ClipMuscleConstantEPKNS_18ValueArrayConstantEPKNS0_12ClipBindingsEPKNS0_10ClipOutputEPNS0_18AnimationNodeStateEfbb
tNh:_Rect_get_min_m847841034_AdjustorThunk
V6b:__ZN26SinglePassStereoSupportExt18AfterSetViewMatrixEv
Dth:_Bounds__ctor_m1937678907_AdjustorThunk
RRh:_SetupCoroutine_InvokeMember_m2661944898
ICh:_Input_GetAxisRaw_m2316819917
cIo:__ZL11UnityPalAddPVii
q3m:_DeriveBytes__cctor_m3019062497
CF:__Z22AddCurveToStreamedClipI11QuaternionfEvP19StreamedClipBuilderiRK17AnimationCurveTplIT_E
gcg:_RuntimeTypeHandle_GetHashCode_m3999856879_AdjustorThunk
snc:__ZN13RenderTexture19SetAutoGenerateMipsEb
NYa:__Z20GetTextureFormatInfo13TextureFormat
qhj:_TypeConverterAttribute_Equals_m1580461255
LIi:_RSAManaged_ToXmlString_m2369501989
vB:__ZN26AnimatorControllerPlayable8GetFloatEiRf
B9i:_Decimal_System_IConvertible_ToUInt64_m1323635232_AdjustorThunk
USb:__ZNK35ScriptingManagedObjectProxyRegistry11InitProxiesEv
dQd:__ZN2UI14CanvasRenderer13AwakeFromLoadE17AwakeFromLoadMode
uGe:__ZL64String_t_CustomAttributesCacheGenerator_String_Split_m3580120853P21CustomAttributesCache
ksk:_String_memcpy4_m979367827
Ubn:__ZNK22TextEditor_t275985536621get_m_DblClickSnap_17Ev
Zxp:__ZN6il2cpp5utils10MemoryPool6MallocEj
AY:__ZN11SoundHandle8InstanceD2Ev
QWf:_ResourceEnumerator_Reset_m3754276504
COd:__ZN31CanvasBatchIntermediateRenderer13StaticDestroyEPv
Xan:_TextEditor_SelectToStartOfNextWord_m1653431915
fmb:__ZN18StreamedBinaryRead21TransferSTLStyleArrayI10vector_mapIPKN5Unity4TypeE7Hash128NSt3__24lessIS5_EENS7_9allocatorINS7_4pairIS5_S6_EEEEEEEvRT_17TransferMetaFlags
uIf:__ZN31OpCodes_t126150456_StaticFields10set_Shl_97E17OpCode_t123070264
J1b:__ZNSt3__26__treeI17DeviceRasterState14MemoryCompLessIS1_ENS_9allocatorIS1_EEE25__emplace_unique_key_argsIS1_JS1_EEENS_4pairINS_15__tree_iteratorIS1_PNS_11__tree_nodeIS1_PvEEiEEbEERKT_DpOT0_
yEo:__ZN14dense_hash_mapI10KeyWrapperIN6il2cpp5utils13dynamic_arrayIPK10Il2CppTypeLj4EEEEPFvvENS1_8metadata19Il2CppSignatureHashENS8_14EqualsComparerINSB_22Il2CppSignatureCompareEEENSt3__29allocatorINSG_4pairIKS8_SA_EEEEED2Ev
iPh:_RectTransform_set_pivot_m909387058
BHo:__ZN14dense_hash_mapI10KeyWrapperIP9FieldInfoEiN6il2cpp5utils11PointerHashIS1_EENS3_14EqualsComparerINSt3__28equal_toIS2_EEEENS9_9allocatorINS9_4pairIKS3_iEEEEE6insertERKSG_
u6f:_ObjectWriter_CreateMemberTypeMetadata_m577610186
ion:_PatternCompiler_EmitRepeat_m697083858
hfe:__ZN28PointerEventData_t380790109236set_U3CpositionU3Ek__BackingField_12E19Vector2_t2156229523
nNo:__ZN6il2cpp2vm7Runtime47RaiseExecutionEngineExceptionIfMethodIsNotFoundEPK10MethodInfoPK19Il2CppGenericMethod
COp:b80
cxb:__ZN25MultiBlocksMemoryFileData5WriteEyyPKv
nhd:__ZNK13b2PulleyJoint16GetReactionForceEf
OUo:__ZNSt3__218uninitialized_fillIPNS_4pairIK10KeyWrapperINS1_IPK12PropertyInfoP11Il2CppClassEEEjEESB_EEvT_SD_RKT0_
hBf:__ZNK31OpCodes_t126150456_StaticFields15get_Ldtoken_174Ev
lKo:__ZN6il2cpp6icalls8mscorlib6System8MonoType12GetArrayRankEP20Il2CppReflectionType
Rpi:_Array_get_LongLength_m978104875
F3b:__ZL17ProgramUniform2fvPK7ApiGLESjiihPKv
WOn:__Z47Array_Sort_TisGameObject_t1113636619_m169164030P12Il2CppObjectP28GameObjectU5BU5D_t3328599146P23Comparison_1_t888567798PK10MethodInfo
_yd:__ZN20TextRenderingPrivate8FontImpl21HasCharacterInTextureEjijfPj
dqo:__ZL6add128yyyyPyS_
zUh:_Transform_SetAsFirstSibling_m253439912
f7i:_DateTime_System_IConvertible_ToUInt16_m4182197229_AdjustorThunk
eln:_Interval_get_IsDiscontiguous_m3016063288
OFp:_htonl
e1b:__Z20GetBufferManagerGLESv
R6m:_Event__ctor_m3316259149
ZYe:__ZL65NonSerializedAttribute_t2945079482_CustomAttributesCacheGeneratorP21CustomAttributesCache
s9a:__ZN9Texture2D23VirtualRedirectTransferER19StreamedBinaryWrite
jad:__Z18Transfer_BlittableI8JSONReadLb0EtEvRK29SerializationCommandArgumentsR31RuntimeSerializationCommandInfo
OVo:__ZN15dense_hashtableINSt3__24pairIK10KeyWrapperINS1_IPK9EventInfoP11Il2CppClassEEEjEES9_17ReflectionMapHashIS8_EN14dense_hash_mapIS9_jSD_NS9_14EqualsComparerINS0_8equal_toIS8_EEEENS0_9allocatorISB_EEE9SelectKeyESI_SK_E12expand_arrayEjN21dense_hash_map_traits17integral_constantIbLb0EEE
kBg:_InternalEnumerator_1_Dispose_m469889800_AdjustorThunk
UYj:_CultureInfo_CreateCulture_m1493441763
Jqk:_TripleDES_IsWeakKey_m2147489852
I4d:__ZN9Scripting11UnityEngine5Video20VideoRenderModeProxy12CleanupProxyEv
Bhp:__ZN6il2cpp2gcL10CleanupCCWEPvS1_
hC:__ZN34AnimationStateMachineMixerPlayable13EndTransitionEv
sX:__ZN12AudioManager21FixMasterGroupRoutingEv
zfb:__ZNK19ShaderPropertySheet11HasPropertyERKN9ShaderLab16FastPropertyNameE
vtd:__ZN6b2Body9SetActiveEb
_kf:__ZL96Canvas_t3310196443_CustomAttributesCacheGenerator_Canvas_t3310196443____worldCamera_PropertyInfoP21CustomAttributesCache
SHp:__ZNK10__cxxabiv122__base_class_type_info16search_above_dstEPNS_19__dynamic_cast_infoEPKvS4_ib
Yul:__Z81RuntimeInvoker_Boolean_t97287965_NavigationU26_t1807167253_Navigation_t3049316579PFvvEPK10MethodInfoPvPS4_
rRp:_emscripten_glUniform1fv__wrapper
Bsb:__ZN2UI13RectTransform19SetAnchoredPositionERK8Vector2f
Lhd:__ZN12b2MouseJointC2EPK15b2MouseJointDef
Kdk:_Array_InternalArray__ICollection_Contains_TisResourceInfo_t2872965302_m2530260012_gshared
mte:_Dropdown_RefreshShownValue_m2806045241
OGb:__Z18Transfer_BlittableI14SafeBinaryReadLb1E4AABBEvRK29SerializationCommandArgumentsR31RuntimeSerializationCommandInfo
Oip:__ZN6il2cpp6icalls8mscorlib6System4Enum12get_hashcodeEP12Il2CppObject
ewp:_GC_set_no_dls
Noe:_ColorBlock_set_normalColor_m254595671_AdjustorThunk
U4k:_UnauthorizedAccessException__ctor_m40101894
hNm:__ZN18VirtActionInvoker2Ii17Score_t1179825972E6InvokeEjP12Il2CppObjectiS0_
YDg:_InternalEnumerator_1_get_Current_m1007906068_gshared
bup:_GC_block_empty
Oxo:__ZN15dense_hashtableINSt3__24pairIK10KeyWrapperIPK11Il2CppClassEPKcEES6_N6il2cpp5utils11PointerHashIS3_EEN14dense_hash_mapIS6_S9_SE_NS6_14EqualsComparerINS0_8equal_toIS5_EEEENS0_9allocatorISA_EEE9SelectKeyESJ_SL_E15set_deleted_keyERKSA_
wZd:__ZN11UnityEngine9Analytics15AnalyticsConfig12EventsConfig8TransferI8JSONReadEEvRT_
gyi:_SimpleEnumerator_Reset_m1520014659
H2:__ZN9AudioClip7WWWOpenEPKciPjPPvS4_
_Ca:__ZN9Scripting11UnityEngine9Rendering18ShaderKeywordProxy9InitProxyEv
FGb:__Z18Transfer_BlittableI14SafeBinaryReadLb0E8Vector2fEvRK29SerializationCommandArgumentsR31RuntimeSerializationCommandInfo
PK:__ZN21AnimationHandleBinder25WritePropertySceneHandlesEv
HPi:_Context_set_ProtocolNegotiated_m2904861662
Mbp:__ZN15dense_hashtableINSt3__24pairIK10KeyWrapperINS1_IPKcS4_EEEiEES6_24NamespaceAndNamePairHashN14dense_hash_mapIS6_iS9_NS6_14EqualsComparerI26NamespaceAndNamePairEqualsEENS0_9allocatorIS8_EEE9SelectKeyESD_SF_E12resize_deltaEjj
UP:__ZN11UnityEngine9Animation26CreateAnimationSetBindingsERK13dynamic_arrayI4PPtrI13AnimationClipELj0EER20RuntimeBaseAllocator
FWh:_RemotingServices_GetRemoteObject_m2117098022
jlo:_CanvasRenderer_SetTexture_m1600559835
ZJm:_Collection_1_System_Collections_IList_IndexOf_m4256072926_gshared
mbl:__Z132RuntimeInvoker_Boolean_t97287965_RuntimeObject_Int32_t2950945753_Int32_t2950945753_RuntimeObject_Int32_t2950945753_Int32_t2950945753PFvvEPK10MethodInfoPvPS4_
tIc:__Z53Register_UnityEngine_Input_INTERNAL_get_mousePositionv
Y0b:__ZN7ApiGLES12DrawElementsE16GfxPrimitiveTypePKvjjjj
nQk:_EncryptedPrivateKeyInfo_get_Salt_m3453455261
S$i:_DateTime__ParseNumber_m1240316250
Kcd:__ZN8JSONRead21TransferSTLStyleArrayI13dynamic_arrayIfLj0EEEEvRT_17TransferMetaFlags
Mwk:_Single_System_IConvertible_ToSingle_m1939829239_AdjustorThunk
UYd:__ZN11UnityEngine9Analytics18ConnectSessionInfo12ToJsonStringEN4core12basic_stringIcNS2_20StringStorageDefaultIcEEEERS6_
ATk:_UTF32Encoding_GetByteCount_m3787179419
kK:__ZN11UnityEngine9Animation31SetHumanTransformPropertyValuesERKNS0_21AvatarBindingConstantERKN7mecanim8skeleton13SkeletonPoseTIN4math4trsXEEEby
tda:__GLOBAL__sub_I_Runtime_Utilities_6_cpp
uvg:_InternalEnumerator_1_get_Current_m3839250771_gshared
k4a:__ZN16SpriteRenderData8TransferI18StreamedBinaryReadEEvRT_
ptd:__ZN11Rigidbody2D12SetSimulatedEbb
hYj:_CultureInfo_get_TextInfo_m2342840448
WPg:__Z36Enumerator_VerifyCurrent_m2197239943P22Enumerator_t3923002270PK10MethodInfo
Fif:__ZL89GUIStyle_t3956901511_CustomAttributesCacheGenerator_GUIStyle_GetRectOffsetPtr_m2881421249P21CustomAttributesCache
TAo:__ZN14dense_hash_setI10KeyWrapperIPK17Il2CppGenericInstEN6il2cpp8metadata21Il2CppGenericInstHashENS4_14EqualsComparerINS6_24Il2CppGenericInstCompareEEENSt3__29allocatorIS4_EEED2Ev
Bd:_SDL_GetTicks
zaj:_Delegate_GetCandidateMethod_m640765260
LRd:__ZN2UI14CanvasRenderer11SyncCullingENS0_8SyncFlagE
QSo:__ZN15dense_hashtableINSt3__24pairIK10KeyWrapperINS1_IPK11Il2CppImageP11Il2CppClassEEEjEES9_17ReflectionMapHashIS8_EN14dense_hash_mapIS9_jSD_NS9_14EqualsComparerINS0_8equal_toIS8_EEEENS0_9allocatorISB_EEE9SelectKeyESI_SK_E6insertERKSB_
IK:__ZN8Animator24SortJobsBasedOnHierarchyERK13dynamic_arrayINS_11AnimatorJobELj0EERS0_IS2_Lj0EE
ilc:__Z21CreateShadowCullerJobP30CreateUmbraShadowCullerJobData
mTm:_ReadOnlyCollection_1_System_Collections_Generic_ICollectionU3CTU3E_Remove_m4072504734_gshared
x3b:__ZL18ProgramUniform2uivPK7ApiGLESjiihPKv
kcm:__Z59Enumerator_System_Collections_IEnumerator_Reset_m3610746034P22Enumerator_t3649184329PK10MethodInfo
zhe:__Z29Dictionary_2_Clear_m316481326P24Dictionary_2_t2696614423PK10MethodInfo
rhh:_DelegatePInvokeWrapper_GetRayIntersectionAllNonAllocCallback_t2311174851
Z2l:_GenericEqualityComparer_1_Equals_m3212906882_gshared
x4:__Z36AudioSource_Get_Custom_PropIsPlayingP12Il2CppObject
J_k:_TimeSpan_Compare_m753151303
lAb:__ZN9GfxDevice16DynamicBatchMeshERK10Matrix4x4fPKhjjPKtj26GfxTransformVerticesParams25GfxTransformVerticesFlagsj
EJb:__Z29Transfer_Blittable_ArrayFieldI14SafeBinaryRead9BoundsIntEvRT_R9ArrayInfoRK23StaticTransferFieldInfo
PHl:__ZN31RaycastResultU5BU5D_t112883244414SetAtUncheckedEj25RaycastResult_t3360306849
cCd:_cf2_computeDarkening
gXg:_Enumerator_MoveNext_m4130971055_AdjustorThunk
fmo:_AnimationLayerMixerPlayable__ctor_m860721801_AdjustorThunk
BRf:_MonoPropertyInfo_get_property_info_m1599555644
Bfg:_DESTransform_CipherFunct_m3527261721
dtp:_GC_expand_hp_inner
yzo:__ZN15dense_hashtableINSt3__24pairIK10KeyWrapperIP9FieldInfoEiEES5_N6il2cpp5utils11PointerHashIS3_EEN14dense_hash_mapIS5_iSB_NS5_14EqualsComparerINS0_8equal_toIS4_EEEENS0_9allocatorIS7_EEE9SelectKeyESG_SI_E14squash_deletedEv
iGc:__ZZN8Renderer15InitializeClassEvEN28FunctorImpl_148kLayerChanged4CallEPviR11MessageData
ec:invoke_viiiififfi
dWc:__Z25Screen_Get_Custom_PropDpiv
mgp:___cxx_global_var_init_43274
MTa:__Z26TransformVerticesInnerLoopILb0ELb0ELb0EEvPhRK10Matrix4x4fRK10Matrix3x3fbjPKhiS8_ii25GfxTransformVerticesFlagsj
ipp:__ZN4utf812find_invalidIPKcEET_S3_S3_
A3j:_BinaryWriter_Flush_m1376465554
M5g:_InputField_OnEndDrag_m4127187089
UVm:_ReadOnlyCollection_1_System_Collections_IList_RemoveAt_m2555465054_gshared
LJe:__ZL72RuntimeCompatibilityAttribute_t1169614002_CustomAttributesCacheGeneratorP21CustomAttributesCache
$kc:__Z59ProcessShadowCasterNodeVisibilityAndCullWithoutUmbra_KernelILN17CullingParameters9LayerCullE2ELi8EEvR9IndexListRK22SceneCullingParametersPK9SceneNodePK4AABBjjPKN4math7_float4E
Ebj:_StackFrame__ctor_m343464319
M9:__ZN11UnityEngine15CloudWebService20WebRequestRestClient7PrepareEv
tQf:_MonoField_CheckGeneric_m453069507
u9f:_MessageFormatter_IsInternalKey_m3679497458
Uyd:__ZN20TextRenderingPrivate19NativeTextGenerator23FixLineHorizontalOffsetEiii
f6c:__Z54Register_UnityEngine_GUIUtility_Internal_SetHotControlv
p3f:_ObjectReader_ReadArrayOfString_m3550800559
MFj:_MonoCustomAttrs_GetCustomAttributesInternal_m648304078
mNp:_emscripten_glDepthRange__wrapper
lyb:__ZN16MemoryFileSystem4OpenER13FileEntryData14FilePermission16FileAutoBehavior
tXj:_CompareInfo_GetSortKey_m1915852346
AKd:_ft_var_load_avar
Lua:__ZN13RuntimeStaticI13RendererSceneLb0EE13StaticDestroyEPv
hMg:_DefaultComparer_Compare_m1297750557_gshared
xMi:_CipherSuiteCollection_get_Item_m3790183696
KMb:__Z18Transfer_BlittableI24GenerateTypeTreeTransferLb1E12PropertyNameEvRK29SerializationCommandArgumentsR31RuntimeSerializationCommandInfo
r0n:_Toggle_OnEnable_m1421694809
Slb:__ZN14SafeBinaryRead21TransferSTLStyleArrayI10vector_mapIPKN5Unity4TypeE7Hash128NSt3__24lessIS5_EENS7_9allocatorINS7_4pairIS5_S6_EEEEEEEvRT_17TransferMetaFlags
G2:__ZN9AudioClip18GetQueuedAudioDataEPPvj
zMd:__ZN20TextRenderingPrivate21TextMeshGeneratorImpl14GarbageCollectEv
Gnd:__ZN25b2SynchronizeFixturesTask19CreateDeferredMovesEv
dAc:__ZNK9Texture2D17CheckHasPixelDataEv
ynd:__ZN15b2ContactSolver13StoreImpulsesEv
wdc:__Z18SetShadowsKeywordsR17ShaderPassContext9LightType10ShadowType16ShadowProjectionbb
wAe:_Graphic_GetPixelAdjustedRect_m3729397999
eZo:__ZN14dense_hash_mapI10KeyWrapperINSt3__24pairIPK12PropertyInfoP11Il2CppClassEEEj17ReflectionMapHashIS8_ENS9_14EqualsComparerINS1_8equal_toIS8_EEEENS1_9allocatorINS2_IKS9_jEEEEEC2EjRKSB_RKSF_
NDc:__ZN17CollisionMeshDataC2Ev
ZYf:_Marshal_Copy_m1222846562
Bzc:__ZL24FindBelongingStructParamRPKcRNSt3__26vectorIN9ShaderLab20SerializedSubProgram14ConstantBufferENS2_9allocatorIS6_EEEE
tZi:_Stack_Resize_m3124769495
Pwa:__ZN6prcoreL17RemapGenericFloatI18TexFormatRGBAFloat17TexFormatRGBAHalfEEvPKNS_9InnerInfoE
_0b:__ZN7ApiGLES20SetVertexArrayAttribEjj12VertexFormathjPKv
Ztp:_GC_push_next_marked
Opb:__ZN18IDCollectorFunctor18GenerateInstanceIDEi17TransferMetaFlags
v2d:__ZN29UnityWebRequestAsyncOperation11GetProgressEv
cLl:_GameObject_GetComponent_TisRuntimeObject_m2049753423_gshared
xnd:__ZN15b2ContactSolver9WarmStartEv
Xio:_TextGenerationSettings_Equals_m3618607189_AdjustorThunk
yNf:_FieldInfo_get_UMarshal_m1217454798
Cgj:_NameObjectCollectionBase_BaseAdd_m3437748750
f0k:_Type_internal_from_handle_m3156085815
$1o:__ZN6il2cpp2vm6Thread8SetStateEP12Il2CppThreadNS0_11ThreadStateE
rBh:__ZN37SupportedRenderingFeatures_t35389866359set_U3CrendererSupportsReflectionProbesU3Ek__BackingField_9Eb
vRm:_ReadOnlyCollection_1_System_Collections_Generic_ICollectionU3CTU3E_Add_m69722965_gshared
Ejk:_Array_InternalArray__IndexOf_TisColor32_t2600501292_m3783551884_gshared
GJf:__ZN31OpCodes_t126150456_StaticFields19set_Conv_Ovf_I1_163E17OpCode_t123070264
uV:__GLOBAL__sub_I_AssetBundleScriptingClasses_cpp
poa:__ZNSt3__27__sort4IRNS_6__lessI14ObjectLoadDataS2_EEPS2_EEjT0_S6_S6_S6_T_
hqp:___cxx_global_var_init_43872
MBa:__ZL50__ManagedRegistrationHelperFunction_Texture3DProxyPv
isp:__ZN6il2cpp8metadataL7CompareIjEEiRKT_S4_
cjh:_ScrollRect_get_rectTransform_m2442061719
LFo:__ZNK15dense_hashtableINSt3__24pairIK10KeyWrapperIPK11Il2CppClassEPKcEES6_N6il2cpp5utils11PointerHashIS3_EEN14dense_hash_mapIS6_S9_SE_NS6_14EqualsComparerINS0_8equal_toIS5_EEEENS0_9allocatorISA_EEE9SelectKeyESJ_SL_E12test_deletedEj
lMc:__Z22PlayableValidityChecksRK9HPlayableb
G1e:__ZL57AnimationCurve_t3046754366_CustomAttributesCacheGeneratorP21CustomAttributesCache
lnb:__ZN15ResourceManagerD2Ev
u3l:__Z59Enumerator_System_Collections_IEnumerator_Reset_m3289381690P22Enumerator_t3350232909PK10MethodInfo
Dyh:_InvokableCall__ctor_m2158562079
drb:__ZN15CacheWriterBase18GetAddressOfMemoryEv
e6f:_ObjectWriter_RegisterAssembly_m1967120293
rad:__Z18Transfer_BlittableI8JSONReadLb1E5RectTIiEEvRK29SerializationCommandArgumentsR31RuntimeSerializationCommandInfo
R6o:__ZN6il2cpp2vm22EmbeddedResourceRecordC2ERKS1_
C7h:_MethodCall_GetObjectData_m3807460959
eda:__GLOBAL__sub_I_Runtime_Misc_2_cpp
MFm:_Collection_1__ctor_m825528237_gshared
cz:__ZN7mecanim9animation25DestroyAnimationNodeStateEPNS0_18AnimationNodeStateER20RuntimeBaseAllocator
b8a:__ZN9Texture2D13AwakeFromLoadE17AwakeFromLoadMode
EZa:__ZN4core8hash_mapIPK17RenderSurfaceBaseP13RenderTexture19PointerHashFunctionIS3_ENSt3__28equal_toIS3_EEE6insertERKS3_RKS5_
egk:_SetPropertyUtility_SetStruct_TisColorBlock_t2139031574_m1748367426_gshared
oHh:_PlayerConnection_get_instance_m1750121257
gOl:_Enumerator_MoveNext_m1359058366_AdjustorThunk
lNn:_Button_SlowScene_m1185954018
CIl:_Dictionary_2_Do_CopyTo_TisRuntimeObject_TisRuntimeObject_m2341992100_gshared
b5m:_X509Store_get_Certificates_m56224934
rwa:__ZN6prcoreL17RemapGenericFloatI15TexFormatRFloat18TexFormatARGBFloatEEvPKNS_9InnerInfoE
BWk:_ExecutionContext_Capture_m681135907
$0d:__ZL56__ManagedRegistrationHelperFunction_WebRequestUtilsProxyPv
P6l:_RSAPKCS1KeyExchangeFormatter_SetRSAKey_m1477802943
gdp:__ZN6il2cpp2vmL17FindClassMatchingEPK11Il2CppImagePKcS5_P11Il2CppClassb
vtk:_EvidenceEnumerator_get_Current_m1264365535
_Zd:__ZN11UnityEngine15PlatformWrapper20GetPlayerPrefsUInt64ERKN4core12basic_stringIcNS1_20StringStorageDefaultIcEEEEy
YYf:_Marshal_copy_from_unmanaged_m2834266824
Kun:_Uri_get_IsUnc_m2977972311
B_c:__Z43Transform_CUSTOM_get_localRotation_InjectedP12Il2CppObjectR11Quaternionf
QNh:_Rect_set_xMax_m1720695099_AdjustorThunk
XUm:_ReadOnlyCollection_1__ctor_m1807868317_gshared
Cil:__Z59RuntimeInvoker_Int32_t2950945753_DateTimeOffset_t3229287507PFvvEPK10MethodInfoPvPS4_
Qod:__ZN35b2InitializeVelocityConstraintsTask7TaskJobEPS_j
xub:__ZNK12HandlerChain6ExistsERK13FileEntryData
mUj:_Calendar__ctor_m106290643
Phh:__ZN16VirtFuncInvoker4I24RaycastHit2D_t227958198919Vector2_t2156229523S1_fiE6InvokeEjP12Il2CppObjectS1_S1_fi
Lsb:__ZN9Transform23VirtualRedirectTransferER24GenerateTypeTreeTransfer
l1c:__ZN12GUIClipState10BeginOnGUIER10InputEvent
akl:__Z87RuntimeInvoker_RuntimeObject_Byte_t1134296376_RuntimeObject_RuntimeObject_RuntimeObjectPFvvEPK10MethodInfoPvPS4_
JNi:_HandshakeMessage_Process_m810828609
Qif:__ZL101GUIStyle_t3956901511_CustomAttributesCacheGenerator_GUIStyle_Internal_GetCursorFlashOffset_m862474508P21CustomAttributesCache
EGi:_MD5SHA1_CreateSignature_m3583449066
xxd:__ZN13TextRendering4FontD2Ev
ZLh:_Quaternion_Inverse_m1311579081
PLo:__ZN6il2cpp6icalls8mscorlib6SystemL16CheckMemberMatchI12PropertyInfoNS_5utils10functional10TrueFilterEEEbPKT_PK11Il2CppClassSD_iRKT0_
CAd:_UNITY_FT_Stream_Open
PNh:_Rect_set_xMax_m1720695099
rCn:__ZN28GenericInterfaceFuncInvoker1Ib20UIVertex_t4057497605E6InvokeEPK10MethodInfoP12Il2CppObjectS0_
wda:__GLOBAL__sub_I_AssetBundleFileSystem_cpp
MNb:__Z29Transfer_Blittable_ArrayFieldI24GenerateTypeTreeTransfer9BoundsIntEvRT_R9ArrayInfoRK23StaticTransferFieldInfo
SBe:_GraphicRegistry__cctor_m1805310505
Kth:_Bounds_Equals_m3920299735
QLg:_InternalEnumerator_1_Dispose_m3978641257_AdjustorThunk
Frb:__ZN8keywords18KeywordSetToStringERK16ShaderKeywordSetRN4core12basic_stringIcNS3_20StringStorageDefaultIcEEEE
izf:_GenericTypeParameterBuilder_GetGenericArguments_m2988765390
y_b:__ZN13GfxDeviceGLES26UpdateViewProjectionMatrixEv
b0m:_TlsStream_Write_m188217214
wel:__Z77RuntimeInvoker_Void_t1185182177_Int64_t3736567304_ResourceInfoU26_t1611441338PFvvEPK10MethodInfoPvPS4_
KEj:_MarshalByRefObject_set_ObjectIdentity_m2909674674
akm:_List_1_CheckCollection_m1717250693_gshared
Rwl:__Z53RuntimeInvoker_Int32_t2950945753_Keyframe_t4206410242PFvvEPK10MethodInfoPvPS4_
eX:__ZN4FMOD3DSP12setParameterEif
sXb:__ZN13MemoryManager16StaticInitializeEv
TRn:_dreamloLeaderBoard_AddScoreWithPipe_m3861025962
oYj:_CultureInfo_Equals_m1360976324
K9l:_KeyValuePair_2_set_Key_m3170517671_AdjustorThunk
Ud:___cxa_free_exception
Raf:__ZL69PersistentCall_t3407714124_CustomAttributesCacheGenerator_m_CallStateP21CustomAttributesCache
L0d:__ZNK20UnityConnectSettings29AnyServiceRequestingCoreStatsEv
qZ:__ZN4FMOD22FakeModChannelCallbackEPv
R6d:_BaseInput_get_compositionString_m1887614380
_h:_emscripten_glValidateProgram
cTa:__ZN4Mesh10CreateMeshEv
e1:__ZN4FMOD7SystemI11createSoundEPKcjP22FMOD_CREATESOUNDEXINFOPPNS_5SoundE
pRn:_QuizButtonOnAndOff_Update_m2086009147
Khj:_WebHeaderCollection__ctor_m896654210
E7i:_DateTime_CompareTo_m3889078633
FCd:_cf2_stack_clear
Vql:__Z133RuntimeInvoker_Int32_t2950945753_Vector2_t2156229523_Vector2_t2156229523_ContactFilter2D_t3805203441_RuntimeObject_Single_t1397266774PFvvEPK10MethodInfoPvPS4_
lzj:_NumberFormatter_set_CurrentCulture_m1358228087
uqd:__ZN10ClipperLib11ClipperBase5ClearEv
tnc:__ZN7Texture13SetAnisoLevelEi
O7:__ZNSt3__26__treeINS_12__value_typeIN4core12basic_stringIcNS2_20StringStorageDefaultIcEEEEjEENS_19__map_value_compareIS6_S7_NS_4lessIS6_EELb1EEE13stl_allocatorIS7_L18MemLabelIdentifier88ELi16EEE7destroyEPNS_11__tree_nodeIS7_PvEE
t0g:_OnChangeEvent__ctor_m3279692900
bjm:__Z29Enumerator_Dispose_m384609772P21Enumerator_t246177295PK10MethodInfo
aDh:_Input_set_compositionCursorPos_m1909373301
mFg:__Z74InternalEnumerator_1_System_Collections_IEnumerator_get_Current_m923624021P32InternalEnumerator_1_t4267370966PK10MethodInfo
ied:__ZN27PerformanceReportingManager23VirtualRedirectTransferER24GenerateTypeTreeTransfer
jAd:_raccess_guess_vfat
Hgl:__Z78RuntimeInvoker_IntPtr_t_SByte_t1669577662_RuntimeObject_BooleanU26_t4125257963PFvvEPK10MethodInfoPvPS4_
She:_RaycastResult_get_gameObject_m2570051527_AdjustorThunk
kUd:__Z44Canvas_CUSTOM_GetETC1SupportedCanvasMaterialv
eXa:__ZN11HaloManager10UpdateHaloEiR9Transform11ColorRGBA32fjP6Object
x1i:_Decimal_decimalSetExponent_m3707787243
Cha:__ZN33InstancedMeshIntermediateRenderer13StaticDestroyEPv
TLg:_InternalEnumerator_1_MoveNext_m2390704400_AdjustorThunk
sza:__ZL62__ManagedRegistrationHelperFunction_AttributeHelperEngineProxyPv
VOb:__ZL26Transfer_SimpleNativeClassI19StreamedBinaryWrite17AnimationCurveTplIfELb0EEvRK29SerializationCommandArgumentsR31RuntimeSerializationCommandInfo
NOp:b85
PMi:_CipherSuiteFactory_GetSsl3SupportedCiphers_m3757358569
_Qa:__Z21DestroyShadowMapCacheP14ShadowMapCache
Wcm:__Z63Enumerator_System_Collections_IEnumerator_get_Current_m99543139P22Enumerator_t1789501480PK10MethodInfo
nKl:_Array_InternalArray__get_Item_TisLabelFixup_t858502054_m3276643490_gshared
sql:__Z68RuntimeInvoker_Vector2_t2156229523_RuntimeObject_Vector2_t2156229523PFvvEPK10MethodInfoPvPS4_
pYo:__ZN15dense_hashtableINSt3__24pairIK10KeyWrapperIPK10Il2CppTypeEjEES6_N6il2cpp8metadata14Il2CppTypeHashEN14dense_hash_mapIS6_jSB_NS6_14EqualsComparerINSA_26Il2CppTypeEqualityComparerEEENS0_9allocatorIS8_EEE9SelectKeyESF_SH_E14squash_deletedEv
I8o:__ZN6il2cpp2vm13LivenessState5ResetEv
ybm:_Enumerator_System_Collections_IEnumerator_Reset_m959124362_gshared
y6c:__ZN9JSONWrite8TransferI11KeyframeTplIfEEEvRT_PKc17TransferMetaFlags
bnc:__ZN22RenderingCommandBuffer23CleanupTemporaryRTArrayER13dynamic_arrayINSt3__24pairIN9ShaderLab16FastPropertyNameEP13RenderTextureEELj0EE
zYi:_SortedList_GetImpl_m3689246167
nDb:__ZN24BuiltinShaderParamValuesC2Ev
H1m:_PKCS12_Decode_m163534693
O6c:__ZL41CreateJSONTransferFunctionScriptingTraitsv
eT:__ZN9Animation15InitializeClassEv
luc:__ZN6Shader23VirtualRedirectTransferER14SafeBinaryRead
gco:_WaitForSecondsRealtime_get_keepWaiting_m846832224
kUb:__Z23GetLateBehaviourManagerv
Qcl:__Z33RuntimeInvoker_Single_t1397266774PFvvEPK10MethodInfoPvPS4_
abc:__ZN27RenderingCommandBufferState13GetAndCheckRTE24BuiltinRenderTextureTypeRKN9ShaderLab16FastPropertyNameEPKcPP13RenderTexture
e3c:__ZN5IMGUI9GUIButtonER8GUIStateRK5RectTIfER10GUIContentR8GUIStylei
Mma:__ZN10MemoryPool10DeallocateEPv
PMd:__ZNK13TextRendering4Font12HasCharacterEi
Fol:__Z80RuntimeInvoker_Void_t1185182177_ScriptableRenderContext_t274343796_RuntimeObjectPFvvEPK10MethodInfoPvPS4_
wKf:__ZN31OpCodes_t126150456_StaticFields13set_Ldarg_207E17OpCode_t123070264
zDm:_Collection_1_System_Collections_ICollection_CopyTo_m46221116_gshared
GDb:__ZN14GfxDeviceStats10ResetFrameEv
Jpc:__Z39TextureStreamingCombineDesiredMipLevelsP23TextureStreamingJobData
OTo:__ZN6il2cpp2gc19AppendOnlyGCHashMapINSt3__24pairIPK12PropertyInfoP11Il2CppClassEEP24Il2CppReflectionProperty17ReflectionMapHashIS9_ENS2_8equal_toIS9_EEE11TryGetValueERKS9_PSB_
Yjp:__ZNK15dense_hashtableINSt3__24pairIK10KeyWrapperIPcES3_EES4_N6il2cpp5utils15PassThroughHashIS3_EEN14dense_hash_mapIS4_S3_SA_NS4_14EqualsComparerINS0_8equal_toIS3_EEEENS0_9allocatorIS6_EEE9SelectKeyESF_SH_E5beginEv
OQj:_DynamicMethod_Invoke_m1697917514
_Jp:dynCall_vif
wob:__ZN18LoadSceneOperation22CompleteLoadFirstSceneEv
jRo:__ZN15dense_hashtableINSt3__24pairIK10KeyWrapperIPK10Il2CppTypeEjEES6_N6il2cpp8metadata14Il2CppTypeHashEN14dense_hash_mapIS6_jSB_NS6_14EqualsComparerINSA_26Il2CppTypeEqualityComparerEEENS0_9allocatorIS8_EEE9SelectKeyESF_SH_E12expand_arrayEjN21dense_hash_map_traits17integral_constantIbLb0EEE
B3i:_Convert_ToSByte_m4075629912
lKp:dynCall_vii
tUn:_U3CWebServiceU3Ec__Iterator0_Reset_m2274626363
wPk:_KeyPairPersistence_FromXml_m746585742
IBk:_Decoder__ctor_m4046021500
Qgm:_Enumerator__ctor_m3875432026_gshared
Sle:_ColorBlock_get_fadeDuration_m121071467
TKo:__ZN6il2cpp6icalls8mscorlib6System8MonoType18GetFields_internalEP20Il2CppReflectionTypeiS5_
eIa:__ZN5Unity9Component16CheckConsistencyEv
sRf:_MonoMethod_get_ContainsGenericParameters_m3860345224
GSa:__ZN19ShaderPropertySheet37CreateTextureAuxPropertyUninitializedEN9ShaderLab16FastPropertyNameES1_PKc
lvo:__ZN6il2cpp2vm5Class13GetBitmapSizeEPK11Il2CppClass
xFh:__ZN34Matrix4x4_t1817901843_StaticFields17set_zeroMatrix_16E21Matrix4x4_t1817901843
g1o:_il2cpp_unity_install_unitytls_interface
T8a:__ZN20TextureStreamingData10AddTextureEii13TextureFormatiii
UO:__ZN9Animation13BlendAdditiveEv
nVg:_Enumerator_Reset_m54102781_AdjustorThunk
W$b:__ZN13GfxDeviceGLES17SetGpuProgramNameEP10GpuProgramPKc
Z9:__ZNK11UnityEngine15CloudWebService25WebRequestDownloadHandler11GetProgressEv
Hfd:__ZN9Scripting11UnityEngine19ContactPoint2DProxy12CleanupProxyEv
Cvj:_CategoryUtils_CategoryFromName_m1352081402
ilk:_Array_InternalArray__ICollection_Add_TisMonoResource_t4103430009_m2699164149_gshared
nFo:__ZN6il2cpp2vm13MetadataCache28GetMethodDefinitionFromIndexEi
c5o:__ZN15dense_hashtableINSt3__24pairIK10KeyWrapperINS1_IP11Il2CppClassjEEES4_EES6_N6il2cpp8metadata14ArrayClassHashEN14dense_hash_mapIS6_S4_SB_NS6_14EqualsComparerINSA_17ArrayClassCompareEEENS0_9allocatorIS8_EEE9SelectKeyESF_SH_E4findERS7_
snp:__ZN6il2cpp2os20FileErrnoToErrorCodeEi
l1a:__ZN14SafeBinaryRead19TransferSTLStyleMapINSt3__23mapI39DeprecatedFastPropertyNameSerialization10ColorRGBAfNS1_4lessIS3_EENS1_9allocatorINS1_4pairIKS3_S4_EEEEEEEEvRT_17TransferMetaFlags
ZKo:__ZNSt3__26vectorIP9FieldInfoNS_9allocatorIS2_EEE21__push_back_slow_pathIRKS2_EEvOT_
y1i:_Decimal_ThrowAtPos_m1170269346
U$f:_ChannelServices_CheckReturnMessage_m42854321
Pe:_atexit
Nnh:_Selectable_set_image_m3625164794
JEo:__ZN15dense_hashtableINSt3__24pairIK10KeyWrapperIPK19Il2CppGenericMethodEPK26Il2CppGenericMethodIndicesEES6_N6il2cpp8metadata23Il2CppGenericMethodHashEN14dense_hash_mapIS6_SA_SE_NS6_14EqualsComparerINSD_26Il2CppGenericMethodCompareEEENS0_9allocatorISB_EEE9SelectKeyESI_SK_E12resize_deltaEjj
gem:_Enumerator_Dispose_m951715887_gshared
OEg:_InternalEnumerator_1_get_Current_m1232221964_gshared
SDj:_IntPtr_System_Runtime_Serialization_ISerializable_GetObjectData_m1980135475
$Um:_ReadOnlyCollection_1_System_Collections_Generic_IListU3CTU3E_Insert_m1818924748_gshared
cWo:__ZN6il2cpp2vmL31GetObjectForMissingDefaultValueEj
MP:__ZNK26AnimatorOverrideController13GetBehavioursEv
Jke:_AspectRatioFitter__ctor_m2468506840
n0b:__ZN13GfxDeviceGLES22UpdateComputeResourcesERK22ComputeShaderResources
BSn:_U3CAddScoreWithPipeU3Ec__Iterator1_MoveNext_m1156175633
PWd:__ZN11UnityEngine15PlatformWrapper30GetVRPlayAreaBoundaryDimensionEv
SFl:_Array_Sort_TisBoolean_t97287965_TisBoolean_t97287965_m2753381653_gshared
p4d:__ZL51__ManagedRegistrationHelperFunction_VideoErrorProxyPv
eP:__ZN14AnimationState13CleanupCurvesEv
Hwc:__ZN9ShaderLab14SerializedPassC2ERKS0_
X6c:__Z35Transfer_Blittable_FixedBufferFieldI9JSONWritehEvRK29SerializationCommandArgumentsR31RuntimeSerializationCommandInfo
l:STACKTOP
B8e:__ZL48Random_t635017412_CustomAttributesCacheGeneratorP21CustomAttributesCache
EEd:_cff_get_name_index
_cb:__ZN21EnlightenSceneMapping16BuildRemapTablesEv
Jya:__ZN6prcoreL12RemapGenericI13TexFormatRG8817TexFormatARGB8888EEvPKNS_9InnerInfoE
Qoa:__ZN17TransformInternal27UpdateDeepChildCountUpwardsER18TransformHierarchyii
swk:_Single_System_IConvertible_ToBoolean_m1716619219_AdjustorThunk
$Rh:_Sprite_GetInnerUVs_m3161811504
s5e:__ZL52Matrix4x4_t1817901843_CustomAttributesCacheGeneratorP21CustomAttributesCache
R3m:_X509Certificate_get_Hash_m410033711
fse:_Image_set_type_m2038193736
exg:__Z75InternalEnumerator_1_System_Collections_IEnumerator_get_Current_m1976902927P32InternalEnumerator_1_t1765566171PK10MethodInfo
Gud:__ZN22WorldContactListener2D10EndContactEP9b2Contact
Pmc:__ZNK25CameraStackRenderingState25CalculateCameraTargetTypeEv
mLf:_PropertyBuilder_GetSetMethod_m128670376
VH:__ZN14SafeBinaryRead21TransferSTLStyleArrayI13dynamic_arrayI11KeyframeTplI8Vector3fELj0EEEEvRT_17TransferMetaFlags
w:tempBigIntS
Eo:FUNCTION_TABLE_viffi
toa:__ZN6Object18RegisterInstanceIDEPS_
pMb:__Z18Transfer_BlittableI24GenerateTypeTreeTransferLb1EsEvRK29SerializationCommandArgumentsR31RuntimeSerializationCommandInfo
Mhp:__ZN15dense_hashtableINSt3__24pairIK10KeyWrapperIP12Il2CppObjectEN6il2cpp2gc9CachedCCWEEES5_NS7_5utils11PointerHashIS3_EEN14dense_hash_mapIS5_S9_SD_NS5_14EqualsComparerINS0_8equal_toIS4_EEEENS0_9allocatorISA_EEE9SelectKeyESI_SK_E11set_deletedER30dense_hashtable_const_iteratorISA_S5_SD_SM_SI_SK_E
Nzb:__ZNK9GfxDevice18GetWorldViewMatrixEv
mtl:__Z70RuntimeInvoker_Single_t1397266774_Single_t1397266774_Int32_t2950945753PFvvEPK10MethodInfoPvPS4_
ucc:__Z20LookRotationToMatrixRK8Vector3fS1_P10Matrix3x3f
vin:_GUISkin_GetStyle_m2344315993
rGc:__ZZL31RegisterOtherRendererPropertiesR22GenericPropertyBindingEN28Wrapper_RendererSortingOrder13SetFloatValueEPvf
f4i:_Convert_ToUInt16_m3902921832
LKj:_Assembly_GetTypes_m1724781913
EFn:__ZN23InterfaceActionInvoker1IfE6InvokeEjP11Il2CppClassP12Il2CppObjectf
rNe:__ZL54TypeBuilder_t1073948154_CustomAttributesCacheGeneratorP21CustomAttributesCache
odk:_Array_InternalArray__ICollection_Contains_TisKeyValuePair_2_t1377593753_m2905547387_gshared
Jmi:_SmallXmlParser_ReadComment_m1578426707
xdp:__ZN6il2cpp2vm5Image20EmbeddedResourceDataC2EOS2_
Rkm:_List_1_AddEnumerable_m376418521_gshared
Yeh:_Navigation_set_selectOnDown_m1641183109
fkl:__Z79RuntimeInvoker_Void_t1185182177_Byte_t1134296376_Byte_t1134296376_RuntimeObjectPFvvEPK10MethodInfoPvPS4_
mMp:_glGetUniformBlockIndex__wrapper
RCo:__ZNSt3__218__insertion_sort_3IRN6il2cpp5utils11collections13ArrayValueMapIPK10Il2CppType17Il2CppInteropData26InteropDataToTypeConverterNS1_8metadata14Il2CppTypeLessENSA_26Il2CppTypeEqualityComparerEE12SortComparerEPS8_EEvT0_SH_T_
o8h:_ConstructionResponse_get_Properties_m4079816931
Abn:_GUIStyle_GetCursorStringIndex_m534719898
dtd:__ZN11Rigidbody2D23VirtualRedirectTransferER14SafeBinaryRead
z0i:_DateTime_SpecifyKind_m3332658812
Rzb:__ZNK9GfxDevice25GetDeviceProjectionMatrixEv
wbm:_Enumerator__ctor_m3170385166_AdjustorThunk
UWn:_AesTransform_Decrypt128_m3018534522
Owc:__ZNSt3__26__treeINS_12__value_typeI11ShaderTagIDS2_EENS_19__map_value_compareIS2_S3_NS_4lessIS2_EELb1EEENS_9allocatorIS3_EEE14__assign_multiINS_21__tree_const_iteratorIS3_PNS_11__tree_nodeIS3_PvEEiEEEEvT_SI_
Da:invoke_iidiii
vMb:__Z18Transfer_BlittableI24GenerateTypeTreeTransferLb1EtEvRK29SerializationCommandArgumentsR31RuntimeSerializationCommandInfo
c4:__ZN12AudioManager33GetCurrentAmbisonicDefinitionNameE31UnityAudioEffectDefinitionFlags
FRc:__ZN11UTF16StringC2EPKc10MemLabelId
NQc:__ZN10systeminfo24GetRuntimePlatformStringEv
N4j:_MonoIO_DeleteFile_m3839141322
e7:__ZN5physx14PxLightCpuTask15removeReferenceEv
kVo:__ZN15dense_hashtableINSt3__24pairIK10KeyWrapperINS1_IPK9EventInfoP11Il2CppClassEEEjEES9_17ReflectionMapHashIS8_EN14dense_hash_mapIS9_jSD_NS9_14EqualsComparerINS0_8equal_toIS8_EEEENS0_9allocatorISB_EEE9SelectKeyESI_SK_E13clear_deletedER30dense_hashtable_const_iteratorISB_S9_SD_SM_SI_SK_E
Zha:__ZN13RuntimeStaticI13ModuleManagerLb0EE13StaticDestroyEPv
jlp:__ZN6il2cpp6icalls8mscorlib6System6String22RedirectToCreateStringEv
sPo:__ZN14dense_hash_mapI10KeyWrapperINSt3__24pairIPK9FieldInfoP11Il2CppClassEEEj17ReflectionMapHashIS8_ENS9_14EqualsComparerINS1_8equal_toIS8_EEEENS1_9allocatorINS2_IKS9_jEEEEE3endEv
YMe:__ZL99ILGenerator_t1388622344_CustomAttributesCacheGenerator_ILGenerator_Mono_GetCurrentOffset_m993338688P21CustomAttributesCache
Ifk:__Z59PlayableHandle_IsPlayableOfType_TisRuntimeObject_m503495943P26PlayableHandle_t1095853803PK10MethodInfo
Yah:_LayoutRebuilder_ReapplyDrivenProperties_m2581469389
g7m:_Event_Internal_Use_m1097157232
KQc:__ZN9Scripting20CreateUnityExceptionEPKcz
zjp:__ZN14dense_hash_mapI10KeyWrapperIPcES1_N6il2cpp5utils15PassThroughHashIS1_EENS2_14EqualsComparerINSt3__28equal_toIS1_EEEENS8_9allocatorINS8_4pairIKS2_S1_EEEEED2Ev
RSa:__ZN9ShaderLab6TexEnvC2ERKNS_25SerializedTexturePropertyE
x6g:_InputField_Append_m687033660
eKc:__Z28IntersectLineSegmentWithLineRK8Vector2fS1_S1_S1_RS_
DNa:__ZN9Transform32SetLocalScaleWithoutNotificationERKN4math7_float3Ey
n0a:__ZN19ShaderPropertySheet38CopyTextureWithAuxiliaryPropertiesFromERKN9ShaderLab16FastPropertyNameERKS_
Jyd:__ZN20TextRenderingPrivate19NativeTextGeneratorD2Ev
ydl:__Z105RuntimeInvoker_Void_t1185182177_RuntimeObject_RuntimeObject_Int32_t2950945753_RuntimeObject_RuntimeObjectPFvvEPK10MethodInfoPvPS4_
Tq:__ZN4AABB8TransferI19StreamedBinaryWriteEEvRT_
b6i:_DateTime__ctor_m12900168_AdjustorThunk
_lc:__ZN27IntermediateRendererManager24AddIntermediateRenderersEP21IntermediateRenderersi
nPi:_ClientSessionCache_FromContext_m343076119
Pd:___cxa_end_catch
byo:__ZN15dense_hashtableINSt3__24pairIK10KeyWrapperIPK11Il2CppClassEPKcEES6_N6il2cpp5utils11PointerHashIS3_EEN14dense_hash_mapIS6_S9_SE_NS6_14EqualsComparerINS0_8equal_toIS5_EEEENS0_9allocatorISA_EEE9SelectKeyESJ_SL_E12expand_arrayEjN21dense_hash_map_traits17integral_constantIbLb0EEE
Cqk:_ToBase64Transform_TransformBlock_m2497349397
q5c:__Z68Register_UnityEngine_GUIStyle_Internal_GetCursorStringIndex_Injectedv
Zgj:_NameValueCollection_Add_m2418530856
Fci:_ReturnMessage_get_MethodSignature_m399735125
dSm:_ReadOnlyCollection_1_System_Collections_Generic_IListU3CTU3E_RemoveAt_m3171070954_gshared
rUd:__Z43Register_UnityEngine_Canvas_set_scaleFactorv
tIk:_SortKeyBuffer_AppendLevel5_m3963841125
Ktn:_PositionAssertion_Compile_m2500980346
Hxi:_ArrayListWrapper_ToArray_m3192696690
kAd:_raccess_guess_linux_cap
$8b:__ZZ23InitPlayerLoopCallbacksvEN51PostLateUpdateTriggerEndOfFrameCallbacksRegistrator7ForwardEv
ks:__ZN13ConstraintJob23ConstraintComponentDataC2ERK18RotationConstraint
GHa:__ZN9Scripting5Unity11Collections8LowLevel6Unsafe34NativeSetThreadIndexAttributeProxy9InitProxyEv
nyi:_SynchronizedArrayListWrapper_get_IsFixedSize_m3396437476
NEa:__ZN9Scripting11UnityEngine26ImageEffectAfterScaleProxy12CleanupProxyEv
Ori:_Attribute_GetCustomAttribute_m4034845276
Uia:__Z33InitializeBuiltinShaderParamNamesv
p4a:__ZN18StreamedBinaryRead21TransferSTLStyleArrayI13dynamic_arrayI10Matrix4x4fLj16EEEEvRT_17TransferMetaFlags
a1k:_Type_GetConstructor_m2219014380
boe:_CanvasUpdateRegistry_SortLayoutList_m471948466
hyk:_String_Split_m1466646415
FIa:__ZNK16TypeTreeIterator4TypeEv
kIk:_Context__ctor_m2477370097
QJp:dynCall_vd
N7b:__ZN10FileSystem25MountDataFolderFileSystemERKN4core12basic_stringIcNS0_20StringStorageDefaultIcEEEES6_
yzc:__ZNSt3__26vectorIN9ShaderLab20SerializedSubProgram13BufferBindingENS_9allocatorIS3_EEE21__push_back_slow_pathIS3_EEvOT_
ehi:_ArgumentOutOfRangeException__ctor_m282481429
Icb:__ZN16LightmapSettings23VirtualRedirectTransferER19StreamedBinaryWrite
fdn:_GUILayoutUtility_Internal_MoveWindow_m3463958180
Lk:_glGetUniformLocation
j$b:__ZN13GfxDeviceGLES32CreateColorRenderSurfacePlatformEP17RenderSurfaceBase19RenderTextureFormat
x2:__ZN12AudioManager24CreateFMODSoundFromMovieEP9AudioClip
yif:__ZL89GUIStyleState_t1397964415_CustomAttributesCacheGenerator_GUIStyleState_Cleanup_m696329069P21CustomAttributesCache
dXo:__ZN15dense_hashtableINSt3__24pairIK10KeyWrapperIPK14Il2CppAssemblyEPK22Il2CppMonoAssemblyNameEES6_N6il2cpp5utils11PointerHashIS4_EEN14dense_hash_mapIS6_SA_SF_NS6_14EqualsComparerINS0_8equal_toIS5_EEEENS0_9allocatorISB_EEE9SelectKeyESK_SM_E5clearEv
mLi:_CipherSuite_createEncryptionCipher_m2533565116
ptp:_GC_hblk_fl_from_blocks
hQf:_MonoField_GetParentType_m2478933781
p1i:_Decimal_Parse_m942471224
Gtd:__Z18RegisterUnityClassI11Rigidbody2DEvPKc
Jna:__Z24ConvertSeparatorsToUnityPc
WUo:__ZN6il2cpp2gc19AppendOnlyGCHashMapINSt3__24pairIPK9EventInfoP11Il2CppClassEEP21Il2CppReflectionEvent17ReflectionMapHashIS9_ENS2_8equal_toIS9_EEE3AddERKS9_SB_
D1o:__ZN6il2cpp2vm6Thread20FreeThreadStaticDataEP12Il2CppThread
H6k:__Z28RuntimeInvoker_RuntimeObjectPFvvEPK10MethodInfoPvPS4_
vbn:_TextEditor_ReplaceNewlinesWithSpaces_m1720138249
LAa:__ZL60__ManagedRegistrationHelperFunction_LowerResBlitTextureProxyPv
VCd:_cf2_glyphpath_finalize
VTe:__ZL56SecurityAction_t569814076_CustomAttributesCacheGeneratorP21CustomAttributesCache
GAc:__Z18RegisterUnityClassI12MeshRendererEvPKc
jxi:_ArrayListWrapper_set_Capacity_m2373297383
y5g:_Text_get_cachedTextGenerator_m2506989875
APn:_HandleText_Start_m252235973
abm:_Enumerator_System_Collections_IEnumerator_Reset_m502339360_AdjustorThunk
cTh:_Texture2DArray__ctor_m4056612996
HKe:__ZL58DictionaryEntry_t3123975638_CustomAttributesCacheGeneratorP21CustomAttributesCache
xjo:_TextGenerator_GetVerticesInternal_m3222977969
lGb:__Z44InitializeTransferFunctionScriptingTraitsForI19StreamedBinaryWriteEvR31TransferFunctionScriptingTraits
Qtm:_List_1_RemoveAt_m4279084788_gshared
pAd:_UNITY_FT_Stream_Free
KYk:_ThreadPool_RegisterWaitForSingleObject_m3828286853
_4o:__ZN15dense_hashtableINSt3__24pairIK10KeyWrapperINS1_IP11Il2CppClassjEEES4_EES6_N6il2cpp8metadata14ArrayClassHashEN14dense_hash_mapIS6_S4_SB_NS6_14EqualsComparerINSA_17ArrayClassCompareEEENS0_9allocatorIS8_EEE9SelectKeyESF_SH_E12maybe_shrinkEv
rdd:__ZNK5Unity9rapidjson12GenericValueINS0_4UTF8IcEE13JSONAllocatorE6AcceptINS0_12PrettyWriterI16TempBufferWriterS3_S3_S4_EEEEbRT_
_dg:_CryptoConfig_EncodeLongNumber_m4127306320
hsl:__Z87RuntimeInvoker_Void_t1185182177_Single_t1397266774_Single_t1397266774_SByte_t1669577662PFvvEPK10MethodInfoPvPS4_
olf:__ZL63AnalyticsSessionInfo_t2322308579_CustomAttributesCacheGeneratorP21CustomAttributesCache
W7:__ZN11UnityEngine15CloudWebService14DataDispatcher25OnDataBlockConsumedStaticEPv
FO:__ZN9Animation20GetClipLegacyWarningEP13AnimationClip
yWm:_ReadOnlyCollection_1_System_Collections_IList_RemoveAt_m740153944_gshared
Gsm:_List_1_CheckIndex_m3044940639_gshared
lco:_GenericStack__ctor_m933681517
tFo:__ZNK6il2cpp5utils11collections13ArrayValueMapIPK10Il2CppType17Il2CppInteropData26InteropDataToTypeConverterNS_8metadata14Il2CppTypeLessENS8_26Il2CppTypeEqualityComparerEE10find_firstERKS5_
W1a:__ZN8Material8TransferI18StreamedBinaryReadEEvRT_
KDp:___mo_lookup
BFa:__ZN9Scripting11UnityEngine12Experimental10PlayerLoop14PreUpdateProxy12CleanupProxyEv
VEj:_Math_Max_m482125436
UXi:_SortedList_InitTable_m875730861
ubb:__ZN9Texture3D8TransferI18StreamedBinaryReadEEvRT_
PZf:_ActivatedServiceTypeEntry_ToString_m1591455874
Ktk:_SecurityElement_ToXml_m3664345083
ADl:_Array_InternalArray__Insert_TisParameterModifier_t1461694466_m3664994573_gshared
xLg:_InternalEnumerator_1_MoveNext_m1258813334_AdjustorThunk
XWl:_DefaultComparer_Equals_m1870794912_gshared
pvc:__Z14resize_trimmedINSt3__26vectorIN9ShaderLab20SerializedSubProgram16SamplerParameterENS0_9allocatorIS4_EEEEEvRT_j
goh:_Shadow_set_effectColor_m3910676693
YGp:__ZNSt3__212basic_stringIcNS_11char_traitsIcEENS_9allocatorIcEEE6insertEjPKcj
Q6c:__Z44InitializeTransferFunctionScriptingTraitsForI8JSONReadEvR31TransferFunctionScriptingTraits
aQb:__Z19TransferField_ArrayI19StreamedBinaryWrite16Converter_StringEvRK23StaticTransferFieldInfoR31RuntimeSerializationCommandInfoRT0_
FWa:__ZN15ReflectionProbe23VirtualRedirectTransferER17RemapPPtrTransfer
ZYb:__ZNSt3__27__sort4IRNS_4lessIN22BuiltinResourceManager8ResourceEEEPS3_EEjT0_S7_S7_S7_T_
Ffj:_ListDictionary_Add_m3918308031
uhp:__ZNK15dense_hashtableINSt3__24pairIK10KeyWrapperIP12Il2CppObjectEN6il2cpp2gc9CachedCCWEEES5_NS7_5utils11PointerHashIS3_EEN14dense_hash_mapIS5_S9_SD_NS5_14EqualsComparerINS0_8equal_toIS4_EEEENS0_9allocatorISA_EEE9SelectKeyESI_SK_E23find_position_with_hashERS6_j
tHf:__ZN31OpCodes_t126150456_StaticFields11set_Br_S_42E17OpCode_t123070264
_4g:_Selectable_OnDisable_m3225138518
eob:__ZN17PersistentManager34ExtractTimeSliceAwakeFromLoadQueueER27TimeSliceAwakeFromLoadQueueNS_9LockFlagsE
JNl:__Z57Enumerator_System_Collections_IEnumerator_Reset_m85524874P21Enumerator_t701438809PK10MethodInfo
ZId:_UNITY_tt_face_get_location
DWn:_AesManaged_CreateEncryptor_m1611897367
efh:_Navigation_set_selectOnLeft_m873759494_AdjustorThunk
F9b:__ZN6Shader16GetDefaultOrNullEv
Xpp:___cxx_global_var_init_43847
I5d:__ZN9Scripting11UnityEngine12Experimental2XR17XRRaycastHitProxy9InitProxyEv
b7j:_DelegatePInvokeWrapper_WriteDelegate_t4270993571
loc:__ZN10GameObject34AddFirstTransformComponentInternalEP9Transform
xqo:__ZL9lshift128PyS_
TYc:__Z31Cursor_Get_Custom_PropLockStatev
gph:__ZNK18Slider_t390372890214get_m_Value_24Ev
Ofa:__ZNSt3__26__treeINS_12__value_typeINS_4pairIPcS3_EENS_3setIS3_15compare_tstringIPKcENS_9allocatorIS3_EEEEEENS_19__map_value_compareIS4_SD_20smaller_tstring_pairIS8_ELb1EEENSA_ISD_EEE7destroyEPNS_11__tree_nodeISD_PvEE
p1:__ZN12AudioManager29GetCurrentAmbisonicDefinitionE31UnityAudioEffectDefinitionFlags
JVc:__Z52Register_UnityEngine_GameObject_GetComponentInParentv
bmb:__ZN15SerializeTraitsINSt3__24pairIPKN5Unity4TypeE7Hash128EEE8TransferI14SafeBinaryReadEEvRS7_RT_
Ksp:_GC_number_stack_black_listed
$9i:_Decimal_ToString_m4018746482_AdjustorThunk
hlc:__Z37GenerateCombinedDynamicVisibleListJobP11CullResults
ord:__ZN10ClipperLib7Clipper11BuildResultERNSt3__26vectorINS2_INS_8IntPointENS1_9allocatorIS3_EEEENS4_IS6_EEEE
Pbb:__ZNK13ScreenManager21GetCursorInsideWindowEv
gR:__ZN14SafeBinaryRead21TransferSTLStyleArrayI22OffsetPtrArrayTransferI9OffsetPtrIN7mecanim12statemachine26SelectorTransitionConstantEEEEEvRT_17TransferMetaFlags
sNj:_CustomAttributeData_GetCustomAttributes_m1033457578
nZf:_SafeHandle_DangerousAddRef_m614714386
Uhc:__Z20IntersectAABBFrustumRK4AABBPK5Planej
Q7d:__Z22il2cpp_codegen_initobjPvj
$kh:_ScrollRect_OnDrag_m688583138
fEc:__ZN13RenderManager15InitializeClassEv
jJb:__ZN15SerializeTraitsI12PropertyNameE8TransferI14SafeBinaryReadEEvRS0_RT_
rKa:__ZN14SafeBinaryRead10SetVersionEi
XYc:__Z52Register_UnityEngine_AnimationCurve_Internal_Destroyv
r4d:__ZL54__ManagedRegistrationHelperFunction_VideoPlaybackProxyPv
LOm:_ReadOnlyCollection_1_System_Collections_IList_IndexOf_m3120991897_gshared
L8h:_Header__ctor_m1921907550
Oph:_Slider_FindSelectableOnUp_m4062600878
t3i:_Convert_ToSByte_m1350241137
UBc:__ZZN9Transform15InitializeClassEvEN31FunctorImpl_114kDidAddComponent4CallEPviR11MessageData
_Bo:__ZN15dense_hashtableI10KeyWrapperIPK19Il2CppGenericMethodES4_N6il2cpp8metadata23Il2CppGenericMethodHashEN14dense_hash_setIS4_S7_NS4_14EqualsComparerINS6_26Il2CppGenericMethodCompareEEENSt3__29allocatorIS4_EEE8IdentityESB_SE_E5clearEv
Z8c:__ZN9JSONWrite8TransferI11ColorRGBA32EEvRT_PKc17TransferMetaFlags
Fbd:__Z22TransferField_NonArrayI8JSONRead27Converter_SimpleNativeClassI8GradientEEvRK23StaticTransferFieldInfoR31RuntimeSerializationCommandInfoRT0_
gMo:__ZN6il2cpp6icalls8mscorlib6SystemL12GetEventImplINS_5utils10functional6FilterINSt3__212basic_stringIcNS7_11char_traitsIcEENS7_9allocatorIcEEEENS4_13VmStringUtils23CaseInsensitiveComparerEEEEEP21Il2CppReflectionEventP11Il2CppClassiRKT_
smb:__ZN30RuntimeInitializeOnLoadManager23VirtualRedirectTransferER19StreamedBinaryWrite
oTb:__ZN10MonoScript13AwakeFromLoadE17AwakeFromLoadMode
bln:_Interval__ctor_m4022869013
Tsi:_Boolean_System_IConvertible_ToUInt16_m3465173538
b8b:__ZN10MemoryFile21CreateFileSystemEntryE10MemLabelId14FilePermissionPvjb
TEi:_ARC4Managed_KeySetup_m2449315676
b9c:__ZN9JSONWrite8TransferI13dynamic_arrayI5RectTIiELj0EEEEvRT_PKc17TransferMetaFlags
pHo:__ZN6il2cpp2vm13MetadataCache27GetEventDefinitionFromIndexEi
pjc:__ZN8DrawUtil11DrawMeshRawE16VertexInputMasksR4MeshiiPS1_
G4i:_Convert_ToUInt64_m92315402
lJl:__Z61GameObject_GetComponents_TisComponent_t1923634451_m1648148377P22GameObject_t1113636619P18List_1_t3395709193PK10MethodInfo
c8c:__Z18Transfer_BlittableI9JSONWriteLb1EdEvRK29SerializationCommandArgumentsR31RuntimeSerializationCommandInfo
Uzm:__Z30Enumerator_Dispose_m2419537076P22Enumerator_t3588277760PK10MethodInfo
DCk:_EncoderExceptionFallback__ctor_m3745979420
D:Math_pow
Ewg:_InternalEnumerator_1_System_Collections_IEnumerator_get_Current_m435848551_gshared
pJa:__ZN10GameObject28FinalizeAddComponentInternalEPN5Unity9ComponentE
rRo:__ZN15dense_hashtableINSt3__24pairIK10KeyWrapperIPK10Il2CppTypeEjEES6_N6il2cpp8metadata14Il2CppTypeHashEN14dense_hash_mapIS6_jSB_NS6_14EqualsComparerINSA_26Il2CppTypeEqualityComparerEEENS0_9allocatorIS8_EEE9SelectKeyESF_SH_E3endEv
spf:__ZL57Image_t2670269651_CustomAttributesCacheGenerator_m_SpriteP21CustomAttributesCache
o9a:__ZN9Texture2DD2Ev
s7n:_AudioExtensionManager_GetReadyToPlay_m1557263244
it:__ZL53__ManagedRegistrationHelperFunction_SkeletonBoneProxyPv
P3i:_Convert_ToSingle_m164367433
oKl:_Array_InternalArray__get_Item_TisILTokenInfo_t2325775114_m3110830457_gshared
J1i:_Convert_ToDecimal_m1284410333
S7i:_DateTime_CheckStyle_m1392838900
KGf:__ZN31OpCodes_t126150456_StaticFields13set_Ldarg_3_5E17OpCode_t123070264
fid:__ZN16PhysicsManager2D43RegisterTransformChangeInterestForRigidbodyEP11Rigidbody2D
Lmi:_SmallXmlParser_ReadUntil_m2715581630
Pfj:_NameObjectCollectionBase__ctor_m2090733912
dwj:_Group__cctor_m2230627219
KIf:__ZN31OpCodes_t126150456_StaticFields13set_Ldstr_113E17OpCode_t123070264
y8l:__Z36KeyValuePair_2_set_Value_m3358607572P24KeyValuePair_2_t71524366P12Il2CppObjectPK10MethodInfo
K7o:__ZNSt3__23setINS_12basic_stringIcNS_11char_traitsIcEENS_9allocatorIcEEEENS_4lessIS6_EENS4_IS6_EEED2Ev
YAh:_GraphicsFormatUtility_IsSRGBFormat_m3893170616
pTf:_StrongNameKeyPair_System_Runtime_Serialization_ISerializable_GetObjectData_m2655882830
iCi:_BigInteger__cctor_m102257529
zIi:_RSAManaged_EncryptValue_m4149543654
Usa:__ZN27IntermediateRendererManagerD2Ev
Upb:__ZN17PersistentManager27GetLoadErrorMessageFromPathERKN4core12basic_stringIcNS0_20StringStorageDefaultIcEEEE
k1m:_NetscapeCertTypeExtension_ToString_m1800688476
ik:_glGenRenderbuffers
v7o:__ZN6il2cpp6icalls8mscorlib6System2IO6MonoIO19GetCurrentDirectoryEPi
xQh:_Renderer_get_sortingOrder_m344607889
Jic:__Z21IntersectSegmentPlaneRK8Vector3fS1_RK5PlanePS_
Wfl:__Z81RuntimeInvoker_Void_t1185182177_Int64_t3736567304_RuntimeObject_Int32_t2950945753PFvvEPK10MethodInfoPvPS4_
Ftf:__ZL50Outline_t2536100125_CustomAttributesCacheGeneratorP21CustomAttributesCache
Mpf:__ZL75InputField_t3762917431_CustomAttributesCacheGenerator_m_CharacterValidationP21CustomAttributesCache
Awn:_Uri_get_IsFile_m2450018824
Upa:__ZN14CachingManager7DisposeEv
V0:__ZN12AudioManager31GetCurrentSpatializerDefinitionEv
_ej:_HybridDictionary_Add_m912320053
BGh:_MonoBehaviour_Invoke_m4227543964
lgb:__ZN12MeshRenderer16UpdateCachedMeshEv
k9a:__ZN7Cubemap8TransferI19StreamedBinaryWriteEEvRT_
eVn:_KeyBuilder_IV_m3340234014
QIb:__Z19TransferField_ArrayI14SafeBinaryRead27Converter_SimpleNativeClassI8GradientEEvRK23StaticTransferFieldInfoR31RuntimeSerializationCommandInfoRT0_
hWl:_DefaultComparer_Equals_m1163494476_gshared
B5l:_RIPEMD160Managed_GG_m3020389474
rek:_Array_InternalArray__ICollection_Remove_TisDictionaryEntry_t3123975638_m3699186409_gshared
ZSi:_HttpsClientStream_RaiseServerCertificateValidation_m3782467213
nC:__ZNK27StateMachineBehaviourPlayer25FireStateMachineBehaviourEiiN7mecanim12statemachine19StateMachineMessageE
ysh:_AsyncOperation_t1445031843_marshal_pinvoke_back
rg:_emscripten_glGenVertexArrays
mNh:_Rect_get_center_m138276653
yzh:__Z39CachedInvokableCall_1__ctor_m2046334630P32CachedInvokableCall_1_t982173797P17Object_t631007953P12MethodInfo_tiPK10MethodInfo
$rg:_InternalEnumerator_1__ctor_m819716934_AdjustorThunk
